
AccelerometroOMDv2.elf:     file format elf32-littlearm

Sections:
Idx Name          Size      VMA       LMA       File off  Algn
  0 .isr_vector   00000198  08008000  08008000  00008000  2**0
                  CONTENTS, ALLOC, LOAD, READONLY, DATA
  1 .text         0000d6fc  080081a0  080081a0  000081a0  2**4
                  CONTENTS, ALLOC, LOAD, READONLY, CODE
  2 .rodata       00013350  0801589c  0801589c  0001589c  2**2
                  CONTENTS, ALLOC, LOAD, READONLY, DATA
  3 .ARM.extab    00000000  08028bec  08028bec  00030160  2**0
                  CONTENTS
  4 .ARM          00000008  08028bec  08028bec  00028bec  2**2
                  CONTENTS, ALLOC, LOAD, READONLY, DATA
  5 .preinit_array 00000000  08028bf4  08028bf4  00030160  2**0
                  CONTENTS, ALLOC, LOAD, DATA
  6 .init_array   00000004  08028bf4  08028bf4  00028bf4  2**2
                  CONTENTS, ALLOC, LOAD, DATA
  7 .fini_array   00000004  08028bf8  08028bf8  00028bf8  2**2
                  CONTENTS, ALLOC, LOAD, DATA
  8 .data         00000160  20000000  08028bfc  00030000  2**2
                  CONTENTS, ALLOC, LOAD, DATA
  9 .bss          0000e87c  20000160  08028d5c  00030160  2**2
                  ALLOC
 10 ._user_heap_stack 00001004  2000e9dc  08028d5c  0003e9dc  2**0
                  ALLOC
 11 .ARM.attributes 00000030  00000000  00000000  00030160  2**0
                  CONTENTS, READONLY
 12 .comment      000000c5  00000000  00000000  00030190  2**0
                  CONTENTS, READONLY
 13 .debug_info   000091d4  00000000  00000000  00030255  2**0
                  CONTENTS, READONLY, DEBUGGING, OCTETS
 14 .debug_abbrev 000010ae  00000000  00000000  00039429  2**0
                  CONTENTS, READONLY, DEBUGGING, OCTETS
 15 .debug_loc    000038a2  00000000  00000000  0003a4d7  2**0
                  CONTENTS, READONLY, DEBUGGING, OCTETS
 16 .debug_aranges 00000140  00000000  00000000  0003dd79  2**0
                  CONTENTS, READONLY, DEBUGGING, OCTETS
 17 .debug_ranges 00000198  00000000  00000000  0003deb9  2**0
                  CONTENTS, READONLY, DEBUGGING, OCTETS
 18 .debug_line   000031ba  00000000  00000000  0003e051  2**0
                  CONTENTS, READONLY, DEBUGGING, OCTETS
 19 .debug_str    000011c3  00000000  00000000  0004120b  2**0
                  CONTENTS, READONLY, DEBUGGING, OCTETS
 20 .debug_frame  00000ab4  00000000  00000000  000423d0  2**2
                  CONTENTS, READONLY, DEBUGGING, OCTETS

Disassembly of section .text:

080081a0 <__do_global_dtors_aux>:
 80081a0:	b510      	push	{r4, lr}
 80081a2:	4c05      	ldr	r4, [pc, #20]	; (80081b8 <__do_global_dtors_aux+0x18>)
 80081a4:	7823      	ldrb	r3, [r4, #0]
 80081a6:	b933      	cbnz	r3, 80081b6 <__do_global_dtors_aux+0x16>
 80081a8:	4b04      	ldr	r3, [pc, #16]	; (80081bc <__do_global_dtors_aux+0x1c>)
 80081aa:	b113      	cbz	r3, 80081b2 <__do_global_dtors_aux+0x12>
 80081ac:	4804      	ldr	r0, [pc, #16]	; (80081c0 <__do_global_dtors_aux+0x20>)
 80081ae:	f3af 8000 	nop.w
 80081b2:	2301      	movs	r3, #1
 80081b4:	7023      	strb	r3, [r4, #0]
 80081b6:	bd10      	pop	{r4, pc}
 80081b8:	20000160 	.word	0x20000160
 80081bc:	00000000 	.word	0x00000000
 80081c0:	08015884 	.word	0x08015884

080081c4 <frame_dummy>:
 80081c4:	b508      	push	{r3, lr}
 80081c6:	4b03      	ldr	r3, [pc, #12]	; (80081d4 <frame_dummy+0x10>)
 80081c8:	b11b      	cbz	r3, 80081d2 <frame_dummy+0xe>
 80081ca:	4903      	ldr	r1, [pc, #12]	; (80081d8 <frame_dummy+0x14>)
 80081cc:	4803      	ldr	r0, [pc, #12]	; (80081dc <frame_dummy+0x18>)
 80081ce:	f3af 8000 	nop.w
 80081d2:	bd08      	pop	{r3, pc}
 80081d4:	00000000 	.word	0x00000000
 80081d8:	20000164 	.word	0x20000164
 80081dc:	08015884 	.word	0x08015884

080081e0 <strlen>:
 80081e0:	4603      	mov	r3, r0
 80081e2:	f813 2b01 	ldrb.w	r2, [r3], #1
 80081e6:	2a00      	cmp	r2, #0
 80081e8:	d1fb      	bne.n	80081e2 <strlen+0x2>
 80081ea:	1a18      	subs	r0, r3, r0
 80081ec:	3801      	subs	r0, #1
 80081ee:	4770      	bx	lr

080081f0 <__aeabi_drsub>:
 80081f0:	f081 4100 	eor.w	r1, r1, #2147483648	; 0x80000000
 80081f4:	e002      	b.n	80081fc <__adddf3>
 80081f6:	bf00      	nop

080081f8 <__aeabi_dsub>:
 80081f8:	f083 4300 	eor.w	r3, r3, #2147483648	; 0x80000000

080081fc <__adddf3>:
 80081fc:	b530      	push	{r4, r5, lr}
 80081fe:	ea4f 0441 	mov.w	r4, r1, lsl #1
 8008202:	ea4f 0543 	mov.w	r5, r3, lsl #1
 8008206:	ea94 0f05 	teq	r4, r5
 800820a:	bf08      	it	eq
 800820c:	ea90 0f02 	teqeq	r0, r2
 8008210:	bf1f      	itttt	ne
 8008212:	ea54 0c00 	orrsne.w	ip, r4, r0
 8008216:	ea55 0c02 	orrsne.w	ip, r5, r2
 800821a:	ea7f 5c64 	mvnsne.w	ip, r4, asr #21
 800821e:	ea7f 5c65 	mvnsne.w	ip, r5, asr #21
 8008222:	f000 80e2 	beq.w	80083ea <__adddf3+0x1ee>
 8008226:	ea4f 5454 	mov.w	r4, r4, lsr #21
 800822a:	ebd4 5555 	rsbs	r5, r4, r5, lsr #21
 800822e:	bfb8      	it	lt
 8008230:	426d      	neglt	r5, r5
 8008232:	dd0c      	ble.n	800824e <__adddf3+0x52>
 8008234:	442c      	add	r4, r5
 8008236:	ea80 0202 	eor.w	r2, r0, r2
 800823a:	ea81 0303 	eor.w	r3, r1, r3
 800823e:	ea82 0000 	eor.w	r0, r2, r0
 8008242:	ea83 0101 	eor.w	r1, r3, r1
 8008246:	ea80 0202 	eor.w	r2, r0, r2
 800824a:	ea81 0303 	eor.w	r3, r1, r3
 800824e:	2d36      	cmp	r5, #54	; 0x36
 8008250:	bf88      	it	hi
 8008252:	bd30      	pophi	{r4, r5, pc}
 8008254:	f011 4f00 	tst.w	r1, #2147483648	; 0x80000000
 8008258:	ea4f 3101 	mov.w	r1, r1, lsl #12
 800825c:	f44f 1c80 	mov.w	ip, #1048576	; 0x100000
 8008260:	ea4c 3111 	orr.w	r1, ip, r1, lsr #12
 8008264:	d002      	beq.n	800826c <__adddf3+0x70>
 8008266:	4240      	negs	r0, r0
 8008268:	eb61 0141 	sbc.w	r1, r1, r1, lsl #1
 800826c:	f013 4f00 	tst.w	r3, #2147483648	; 0x80000000
 8008270:	ea4f 3303 	mov.w	r3, r3, lsl #12
 8008274:	ea4c 3313 	orr.w	r3, ip, r3, lsr #12
 8008278:	d002      	beq.n	8008280 <__adddf3+0x84>
 800827a:	4252      	negs	r2, r2
 800827c:	eb63 0343 	sbc.w	r3, r3, r3, lsl #1
 8008280:	ea94 0f05 	teq	r4, r5
 8008284:	f000 80a7 	beq.w	80083d6 <__adddf3+0x1da>
 8008288:	f1a4 0401 	sub.w	r4, r4, #1
 800828c:	f1d5 0e20 	rsbs	lr, r5, #32
 8008290:	db0d      	blt.n	80082ae <__adddf3+0xb2>
 8008292:	fa02 fc0e 	lsl.w	ip, r2, lr
 8008296:	fa22 f205 	lsr.w	r2, r2, r5
 800829a:	1880      	adds	r0, r0, r2
 800829c:	f141 0100 	adc.w	r1, r1, #0
 80082a0:	fa03 f20e 	lsl.w	r2, r3, lr
 80082a4:	1880      	adds	r0, r0, r2
 80082a6:	fa43 f305 	asr.w	r3, r3, r5
 80082aa:	4159      	adcs	r1, r3
 80082ac:	e00e      	b.n	80082cc <__adddf3+0xd0>
 80082ae:	f1a5 0520 	sub.w	r5, r5, #32
 80082b2:	f10e 0e20 	add.w	lr, lr, #32
 80082b6:	2a01      	cmp	r2, #1
 80082b8:	fa03 fc0e 	lsl.w	ip, r3, lr
 80082bc:	bf28      	it	cs
 80082be:	f04c 0c02 	orrcs.w	ip, ip, #2
 80082c2:	fa43 f305 	asr.w	r3, r3, r5
 80082c6:	18c0      	adds	r0, r0, r3
 80082c8:	eb51 71e3 	adcs.w	r1, r1, r3, asr #31
 80082cc:	f001 4500 	and.w	r5, r1, #2147483648	; 0x80000000
 80082d0:	d507      	bpl.n	80082e2 <__adddf3+0xe6>
 80082d2:	f04f 0e00 	mov.w	lr, #0
 80082d6:	f1dc 0c00 	rsbs	ip, ip, #0
 80082da:	eb7e 0000 	sbcs.w	r0, lr, r0
 80082de:	eb6e 0101 	sbc.w	r1, lr, r1
 80082e2:	f5b1 1f80 	cmp.w	r1, #1048576	; 0x100000
 80082e6:	d31b      	bcc.n	8008320 <__adddf3+0x124>
 80082e8:	f5b1 1f00 	cmp.w	r1, #2097152	; 0x200000
 80082ec:	d30c      	bcc.n	8008308 <__adddf3+0x10c>
 80082ee:	0849      	lsrs	r1, r1, #1
 80082f0:	ea5f 0030 	movs.w	r0, r0, rrx
 80082f4:	ea4f 0c3c 	mov.w	ip, ip, rrx
 80082f8:	f104 0401 	add.w	r4, r4, #1
 80082fc:	ea4f 5244 	mov.w	r2, r4, lsl #21
 8008300:	f512 0f80 	cmn.w	r2, #4194304	; 0x400000
 8008304:	f080 809a 	bcs.w	800843c <__adddf3+0x240>
 8008308:	f1bc 4f00 	cmp.w	ip, #2147483648	; 0x80000000
 800830c:	bf08      	it	eq
 800830e:	ea5f 0c50 	movseq.w	ip, r0, lsr #1
 8008312:	f150 0000 	adcs.w	r0, r0, #0
 8008316:	eb41 5104 	adc.w	r1, r1, r4, lsl #20
 800831a:	ea41 0105 	orr.w	r1, r1, r5
 800831e:	bd30      	pop	{r4, r5, pc}
 8008320:	ea5f 0c4c 	movs.w	ip, ip, lsl #1
 8008324:	4140      	adcs	r0, r0
 8008326:	eb41 0101 	adc.w	r1, r1, r1
 800832a:	3c01      	subs	r4, #1
 800832c:	bf28      	it	cs
 800832e:	f5b1 1f80 	cmpcs.w	r1, #1048576	; 0x100000
 8008332:	d2e9      	bcs.n	8008308 <__adddf3+0x10c>
 8008334:	f091 0f00 	teq	r1, #0
 8008338:	bf04      	itt	eq
 800833a:	4601      	moveq	r1, r0
 800833c:	2000      	moveq	r0, #0
 800833e:	fab1 f381 	clz	r3, r1
 8008342:	bf08      	it	eq
 8008344:	3320      	addeq	r3, #32
 8008346:	f1a3 030b 	sub.w	r3, r3, #11
 800834a:	f1b3 0220 	subs.w	r2, r3, #32
 800834e:	da0c      	bge.n	800836a <__adddf3+0x16e>
 8008350:	320c      	adds	r2, #12
 8008352:	dd08      	ble.n	8008366 <__adddf3+0x16a>
 8008354:	f102 0c14 	add.w	ip, r2, #20
 8008358:	f1c2 020c 	rsb	r2, r2, #12
 800835c:	fa01 f00c 	lsl.w	r0, r1, ip
 8008360:	fa21 f102 	lsr.w	r1, r1, r2
 8008364:	e00c      	b.n	8008380 <__adddf3+0x184>
 8008366:	f102 0214 	add.w	r2, r2, #20
 800836a:	bfd8      	it	le
 800836c:	f1c2 0c20 	rsble	ip, r2, #32
 8008370:	fa01 f102 	lsl.w	r1, r1, r2
 8008374:	fa20 fc0c 	lsr.w	ip, r0, ip
 8008378:	bfdc      	itt	le
 800837a:	ea41 010c 	orrle.w	r1, r1, ip
 800837e:	4090      	lslle	r0, r2
 8008380:	1ae4      	subs	r4, r4, r3
 8008382:	bfa2      	ittt	ge
 8008384:	eb01 5104 	addge.w	r1, r1, r4, lsl #20
 8008388:	4329      	orrge	r1, r5
 800838a:	bd30      	popge	{r4, r5, pc}
 800838c:	ea6f 0404 	mvn.w	r4, r4
 8008390:	3c1f      	subs	r4, #31
 8008392:	da1c      	bge.n	80083ce <__adddf3+0x1d2>
 8008394:	340c      	adds	r4, #12
 8008396:	dc0e      	bgt.n	80083b6 <__adddf3+0x1ba>
 8008398:	f104 0414 	add.w	r4, r4, #20
 800839c:	f1c4 0220 	rsb	r2, r4, #32
 80083a0:	fa20 f004 	lsr.w	r0, r0, r4
 80083a4:	fa01 f302 	lsl.w	r3, r1, r2
 80083a8:	ea40 0003 	orr.w	r0, r0, r3
 80083ac:	fa21 f304 	lsr.w	r3, r1, r4
 80083b0:	ea45 0103 	orr.w	r1, r5, r3
 80083b4:	bd30      	pop	{r4, r5, pc}
 80083b6:	f1c4 040c 	rsb	r4, r4, #12
 80083ba:	f1c4 0220 	rsb	r2, r4, #32
 80083be:	fa20 f002 	lsr.w	r0, r0, r2
 80083c2:	fa01 f304 	lsl.w	r3, r1, r4
 80083c6:	ea40 0003 	orr.w	r0, r0, r3
 80083ca:	4629      	mov	r1, r5
 80083cc:	bd30      	pop	{r4, r5, pc}
 80083ce:	fa21 f004 	lsr.w	r0, r1, r4
 80083d2:	4629      	mov	r1, r5
 80083d4:	bd30      	pop	{r4, r5, pc}
 80083d6:	f094 0f00 	teq	r4, #0
 80083da:	f483 1380 	eor.w	r3, r3, #1048576	; 0x100000
 80083de:	bf06      	itte	eq
 80083e0:	f481 1180 	eoreq.w	r1, r1, #1048576	; 0x100000
 80083e4:	3401      	addeq	r4, #1
 80083e6:	3d01      	subne	r5, #1
 80083e8:	e74e      	b.n	8008288 <__adddf3+0x8c>
 80083ea:	ea7f 5c64 	mvns.w	ip, r4, asr #21
 80083ee:	bf18      	it	ne
 80083f0:	ea7f 5c65 	mvnsne.w	ip, r5, asr #21
 80083f4:	d029      	beq.n	800844a <__adddf3+0x24e>
 80083f6:	ea94 0f05 	teq	r4, r5
 80083fa:	bf08      	it	eq
 80083fc:	ea90 0f02 	teqeq	r0, r2
 8008400:	d005      	beq.n	800840e <__adddf3+0x212>
 8008402:	ea54 0c00 	orrs.w	ip, r4, r0
 8008406:	bf04      	itt	eq
 8008408:	4619      	moveq	r1, r3
 800840a:	4610      	moveq	r0, r2
 800840c:	bd30      	pop	{r4, r5, pc}
 800840e:	ea91 0f03 	teq	r1, r3
 8008412:	bf1e      	ittt	ne
 8008414:	2100      	movne	r1, #0
 8008416:	2000      	movne	r0, #0
 8008418:	bd30      	popne	{r4, r5, pc}
 800841a:	ea5f 5c54 	movs.w	ip, r4, lsr #21
 800841e:	d105      	bne.n	800842c <__adddf3+0x230>
 8008420:	0040      	lsls	r0, r0, #1
 8008422:	4149      	adcs	r1, r1
 8008424:	bf28      	it	cs
 8008426:	f041 4100 	orrcs.w	r1, r1, #2147483648	; 0x80000000
 800842a:	bd30      	pop	{r4, r5, pc}
 800842c:	f514 0480 	adds.w	r4, r4, #4194304	; 0x400000
 8008430:	bf3c      	itt	cc
 8008432:	f501 1180 	addcc.w	r1, r1, #1048576	; 0x100000
 8008436:	bd30      	popcc	{r4, r5, pc}
 8008438:	f001 4500 	and.w	r5, r1, #2147483648	; 0x80000000
 800843c:	f045 41fe 	orr.w	r1, r5, #2130706432	; 0x7f000000
 8008440:	f441 0170 	orr.w	r1, r1, #15728640	; 0xf00000
 8008444:	f04f 0000 	mov.w	r0, #0
 8008448:	bd30      	pop	{r4, r5, pc}
 800844a:	ea7f 5c64 	mvns.w	ip, r4, asr #21
 800844e:	bf1a      	itte	ne
 8008450:	4619      	movne	r1, r3
 8008452:	4610      	movne	r0, r2
 8008454:	ea7f 5c65 	mvnseq.w	ip, r5, asr #21
 8008458:	bf1c      	itt	ne
 800845a:	460b      	movne	r3, r1
 800845c:	4602      	movne	r2, r0
 800845e:	ea50 3401 	orrs.w	r4, r0, r1, lsl #12
 8008462:	bf06      	itte	eq
 8008464:	ea52 3503 	orrseq.w	r5, r2, r3, lsl #12
 8008468:	ea91 0f03 	teqeq	r1, r3
 800846c:	f441 2100 	orrne.w	r1, r1, #524288	; 0x80000
 8008470:	bd30      	pop	{r4, r5, pc}
 8008472:	bf00      	nop

08008474 <__aeabi_ui2d>:
 8008474:	f090 0f00 	teq	r0, #0
 8008478:	bf04      	itt	eq
 800847a:	2100      	moveq	r1, #0
 800847c:	4770      	bxeq	lr
 800847e:	b530      	push	{r4, r5, lr}
 8008480:	f44f 6480 	mov.w	r4, #1024	; 0x400
 8008484:	f104 0432 	add.w	r4, r4, #50	; 0x32
 8008488:	f04f 0500 	mov.w	r5, #0
 800848c:	f04f 0100 	mov.w	r1, #0
 8008490:	e750      	b.n	8008334 <__adddf3+0x138>
 8008492:	bf00      	nop

08008494 <__aeabi_i2d>:
 8008494:	f090 0f00 	teq	r0, #0
 8008498:	bf04      	itt	eq
 800849a:	2100      	moveq	r1, #0
 800849c:	4770      	bxeq	lr
 800849e:	b530      	push	{r4, r5, lr}
 80084a0:	f44f 6480 	mov.w	r4, #1024	; 0x400
 80084a4:	f104 0432 	add.w	r4, r4, #50	; 0x32
 80084a8:	f010 4500 	ands.w	r5, r0, #2147483648	; 0x80000000
 80084ac:	bf48      	it	mi
 80084ae:	4240      	negmi	r0, r0
 80084b0:	f04f 0100 	mov.w	r1, #0
 80084b4:	e73e      	b.n	8008334 <__adddf3+0x138>
 80084b6:	bf00      	nop

080084b8 <__aeabi_f2d>:
 80084b8:	0042      	lsls	r2, r0, #1
 80084ba:	ea4f 01e2 	mov.w	r1, r2, asr #3
 80084be:	ea4f 0131 	mov.w	r1, r1, rrx
 80084c2:	ea4f 7002 	mov.w	r0, r2, lsl #28
 80084c6:	bf1f      	itttt	ne
 80084c8:	f012 437f 	andsne.w	r3, r2, #4278190080	; 0xff000000
 80084cc:	f093 4f7f 	teqne	r3, #4278190080	; 0xff000000
 80084d0:	f081 5160 	eorne.w	r1, r1, #939524096	; 0x38000000
 80084d4:	4770      	bxne	lr
 80084d6:	f032 427f 	bics.w	r2, r2, #4278190080	; 0xff000000
 80084da:	bf08      	it	eq
 80084dc:	4770      	bxeq	lr
 80084de:	f093 4f7f 	teq	r3, #4278190080	; 0xff000000
 80084e2:	bf04      	itt	eq
 80084e4:	f441 2100 	orreq.w	r1, r1, #524288	; 0x80000
 80084e8:	4770      	bxeq	lr
 80084ea:	b530      	push	{r4, r5, lr}
 80084ec:	f44f 7460 	mov.w	r4, #896	; 0x380
 80084f0:	f001 4500 	and.w	r5, r1, #2147483648	; 0x80000000
 80084f4:	f021 4100 	bic.w	r1, r1, #2147483648	; 0x80000000
 80084f8:	e71c      	b.n	8008334 <__adddf3+0x138>
 80084fa:	bf00      	nop

080084fc <__aeabi_ul2d>:
 80084fc:	ea50 0201 	orrs.w	r2, r0, r1
 8008500:	bf08      	it	eq
 8008502:	4770      	bxeq	lr
 8008504:	b530      	push	{r4, r5, lr}
 8008506:	f04f 0500 	mov.w	r5, #0
 800850a:	e00a      	b.n	8008522 <__aeabi_l2d+0x16>

0800850c <__aeabi_l2d>:
 800850c:	ea50 0201 	orrs.w	r2, r0, r1
 8008510:	bf08      	it	eq
 8008512:	4770      	bxeq	lr
 8008514:	b530      	push	{r4, r5, lr}
 8008516:	f011 4500 	ands.w	r5, r1, #2147483648	; 0x80000000
 800851a:	d502      	bpl.n	8008522 <__aeabi_l2d+0x16>
 800851c:	4240      	negs	r0, r0
 800851e:	eb61 0141 	sbc.w	r1, r1, r1, lsl #1
 8008522:	f44f 6480 	mov.w	r4, #1024	; 0x400
 8008526:	f104 0432 	add.w	r4, r4, #50	; 0x32
 800852a:	ea5f 5c91 	movs.w	ip, r1, lsr #22
 800852e:	f43f aed8 	beq.w	80082e2 <__adddf3+0xe6>
 8008532:	f04f 0203 	mov.w	r2, #3
 8008536:	ea5f 0cdc 	movs.w	ip, ip, lsr #3
 800853a:	bf18      	it	ne
 800853c:	3203      	addne	r2, #3
 800853e:	ea5f 0cdc 	movs.w	ip, ip, lsr #3
 8008542:	bf18      	it	ne
 8008544:	3203      	addne	r2, #3
 8008546:	eb02 02dc 	add.w	r2, r2, ip, lsr #3
 800854a:	f1c2 0320 	rsb	r3, r2, #32
 800854e:	fa00 fc03 	lsl.w	ip, r0, r3
 8008552:	fa20 f002 	lsr.w	r0, r0, r2
 8008556:	fa01 fe03 	lsl.w	lr, r1, r3
 800855a:	ea40 000e 	orr.w	r0, r0, lr
 800855e:	fa21 f102 	lsr.w	r1, r1, r2
 8008562:	4414      	add	r4, r2
 8008564:	e6bd      	b.n	80082e2 <__adddf3+0xe6>
 8008566:	bf00      	nop

08008568 <__aeabi_dmul>:
 8008568:	b570      	push	{r4, r5, r6, lr}
 800856a:	f04f 0cff 	mov.w	ip, #255	; 0xff
 800856e:	f44c 6ce0 	orr.w	ip, ip, #1792	; 0x700
 8008572:	ea1c 5411 	ands.w	r4, ip, r1, lsr #20
 8008576:	bf1d      	ittte	ne
 8008578:	ea1c 5513 	andsne.w	r5, ip, r3, lsr #20
 800857c:	ea94 0f0c 	teqne	r4, ip
 8008580:	ea95 0f0c 	teqne	r5, ip
 8008584:	f000 f8de 	bleq	8008744 <__aeabi_dmul+0x1dc>
 8008588:	442c      	add	r4, r5
 800858a:	ea81 0603 	eor.w	r6, r1, r3
 800858e:	ea21 514c 	bic.w	r1, r1, ip, lsl #21
 8008592:	ea23 534c 	bic.w	r3, r3, ip, lsl #21
 8008596:	ea50 3501 	orrs.w	r5, r0, r1, lsl #12
 800859a:	bf18      	it	ne
 800859c:	ea52 3503 	orrsne.w	r5, r2, r3, lsl #12
 80085a0:	f441 1180 	orr.w	r1, r1, #1048576	; 0x100000
 80085a4:	f443 1380 	orr.w	r3, r3, #1048576	; 0x100000
 80085a8:	d038      	beq.n	800861c <__aeabi_dmul+0xb4>
 80085aa:	fba0 ce02 	umull	ip, lr, r0, r2
 80085ae:	f04f 0500 	mov.w	r5, #0
 80085b2:	fbe1 e502 	umlal	lr, r5, r1, r2
 80085b6:	f006 4200 	and.w	r2, r6, #2147483648	; 0x80000000
 80085ba:	fbe0 e503 	umlal	lr, r5, r0, r3
 80085be:	f04f 0600 	mov.w	r6, #0
 80085c2:	fbe1 5603 	umlal	r5, r6, r1, r3
 80085c6:	f09c 0f00 	teq	ip, #0
 80085ca:	bf18      	it	ne
 80085cc:	f04e 0e01 	orrne.w	lr, lr, #1
 80085d0:	f1a4 04ff 	sub.w	r4, r4, #255	; 0xff
 80085d4:	f5b6 7f00 	cmp.w	r6, #512	; 0x200
 80085d8:	f564 7440 	sbc.w	r4, r4, #768	; 0x300
 80085dc:	d204      	bcs.n	80085e8 <__aeabi_dmul+0x80>
 80085de:	ea5f 0e4e 	movs.w	lr, lr, lsl #1
 80085e2:	416d      	adcs	r5, r5
 80085e4:	eb46 0606 	adc.w	r6, r6, r6
 80085e8:	ea42 21c6 	orr.w	r1, r2, r6, lsl #11
 80085ec:	ea41 5155 	orr.w	r1, r1, r5, lsr #21
 80085f0:	ea4f 20c5 	mov.w	r0, r5, lsl #11
 80085f4:	ea40 505e 	orr.w	r0, r0, lr, lsr #21
 80085f8:	ea4f 2ece 	mov.w	lr, lr, lsl #11
 80085fc:	f1b4 0cfd 	subs.w	ip, r4, #253	; 0xfd
 8008600:	bf88      	it	hi
 8008602:	f5bc 6fe0 	cmphi.w	ip, #1792	; 0x700
 8008606:	d81e      	bhi.n	8008646 <__aeabi_dmul+0xde>
 8008608:	f1be 4f00 	cmp.w	lr, #2147483648	; 0x80000000
 800860c:	bf08      	it	eq
 800860e:	ea5f 0e50 	movseq.w	lr, r0, lsr #1
 8008612:	f150 0000 	adcs.w	r0, r0, #0
 8008616:	eb41 5104 	adc.w	r1, r1, r4, lsl #20
 800861a:	bd70      	pop	{r4, r5, r6, pc}
 800861c:	f006 4600 	and.w	r6, r6, #2147483648	; 0x80000000
 8008620:	ea46 0101 	orr.w	r1, r6, r1
 8008624:	ea40 0002 	orr.w	r0, r0, r2
 8008628:	ea81 0103 	eor.w	r1, r1, r3
 800862c:	ebb4 045c 	subs.w	r4, r4, ip, lsr #1
 8008630:	bfc2      	ittt	gt
 8008632:	ebd4 050c 	rsbsgt	r5, r4, ip
 8008636:	ea41 5104 	orrgt.w	r1, r1, r4, lsl #20
 800863a:	bd70      	popgt	{r4, r5, r6, pc}
 800863c:	f441 1180 	orr.w	r1, r1, #1048576	; 0x100000
 8008640:	f04f 0e00 	mov.w	lr, #0
 8008644:	3c01      	subs	r4, #1
 8008646:	f300 80ab 	bgt.w	80087a0 <__aeabi_dmul+0x238>
 800864a:	f114 0f36 	cmn.w	r4, #54	; 0x36
 800864e:	bfde      	ittt	le
 8008650:	2000      	movle	r0, #0
 8008652:	f001 4100 	andle.w	r1, r1, #2147483648	; 0x80000000
 8008656:	bd70      	pople	{r4, r5, r6, pc}
 8008658:	f1c4 0400 	rsb	r4, r4, #0
 800865c:	3c20      	subs	r4, #32
 800865e:	da35      	bge.n	80086cc <__aeabi_dmul+0x164>
 8008660:	340c      	adds	r4, #12
 8008662:	dc1b      	bgt.n	800869c <__aeabi_dmul+0x134>
 8008664:	f104 0414 	add.w	r4, r4, #20
 8008668:	f1c4 0520 	rsb	r5, r4, #32
 800866c:	fa00 f305 	lsl.w	r3, r0, r5
 8008670:	fa20 f004 	lsr.w	r0, r0, r4
 8008674:	fa01 f205 	lsl.w	r2, r1, r5
 8008678:	ea40 0002 	orr.w	r0, r0, r2
 800867c:	f001 4200 	and.w	r2, r1, #2147483648	; 0x80000000
 8008680:	f021 4100 	bic.w	r1, r1, #2147483648	; 0x80000000
 8008684:	eb10 70d3 	adds.w	r0, r0, r3, lsr #31
 8008688:	fa21 f604 	lsr.w	r6, r1, r4
 800868c:	eb42 0106 	adc.w	r1, r2, r6
 8008690:	ea5e 0e43 	orrs.w	lr, lr, r3, lsl #1
 8008694:	bf08      	it	eq
 8008696:	ea20 70d3 	biceq.w	r0, r0, r3, lsr #31
 800869a:	bd70      	pop	{r4, r5, r6, pc}
 800869c:	f1c4 040c 	rsb	r4, r4, #12
 80086a0:	f1c4 0520 	rsb	r5, r4, #32
 80086a4:	fa00 f304 	lsl.w	r3, r0, r4
 80086a8:	fa20 f005 	lsr.w	r0, r0, r5
 80086ac:	fa01 f204 	lsl.w	r2, r1, r4
 80086b0:	ea40 0002 	orr.w	r0, r0, r2
 80086b4:	f001 4100 	and.w	r1, r1, #2147483648	; 0x80000000
 80086b8:	eb10 70d3 	adds.w	r0, r0, r3, lsr #31
 80086bc:	f141 0100 	adc.w	r1, r1, #0
 80086c0:	ea5e 0e43 	orrs.w	lr, lr, r3, lsl #1
 80086c4:	bf08      	it	eq
 80086c6:	ea20 70d3 	biceq.w	r0, r0, r3, lsr #31
 80086ca:	bd70      	pop	{r4, r5, r6, pc}
 80086cc:	f1c4 0520 	rsb	r5, r4, #32
 80086d0:	fa00 f205 	lsl.w	r2, r0, r5
 80086d4:	ea4e 0e02 	orr.w	lr, lr, r2
 80086d8:	fa20 f304 	lsr.w	r3, r0, r4
 80086dc:	fa01 f205 	lsl.w	r2, r1, r5
 80086e0:	ea43 0302 	orr.w	r3, r3, r2
 80086e4:	fa21 f004 	lsr.w	r0, r1, r4
 80086e8:	f001 4100 	and.w	r1, r1, #2147483648	; 0x80000000
 80086ec:	fa21 f204 	lsr.w	r2, r1, r4
 80086f0:	ea20 0002 	bic.w	r0, r0, r2
 80086f4:	eb00 70d3 	add.w	r0, r0, r3, lsr #31
 80086f8:	ea5e 0e43 	orrs.w	lr, lr, r3, lsl #1
 80086fc:	bf08      	it	eq
 80086fe:	ea20 70d3 	biceq.w	r0, r0, r3, lsr #31
 8008702:	bd70      	pop	{r4, r5, r6, pc}
 8008704:	f094 0f00 	teq	r4, #0
 8008708:	d10f      	bne.n	800872a <__aeabi_dmul+0x1c2>
 800870a:	f001 4600 	and.w	r6, r1, #2147483648	; 0x80000000
 800870e:	0040      	lsls	r0, r0, #1
 8008710:	eb41 0101 	adc.w	r1, r1, r1
 8008714:	f411 1f80 	tst.w	r1, #1048576	; 0x100000
 8008718:	bf08      	it	eq
 800871a:	3c01      	subeq	r4, #1
 800871c:	d0f7      	beq.n	800870e <__aeabi_dmul+0x1a6>
 800871e:	ea41 0106 	orr.w	r1, r1, r6
 8008722:	f095 0f00 	teq	r5, #0
 8008726:	bf18      	it	ne
 8008728:	4770      	bxne	lr
 800872a:	f003 4600 	and.w	r6, r3, #2147483648	; 0x80000000
 800872e:	0052      	lsls	r2, r2, #1
 8008730:	eb43 0303 	adc.w	r3, r3, r3
 8008734:	f413 1f80 	tst.w	r3, #1048576	; 0x100000
 8008738:	bf08      	it	eq
 800873a:	3d01      	subeq	r5, #1
 800873c:	d0f7      	beq.n	800872e <__aeabi_dmul+0x1c6>
 800873e:	ea43 0306 	orr.w	r3, r3, r6
 8008742:	4770      	bx	lr
 8008744:	ea94 0f0c 	teq	r4, ip
 8008748:	ea0c 5513 	and.w	r5, ip, r3, lsr #20
 800874c:	bf18      	it	ne
 800874e:	ea95 0f0c 	teqne	r5, ip
 8008752:	d00c      	beq.n	800876e <__aeabi_dmul+0x206>
 8008754:	ea50 0641 	orrs.w	r6, r0, r1, lsl #1
 8008758:	bf18      	it	ne
 800875a:	ea52 0643 	orrsne.w	r6, r2, r3, lsl #1
 800875e:	d1d1      	bne.n	8008704 <__aeabi_dmul+0x19c>
 8008760:	ea81 0103 	eor.w	r1, r1, r3
 8008764:	f001 4100 	and.w	r1, r1, #2147483648	; 0x80000000
 8008768:	f04f 0000 	mov.w	r0, #0
 800876c:	bd70      	pop	{r4, r5, r6, pc}
 800876e:	ea50 0641 	orrs.w	r6, r0, r1, lsl #1
 8008772:	bf06      	itte	eq
 8008774:	4610      	moveq	r0, r2
 8008776:	4619      	moveq	r1, r3
 8008778:	ea52 0643 	orrsne.w	r6, r2, r3, lsl #1
 800877c:	d019      	beq.n	80087b2 <__aeabi_dmul+0x24a>
 800877e:	ea94 0f0c 	teq	r4, ip
 8008782:	d102      	bne.n	800878a <__aeabi_dmul+0x222>
 8008784:	ea50 3601 	orrs.w	r6, r0, r1, lsl #12
 8008788:	d113      	bne.n	80087b2 <__aeabi_dmul+0x24a>
 800878a:	ea95 0f0c 	teq	r5, ip
 800878e:	d105      	bne.n	800879c <__aeabi_dmul+0x234>
 8008790:	ea52 3603 	orrs.w	r6, r2, r3, lsl #12
 8008794:	bf1c      	itt	ne
 8008796:	4610      	movne	r0, r2
 8008798:	4619      	movne	r1, r3
 800879a:	d10a      	bne.n	80087b2 <__aeabi_dmul+0x24a>
 800879c:	ea81 0103 	eor.w	r1, r1, r3
 80087a0:	f001 4100 	and.w	r1, r1, #2147483648	; 0x80000000
 80087a4:	f041 41fe 	orr.w	r1, r1, #2130706432	; 0x7f000000
 80087a8:	f441 0170 	orr.w	r1, r1, #15728640	; 0xf00000
 80087ac:	f04f 0000 	mov.w	r0, #0
 80087b0:	bd70      	pop	{r4, r5, r6, pc}
 80087b2:	f041 41fe 	orr.w	r1, r1, #2130706432	; 0x7f000000
 80087b6:	f441 0178 	orr.w	r1, r1, #16252928	; 0xf80000
 80087ba:	bd70      	pop	{r4, r5, r6, pc}

080087bc <__aeabi_ddiv>:
 80087bc:	b570      	push	{r4, r5, r6, lr}
 80087be:	f04f 0cff 	mov.w	ip, #255	; 0xff
 80087c2:	f44c 6ce0 	orr.w	ip, ip, #1792	; 0x700
 80087c6:	ea1c 5411 	ands.w	r4, ip, r1, lsr #20
 80087ca:	bf1d      	ittte	ne
 80087cc:	ea1c 5513 	andsne.w	r5, ip, r3, lsr #20
 80087d0:	ea94 0f0c 	teqne	r4, ip
 80087d4:	ea95 0f0c 	teqne	r5, ip
 80087d8:	f000 f8a7 	bleq	800892a <__aeabi_ddiv+0x16e>
 80087dc:	eba4 0405 	sub.w	r4, r4, r5
 80087e0:	ea81 0e03 	eor.w	lr, r1, r3
 80087e4:	ea52 3503 	orrs.w	r5, r2, r3, lsl #12
 80087e8:	ea4f 3101 	mov.w	r1, r1, lsl #12
 80087ec:	f000 8088 	beq.w	8008900 <__aeabi_ddiv+0x144>
 80087f0:	ea4f 3303 	mov.w	r3, r3, lsl #12
 80087f4:	f04f 5580 	mov.w	r5, #268435456	; 0x10000000
 80087f8:	ea45 1313 	orr.w	r3, r5, r3, lsr #4
 80087fc:	ea43 6312 	orr.w	r3, r3, r2, lsr #24
 8008800:	ea4f 2202 	mov.w	r2, r2, lsl #8
 8008804:	ea45 1511 	orr.w	r5, r5, r1, lsr #4
 8008808:	ea45 6510 	orr.w	r5, r5, r0, lsr #24
 800880c:	ea4f 2600 	mov.w	r6, r0, lsl #8
 8008810:	f00e 4100 	and.w	r1, lr, #2147483648	; 0x80000000
 8008814:	429d      	cmp	r5, r3
 8008816:	bf08      	it	eq
 8008818:	4296      	cmpeq	r6, r2
 800881a:	f144 04fd 	adc.w	r4, r4, #253	; 0xfd
 800881e:	f504 7440 	add.w	r4, r4, #768	; 0x300
 8008822:	d202      	bcs.n	800882a <__aeabi_ddiv+0x6e>
 8008824:	085b      	lsrs	r3, r3, #1
 8008826:	ea4f 0232 	mov.w	r2, r2, rrx
 800882a:	1ab6      	subs	r6, r6, r2
 800882c:	eb65 0503 	sbc.w	r5, r5, r3
 8008830:	085b      	lsrs	r3, r3, #1
 8008832:	ea4f 0232 	mov.w	r2, r2, rrx
 8008836:	f44f 1080 	mov.w	r0, #1048576	; 0x100000
 800883a:	f44f 2c00 	mov.w	ip, #524288	; 0x80000
 800883e:	ebb6 0e02 	subs.w	lr, r6, r2
 8008842:	eb75 0e03 	sbcs.w	lr, r5, r3
 8008846:	bf22      	ittt	cs
 8008848:	1ab6      	subcs	r6, r6, r2
 800884a:	4675      	movcs	r5, lr
 800884c:	ea40 000c 	orrcs.w	r0, r0, ip
 8008850:	085b      	lsrs	r3, r3, #1
 8008852:	ea4f 0232 	mov.w	r2, r2, rrx
 8008856:	ebb6 0e02 	subs.w	lr, r6, r2
 800885a:	eb75 0e03 	sbcs.w	lr, r5, r3
 800885e:	bf22      	ittt	cs
 8008860:	1ab6      	subcs	r6, r6, r2
 8008862:	4675      	movcs	r5, lr
 8008864:	ea40 005c 	orrcs.w	r0, r0, ip, lsr #1
 8008868:	085b      	lsrs	r3, r3, #1
 800886a:	ea4f 0232 	mov.w	r2, r2, rrx
 800886e:	ebb6 0e02 	subs.w	lr, r6, r2
 8008872:	eb75 0e03 	sbcs.w	lr, r5, r3
 8008876:	bf22      	ittt	cs
 8008878:	1ab6      	subcs	r6, r6, r2
 800887a:	4675      	movcs	r5, lr
 800887c:	ea40 009c 	orrcs.w	r0, r0, ip, lsr #2
 8008880:	085b      	lsrs	r3, r3, #1
 8008882:	ea4f 0232 	mov.w	r2, r2, rrx
 8008886:	ebb6 0e02 	subs.w	lr, r6, r2
 800888a:	eb75 0e03 	sbcs.w	lr, r5, r3
 800888e:	bf22      	ittt	cs
 8008890:	1ab6      	subcs	r6, r6, r2
 8008892:	4675      	movcs	r5, lr
 8008894:	ea40 00dc 	orrcs.w	r0, r0, ip, lsr #3
 8008898:	ea55 0e06 	orrs.w	lr, r5, r6
 800889c:	d018      	beq.n	80088d0 <__aeabi_ddiv+0x114>
 800889e:	ea4f 1505 	mov.w	r5, r5, lsl #4
 80088a2:	ea45 7516 	orr.w	r5, r5, r6, lsr #28
 80088a6:	ea4f 1606 	mov.w	r6, r6, lsl #4
 80088aa:	ea4f 03c3 	mov.w	r3, r3, lsl #3
 80088ae:	ea43 7352 	orr.w	r3, r3, r2, lsr #29
 80088b2:	ea4f 02c2 	mov.w	r2, r2, lsl #3
 80088b6:	ea5f 1c1c 	movs.w	ip, ip, lsr #4
 80088ba:	d1c0      	bne.n	800883e <__aeabi_ddiv+0x82>
 80088bc:	f411 1f80 	tst.w	r1, #1048576	; 0x100000
 80088c0:	d10b      	bne.n	80088da <__aeabi_ddiv+0x11e>
 80088c2:	ea41 0100 	orr.w	r1, r1, r0
 80088c6:	f04f 0000 	mov.w	r0, #0
 80088ca:	f04f 4c00 	mov.w	ip, #2147483648	; 0x80000000
 80088ce:	e7b6      	b.n	800883e <__aeabi_ddiv+0x82>
 80088d0:	f411 1f80 	tst.w	r1, #1048576	; 0x100000
 80088d4:	bf04      	itt	eq
 80088d6:	4301      	orreq	r1, r0
 80088d8:	2000      	moveq	r0, #0
 80088da:	f1b4 0cfd 	subs.w	ip, r4, #253	; 0xfd
 80088de:	bf88      	it	hi
 80088e0:	f5bc 6fe0 	cmphi.w	ip, #1792	; 0x700
 80088e4:	f63f aeaf 	bhi.w	8008646 <__aeabi_dmul+0xde>
 80088e8:	ebb5 0c03 	subs.w	ip, r5, r3
 80088ec:	bf04      	itt	eq
 80088ee:	ebb6 0c02 	subseq.w	ip, r6, r2
 80088f2:	ea5f 0c50 	movseq.w	ip, r0, lsr #1
 80088f6:	f150 0000 	adcs.w	r0, r0, #0
 80088fa:	eb41 5104 	adc.w	r1, r1, r4, lsl #20
 80088fe:	bd70      	pop	{r4, r5, r6, pc}
 8008900:	f00e 4e00 	and.w	lr, lr, #2147483648	; 0x80000000
 8008904:	ea4e 3111 	orr.w	r1, lr, r1, lsr #12
 8008908:	eb14 045c 	adds.w	r4, r4, ip, lsr #1
 800890c:	bfc2      	ittt	gt
 800890e:	ebd4 050c 	rsbsgt	r5, r4, ip
 8008912:	ea41 5104 	orrgt.w	r1, r1, r4, lsl #20
 8008916:	bd70      	popgt	{r4, r5, r6, pc}
 8008918:	f441 1180 	orr.w	r1, r1, #1048576	; 0x100000
 800891c:	f04f 0e00 	mov.w	lr, #0
 8008920:	3c01      	subs	r4, #1
 8008922:	e690      	b.n	8008646 <__aeabi_dmul+0xde>
 8008924:	ea45 0e06 	orr.w	lr, r5, r6
 8008928:	e68d      	b.n	8008646 <__aeabi_dmul+0xde>
 800892a:	ea0c 5513 	and.w	r5, ip, r3, lsr #20
 800892e:	ea94 0f0c 	teq	r4, ip
 8008932:	bf08      	it	eq
 8008934:	ea95 0f0c 	teqeq	r5, ip
 8008938:	f43f af3b 	beq.w	80087b2 <__aeabi_dmul+0x24a>
 800893c:	ea94 0f0c 	teq	r4, ip
 8008940:	d10a      	bne.n	8008958 <__aeabi_ddiv+0x19c>
 8008942:	ea50 3401 	orrs.w	r4, r0, r1, lsl #12
 8008946:	f47f af34 	bne.w	80087b2 <__aeabi_dmul+0x24a>
 800894a:	ea95 0f0c 	teq	r5, ip
 800894e:	f47f af25 	bne.w	800879c <__aeabi_dmul+0x234>
 8008952:	4610      	mov	r0, r2
 8008954:	4619      	mov	r1, r3
 8008956:	e72c      	b.n	80087b2 <__aeabi_dmul+0x24a>
 8008958:	ea95 0f0c 	teq	r5, ip
 800895c:	d106      	bne.n	800896c <__aeabi_ddiv+0x1b0>
 800895e:	ea52 3503 	orrs.w	r5, r2, r3, lsl #12
 8008962:	f43f aefd 	beq.w	8008760 <__aeabi_dmul+0x1f8>
 8008966:	4610      	mov	r0, r2
 8008968:	4619      	mov	r1, r3
 800896a:	e722      	b.n	80087b2 <__aeabi_dmul+0x24a>
 800896c:	ea50 0641 	orrs.w	r6, r0, r1, lsl #1
 8008970:	bf18      	it	ne
 8008972:	ea52 0643 	orrsne.w	r6, r2, r3, lsl #1
 8008976:	f47f aec5 	bne.w	8008704 <__aeabi_dmul+0x19c>
 800897a:	ea50 0441 	orrs.w	r4, r0, r1, lsl #1
 800897e:	f47f af0d 	bne.w	800879c <__aeabi_dmul+0x234>
 8008982:	ea52 0543 	orrs.w	r5, r2, r3, lsl #1
 8008986:	f47f aeeb 	bne.w	8008760 <__aeabi_dmul+0x1f8>
 800898a:	e712      	b.n	80087b2 <__aeabi_dmul+0x24a>

0800898c <__gedf2>:
 800898c:	f04f 3cff 	mov.w	ip, #4294967295
 8008990:	e006      	b.n	80089a0 <__cmpdf2+0x4>
 8008992:	bf00      	nop

08008994 <__ledf2>:
 8008994:	f04f 0c01 	mov.w	ip, #1
 8008998:	e002      	b.n	80089a0 <__cmpdf2+0x4>
 800899a:	bf00      	nop

0800899c <__cmpdf2>:
 800899c:	f04f 0c01 	mov.w	ip, #1
 80089a0:	f84d cd04 	str.w	ip, [sp, #-4]!
 80089a4:	ea4f 0c41 	mov.w	ip, r1, lsl #1
 80089a8:	ea7f 5c6c 	mvns.w	ip, ip, asr #21
 80089ac:	ea4f 0c43 	mov.w	ip, r3, lsl #1
 80089b0:	bf18      	it	ne
 80089b2:	ea7f 5c6c 	mvnsne.w	ip, ip, asr #21
 80089b6:	d01b      	beq.n	80089f0 <__cmpdf2+0x54>
 80089b8:	b001      	add	sp, #4
 80089ba:	ea50 0c41 	orrs.w	ip, r0, r1, lsl #1
 80089be:	bf0c      	ite	eq
 80089c0:	ea52 0c43 	orrseq.w	ip, r2, r3, lsl #1
 80089c4:	ea91 0f03 	teqne	r1, r3
 80089c8:	bf02      	ittt	eq
 80089ca:	ea90 0f02 	teqeq	r0, r2
 80089ce:	2000      	moveq	r0, #0
 80089d0:	4770      	bxeq	lr
 80089d2:	f110 0f00 	cmn.w	r0, #0
 80089d6:	ea91 0f03 	teq	r1, r3
 80089da:	bf58      	it	pl
 80089dc:	4299      	cmppl	r1, r3
 80089de:	bf08      	it	eq
 80089e0:	4290      	cmpeq	r0, r2
 80089e2:	bf2c      	ite	cs
 80089e4:	17d8      	asrcs	r0, r3, #31
 80089e6:	ea6f 70e3 	mvncc.w	r0, r3, asr #31
 80089ea:	f040 0001 	orr.w	r0, r0, #1
 80089ee:	4770      	bx	lr
 80089f0:	ea4f 0c41 	mov.w	ip, r1, lsl #1
 80089f4:	ea7f 5c6c 	mvns.w	ip, ip, asr #21
 80089f8:	d102      	bne.n	8008a00 <__cmpdf2+0x64>
 80089fa:	ea50 3c01 	orrs.w	ip, r0, r1, lsl #12
 80089fe:	d107      	bne.n	8008a10 <__cmpdf2+0x74>
 8008a00:	ea4f 0c43 	mov.w	ip, r3, lsl #1
 8008a04:	ea7f 5c6c 	mvns.w	ip, ip, asr #21
 8008a08:	d1d6      	bne.n	80089b8 <__cmpdf2+0x1c>
 8008a0a:	ea52 3c03 	orrs.w	ip, r2, r3, lsl #12
 8008a0e:	d0d3      	beq.n	80089b8 <__cmpdf2+0x1c>
 8008a10:	f85d 0b04 	ldr.w	r0, [sp], #4
 8008a14:	4770      	bx	lr
 8008a16:	bf00      	nop

08008a18 <__aeabi_cdrcmple>:
 8008a18:	4684      	mov	ip, r0
 8008a1a:	4610      	mov	r0, r2
 8008a1c:	4662      	mov	r2, ip
 8008a1e:	468c      	mov	ip, r1
 8008a20:	4619      	mov	r1, r3
 8008a22:	4663      	mov	r3, ip
 8008a24:	e000      	b.n	8008a28 <__aeabi_cdcmpeq>
 8008a26:	bf00      	nop

08008a28 <__aeabi_cdcmpeq>:
 8008a28:	b501      	push	{r0, lr}
 8008a2a:	f7ff ffb7 	bl	800899c <__cmpdf2>
 8008a2e:	2800      	cmp	r0, #0
 8008a30:	bf48      	it	mi
 8008a32:	f110 0f00 	cmnmi.w	r0, #0
 8008a36:	bd01      	pop	{r0, pc}

08008a38 <__aeabi_dcmpeq>:
 8008a38:	f84d ed08 	str.w	lr, [sp, #-8]!
 8008a3c:	f7ff fff4 	bl	8008a28 <__aeabi_cdcmpeq>
 8008a40:	bf0c      	ite	eq
 8008a42:	2001      	moveq	r0, #1
 8008a44:	2000      	movne	r0, #0
 8008a46:	f85d fb08 	ldr.w	pc, [sp], #8
 8008a4a:	bf00      	nop

08008a4c <__aeabi_dcmplt>:
 8008a4c:	f84d ed08 	str.w	lr, [sp, #-8]!
 8008a50:	f7ff ffea 	bl	8008a28 <__aeabi_cdcmpeq>
 8008a54:	bf34      	ite	cc
 8008a56:	2001      	movcc	r0, #1
 8008a58:	2000      	movcs	r0, #0
 8008a5a:	f85d fb08 	ldr.w	pc, [sp], #8
 8008a5e:	bf00      	nop

08008a60 <__aeabi_dcmple>:
 8008a60:	f84d ed08 	str.w	lr, [sp, #-8]!
 8008a64:	f7ff ffe0 	bl	8008a28 <__aeabi_cdcmpeq>
 8008a68:	bf94      	ite	ls
 8008a6a:	2001      	movls	r0, #1
 8008a6c:	2000      	movhi	r0, #0
 8008a6e:	f85d fb08 	ldr.w	pc, [sp], #8
 8008a72:	bf00      	nop

08008a74 <__aeabi_dcmpge>:
 8008a74:	f84d ed08 	str.w	lr, [sp, #-8]!
 8008a78:	f7ff ffce 	bl	8008a18 <__aeabi_cdrcmple>
 8008a7c:	bf94      	ite	ls
 8008a7e:	2001      	movls	r0, #1
 8008a80:	2000      	movhi	r0, #0
 8008a82:	f85d fb08 	ldr.w	pc, [sp], #8
 8008a86:	bf00      	nop

08008a88 <__aeabi_dcmpgt>:
 8008a88:	f84d ed08 	str.w	lr, [sp, #-8]!
 8008a8c:	f7ff ffc4 	bl	8008a18 <__aeabi_cdrcmple>
 8008a90:	bf34      	ite	cc
 8008a92:	2001      	movcc	r0, #1
 8008a94:	2000      	movcs	r0, #0
 8008a96:	f85d fb08 	ldr.w	pc, [sp], #8
 8008a9a:	bf00      	nop

08008a9c <__aeabi_d2uiz>:
 8008a9c:	004a      	lsls	r2, r1, #1
 8008a9e:	d211      	bcs.n	8008ac4 <__aeabi_d2uiz+0x28>
 8008aa0:	f512 1200 	adds.w	r2, r2, #2097152	; 0x200000
 8008aa4:	d211      	bcs.n	8008aca <__aeabi_d2uiz+0x2e>
 8008aa6:	d50d      	bpl.n	8008ac4 <__aeabi_d2uiz+0x28>
 8008aa8:	f46f 7378 	mvn.w	r3, #992	; 0x3e0
 8008aac:	ebb3 5262 	subs.w	r2, r3, r2, asr #21
 8008ab0:	d40e      	bmi.n	8008ad0 <__aeabi_d2uiz+0x34>
 8008ab2:	ea4f 23c1 	mov.w	r3, r1, lsl #11
 8008ab6:	f043 4300 	orr.w	r3, r3, #2147483648	; 0x80000000
 8008aba:	ea43 5350 	orr.w	r3, r3, r0, lsr #21
 8008abe:	fa23 f002 	lsr.w	r0, r3, r2
 8008ac2:	4770      	bx	lr
 8008ac4:	f04f 0000 	mov.w	r0, #0
 8008ac8:	4770      	bx	lr
 8008aca:	ea50 3001 	orrs.w	r0, r0, r1, lsl #12
 8008ace:	d102      	bne.n	8008ad6 <__aeabi_d2uiz+0x3a>
 8008ad0:	f04f 30ff 	mov.w	r0, #4294967295
 8008ad4:	4770      	bx	lr
 8008ad6:	f04f 0000 	mov.w	r0, #0
 8008ada:	4770      	bx	lr

08008adc <__aeabi_d2f>:
 8008adc:	ea4f 0241 	mov.w	r2, r1, lsl #1
 8008ae0:	f1b2 43e0 	subs.w	r3, r2, #1879048192	; 0x70000000
 8008ae4:	bf24      	itt	cs
 8008ae6:	f5b3 1c00 	subscs.w	ip, r3, #2097152	; 0x200000
 8008aea:	f1dc 5cfe 	rsbscs	ip, ip, #532676608	; 0x1fc00000
 8008aee:	d90d      	bls.n	8008b0c <__aeabi_d2f+0x30>
 8008af0:	f001 4c00 	and.w	ip, r1, #2147483648	; 0x80000000
 8008af4:	ea4f 02c0 	mov.w	r2, r0, lsl #3
 8008af8:	ea4c 7050 	orr.w	r0, ip, r0, lsr #29
 8008afc:	f1b2 4f00 	cmp.w	r2, #2147483648	; 0x80000000
 8008b00:	eb40 0083 	adc.w	r0, r0, r3, lsl #2
 8008b04:	bf08      	it	eq
 8008b06:	f020 0001 	biceq.w	r0, r0, #1
 8008b0a:	4770      	bx	lr
 8008b0c:	f011 4f80 	tst.w	r1, #1073741824	; 0x40000000
 8008b10:	d121      	bne.n	8008b56 <__aeabi_d2f+0x7a>
 8008b12:	f113 7238 	adds.w	r2, r3, #48234496	; 0x2e00000
 8008b16:	bfbc      	itt	lt
 8008b18:	f001 4000 	andlt.w	r0, r1, #2147483648	; 0x80000000
 8008b1c:	4770      	bxlt	lr
 8008b1e:	f441 1180 	orr.w	r1, r1, #1048576	; 0x100000
 8008b22:	ea4f 5252 	mov.w	r2, r2, lsr #21
 8008b26:	f1c2 0218 	rsb	r2, r2, #24
 8008b2a:	f1c2 0c20 	rsb	ip, r2, #32
 8008b2e:	fa10 f30c 	lsls.w	r3, r0, ip
 8008b32:	fa20 f002 	lsr.w	r0, r0, r2
 8008b36:	bf18      	it	ne
 8008b38:	f040 0001 	orrne.w	r0, r0, #1
 8008b3c:	ea4f 23c1 	mov.w	r3, r1, lsl #11
 8008b40:	ea4f 23d3 	mov.w	r3, r3, lsr #11
 8008b44:	fa03 fc0c 	lsl.w	ip, r3, ip
 8008b48:	ea40 000c 	orr.w	r0, r0, ip
 8008b4c:	fa23 f302 	lsr.w	r3, r3, r2
 8008b50:	ea4f 0343 	mov.w	r3, r3, lsl #1
 8008b54:	e7cc      	b.n	8008af0 <__aeabi_d2f+0x14>
 8008b56:	ea7f 5362 	mvns.w	r3, r2, asr #21
 8008b5a:	d107      	bne.n	8008b6c <__aeabi_d2f+0x90>
 8008b5c:	ea50 3301 	orrs.w	r3, r0, r1, lsl #12
 8008b60:	bf1e      	ittt	ne
 8008b62:	f04f 40fe 	movne.w	r0, #2130706432	; 0x7f000000
 8008b66:	f440 0040 	orrne.w	r0, r0, #12582912	; 0xc00000
 8008b6a:	4770      	bxne	lr
 8008b6c:	f001 4000 	and.w	r0, r1, #2147483648	; 0x80000000
 8008b70:	f040 40fe 	orr.w	r0, r0, #2130706432	; 0x7f000000
 8008b74:	f440 0000 	orr.w	r0, r0, #8388608	; 0x800000
 8008b78:	4770      	bx	lr
 8008b7a:	bf00      	nop

08008b7c <__aeabi_uldivmod>:
 8008b7c:	b953      	cbnz	r3, 8008b94 <__aeabi_uldivmod+0x18>
 8008b7e:	b94a      	cbnz	r2, 8008b94 <__aeabi_uldivmod+0x18>
 8008b80:	2900      	cmp	r1, #0
 8008b82:	bf08      	it	eq
 8008b84:	2800      	cmpeq	r0, #0
 8008b86:	bf1c      	itt	ne
 8008b88:	f04f 31ff 	movne.w	r1, #4294967295
 8008b8c:	f04f 30ff 	movne.w	r0, #4294967295
 8008b90:	f000 b974 	b.w	8008e7c <__aeabi_idiv0>
 8008b94:	f1ad 0c08 	sub.w	ip, sp, #8
 8008b98:	e96d ce04 	strd	ip, lr, [sp, #-16]!
 8008b9c:	f000 f806 	bl	8008bac <__udivmoddi4>
 8008ba0:	f8dd e004 	ldr.w	lr, [sp, #4]
 8008ba4:	e9dd 2302 	ldrd	r2, r3, [sp, #8]
 8008ba8:	b004      	add	sp, #16
 8008baa:	4770      	bx	lr

08008bac <__udivmoddi4>:
 8008bac:	e92d 47f0 	stmdb	sp!, {r4, r5, r6, r7, r8, r9, sl, lr}
 8008bb0:	9d08      	ldr	r5, [sp, #32]
 8008bb2:	4604      	mov	r4, r0
 8008bb4:	468e      	mov	lr, r1
 8008bb6:	2b00      	cmp	r3, #0
 8008bb8:	d14d      	bne.n	8008c56 <__udivmoddi4+0xaa>
 8008bba:	428a      	cmp	r2, r1
 8008bbc:	4694      	mov	ip, r2
 8008bbe:	d969      	bls.n	8008c94 <__udivmoddi4+0xe8>
 8008bc0:	fab2 f282 	clz	r2, r2
 8008bc4:	b152      	cbz	r2, 8008bdc <__udivmoddi4+0x30>
 8008bc6:	fa01 f302 	lsl.w	r3, r1, r2
 8008bca:	f1c2 0120 	rsb	r1, r2, #32
 8008bce:	fa20 f101 	lsr.w	r1, r0, r1
 8008bd2:	fa0c fc02 	lsl.w	ip, ip, r2
 8008bd6:	ea41 0e03 	orr.w	lr, r1, r3
 8008bda:	4094      	lsls	r4, r2
 8008bdc:	ea4f 481c 	mov.w	r8, ip, lsr #16
 8008be0:	0c21      	lsrs	r1, r4, #16
 8008be2:	fbbe f6f8 	udiv	r6, lr, r8
 8008be6:	fa1f f78c 	uxth.w	r7, ip
 8008bea:	fb08 e316 	mls	r3, r8, r6, lr
 8008bee:	ea41 4303 	orr.w	r3, r1, r3, lsl #16
 8008bf2:	fb06 f107 	mul.w	r1, r6, r7
 8008bf6:	4299      	cmp	r1, r3
 8008bf8:	d90a      	bls.n	8008c10 <__udivmoddi4+0x64>
 8008bfa:	eb1c 0303 	adds.w	r3, ip, r3
 8008bfe:	f106 30ff 	add.w	r0, r6, #4294967295
 8008c02:	f080 811f 	bcs.w	8008e44 <__udivmoddi4+0x298>
 8008c06:	4299      	cmp	r1, r3
 8008c08:	f240 811c 	bls.w	8008e44 <__udivmoddi4+0x298>
 8008c0c:	3e02      	subs	r6, #2
 8008c0e:	4463      	add	r3, ip
 8008c10:	1a5b      	subs	r3, r3, r1
 8008c12:	b2a4      	uxth	r4, r4
 8008c14:	fbb3 f0f8 	udiv	r0, r3, r8
 8008c18:	fb08 3310 	mls	r3, r8, r0, r3
 8008c1c:	ea44 4403 	orr.w	r4, r4, r3, lsl #16
 8008c20:	fb00 f707 	mul.w	r7, r0, r7
 8008c24:	42a7      	cmp	r7, r4
 8008c26:	d90a      	bls.n	8008c3e <__udivmoddi4+0x92>
 8008c28:	eb1c 0404 	adds.w	r4, ip, r4
 8008c2c:	f100 33ff 	add.w	r3, r0, #4294967295
 8008c30:	f080 810a 	bcs.w	8008e48 <__udivmoddi4+0x29c>
 8008c34:	42a7      	cmp	r7, r4
 8008c36:	f240 8107 	bls.w	8008e48 <__udivmoddi4+0x29c>
 8008c3a:	4464      	add	r4, ip
 8008c3c:	3802      	subs	r0, #2
 8008c3e:	ea40 4006 	orr.w	r0, r0, r6, lsl #16
 8008c42:	1be4      	subs	r4, r4, r7
 8008c44:	2600      	movs	r6, #0
 8008c46:	b11d      	cbz	r5, 8008c50 <__udivmoddi4+0xa4>
 8008c48:	40d4      	lsrs	r4, r2
 8008c4a:	2300      	movs	r3, #0
 8008c4c:	e9c5 4300 	strd	r4, r3, [r5]
 8008c50:	4631      	mov	r1, r6
 8008c52:	e8bd 87f0 	ldmia.w	sp!, {r4, r5, r6, r7, r8, r9, sl, pc}
 8008c56:	428b      	cmp	r3, r1
 8008c58:	d909      	bls.n	8008c6e <__udivmoddi4+0xc2>
 8008c5a:	2d00      	cmp	r5, #0
 8008c5c:	f000 80ef 	beq.w	8008e3e <__udivmoddi4+0x292>
 8008c60:	2600      	movs	r6, #0
 8008c62:	e9c5 0100 	strd	r0, r1, [r5]
 8008c66:	4630      	mov	r0, r6
 8008c68:	4631      	mov	r1, r6
 8008c6a:	e8bd 87f0 	ldmia.w	sp!, {r4, r5, r6, r7, r8, r9, sl, pc}
 8008c6e:	fab3 f683 	clz	r6, r3
 8008c72:	2e00      	cmp	r6, #0
 8008c74:	d14a      	bne.n	8008d0c <__udivmoddi4+0x160>
 8008c76:	428b      	cmp	r3, r1
 8008c78:	d302      	bcc.n	8008c80 <__udivmoddi4+0xd4>
 8008c7a:	4282      	cmp	r2, r0
 8008c7c:	f200 80f9 	bhi.w	8008e72 <__udivmoddi4+0x2c6>
 8008c80:	1a84      	subs	r4, r0, r2
 8008c82:	eb61 0303 	sbc.w	r3, r1, r3
 8008c86:	2001      	movs	r0, #1
 8008c88:	469e      	mov	lr, r3
 8008c8a:	2d00      	cmp	r5, #0
 8008c8c:	d0e0      	beq.n	8008c50 <__udivmoddi4+0xa4>
 8008c8e:	e9c5 4e00 	strd	r4, lr, [r5]
 8008c92:	e7dd      	b.n	8008c50 <__udivmoddi4+0xa4>
 8008c94:	b902      	cbnz	r2, 8008c98 <__udivmoddi4+0xec>
 8008c96:	deff      	udf	#255	; 0xff
 8008c98:	fab2 f282 	clz	r2, r2
 8008c9c:	2a00      	cmp	r2, #0
 8008c9e:	f040 8092 	bne.w	8008dc6 <__udivmoddi4+0x21a>
 8008ca2:	eba1 010c 	sub.w	r1, r1, ip
 8008ca6:	ea4f 471c 	mov.w	r7, ip, lsr #16
 8008caa:	fa1f fe8c 	uxth.w	lr, ip
 8008cae:	2601      	movs	r6, #1
 8008cb0:	0c20      	lsrs	r0, r4, #16
 8008cb2:	fbb1 f3f7 	udiv	r3, r1, r7
 8008cb6:	fb07 1113 	mls	r1, r7, r3, r1
 8008cba:	ea40 4101 	orr.w	r1, r0, r1, lsl #16
 8008cbe:	fb0e f003 	mul.w	r0, lr, r3
 8008cc2:	4288      	cmp	r0, r1
 8008cc4:	d908      	bls.n	8008cd8 <__udivmoddi4+0x12c>
 8008cc6:	eb1c 0101 	adds.w	r1, ip, r1
 8008cca:	f103 38ff 	add.w	r8, r3, #4294967295
 8008cce:	d202      	bcs.n	8008cd6 <__udivmoddi4+0x12a>
 8008cd0:	4288      	cmp	r0, r1
 8008cd2:	f200 80cb 	bhi.w	8008e6c <__udivmoddi4+0x2c0>
 8008cd6:	4643      	mov	r3, r8
 8008cd8:	1a09      	subs	r1, r1, r0
 8008cda:	b2a4      	uxth	r4, r4
 8008cdc:	fbb1 f0f7 	udiv	r0, r1, r7
 8008ce0:	fb07 1110 	mls	r1, r7, r0, r1
 8008ce4:	ea44 4401 	orr.w	r4, r4, r1, lsl #16
 8008ce8:	fb0e fe00 	mul.w	lr, lr, r0
 8008cec:	45a6      	cmp	lr, r4
 8008cee:	d908      	bls.n	8008d02 <__udivmoddi4+0x156>
 8008cf0:	eb1c 0404 	adds.w	r4, ip, r4
 8008cf4:	f100 31ff 	add.w	r1, r0, #4294967295
 8008cf8:	d202      	bcs.n	8008d00 <__udivmoddi4+0x154>
 8008cfa:	45a6      	cmp	lr, r4
 8008cfc:	f200 80bb 	bhi.w	8008e76 <__udivmoddi4+0x2ca>
 8008d00:	4608      	mov	r0, r1
 8008d02:	eba4 040e 	sub.w	r4, r4, lr
 8008d06:	ea40 4003 	orr.w	r0, r0, r3, lsl #16
 8008d0a:	e79c      	b.n	8008c46 <__udivmoddi4+0x9a>
 8008d0c:	f1c6 0720 	rsb	r7, r6, #32
 8008d10:	40b3      	lsls	r3, r6
 8008d12:	fa22 fc07 	lsr.w	ip, r2, r7
 8008d16:	ea4c 0c03 	orr.w	ip, ip, r3
 8008d1a:	fa20 f407 	lsr.w	r4, r0, r7
 8008d1e:	fa01 f306 	lsl.w	r3, r1, r6
 8008d22:	431c      	orrs	r4, r3
 8008d24:	40f9      	lsrs	r1, r7
 8008d26:	ea4f 491c 	mov.w	r9, ip, lsr #16
 8008d2a:	fa00 f306 	lsl.w	r3, r0, r6
 8008d2e:	fbb1 f8f9 	udiv	r8, r1, r9
 8008d32:	0c20      	lsrs	r0, r4, #16
 8008d34:	fa1f fe8c 	uxth.w	lr, ip
 8008d38:	fb09 1118 	mls	r1, r9, r8, r1
 8008d3c:	ea40 4101 	orr.w	r1, r0, r1, lsl #16
 8008d40:	fb08 f00e 	mul.w	r0, r8, lr
 8008d44:	4288      	cmp	r0, r1
 8008d46:	fa02 f206 	lsl.w	r2, r2, r6
 8008d4a:	d90b      	bls.n	8008d64 <__udivmoddi4+0x1b8>
 8008d4c:	eb1c 0101 	adds.w	r1, ip, r1
 8008d50:	f108 3aff 	add.w	sl, r8, #4294967295
 8008d54:	f080 8088 	bcs.w	8008e68 <__udivmoddi4+0x2bc>
 8008d58:	4288      	cmp	r0, r1
 8008d5a:	f240 8085 	bls.w	8008e68 <__udivmoddi4+0x2bc>
 8008d5e:	f1a8 0802 	sub.w	r8, r8, #2
 8008d62:	4461      	add	r1, ip
 8008d64:	1a09      	subs	r1, r1, r0
 8008d66:	b2a4      	uxth	r4, r4
 8008d68:	fbb1 f0f9 	udiv	r0, r1, r9
 8008d6c:	fb09 1110 	mls	r1, r9, r0, r1
 8008d70:	ea44 4101 	orr.w	r1, r4, r1, lsl #16
 8008d74:	fb00 fe0e 	mul.w	lr, r0, lr
 8008d78:	458e      	cmp	lr, r1
 8008d7a:	d908      	bls.n	8008d8e <__udivmoddi4+0x1e2>
 8008d7c:	eb1c 0101 	adds.w	r1, ip, r1
 8008d80:	f100 34ff 	add.w	r4, r0, #4294967295
 8008d84:	d26c      	bcs.n	8008e60 <__udivmoddi4+0x2b4>
 8008d86:	458e      	cmp	lr, r1
 8008d88:	d96a      	bls.n	8008e60 <__udivmoddi4+0x2b4>
 8008d8a:	3802      	subs	r0, #2
 8008d8c:	4461      	add	r1, ip
 8008d8e:	ea40 4008 	orr.w	r0, r0, r8, lsl #16
 8008d92:	fba0 9402 	umull	r9, r4, r0, r2
 8008d96:	eba1 010e 	sub.w	r1, r1, lr
 8008d9a:	42a1      	cmp	r1, r4
 8008d9c:	46c8      	mov	r8, r9
 8008d9e:	46a6      	mov	lr, r4
 8008da0:	d356      	bcc.n	8008e50 <__udivmoddi4+0x2a4>
 8008da2:	d053      	beq.n	8008e4c <__udivmoddi4+0x2a0>
 8008da4:	b15d      	cbz	r5, 8008dbe <__udivmoddi4+0x212>
 8008da6:	ebb3 0208 	subs.w	r2, r3, r8
 8008daa:	eb61 010e 	sbc.w	r1, r1, lr
 8008dae:	fa01 f707 	lsl.w	r7, r1, r7
 8008db2:	fa22 f306 	lsr.w	r3, r2, r6
 8008db6:	40f1      	lsrs	r1, r6
 8008db8:	431f      	orrs	r7, r3
 8008dba:	e9c5 7100 	strd	r7, r1, [r5]
 8008dbe:	2600      	movs	r6, #0
 8008dc0:	4631      	mov	r1, r6
 8008dc2:	e8bd 87f0 	ldmia.w	sp!, {r4, r5, r6, r7, r8, r9, sl, pc}
 8008dc6:	f1c2 0320 	rsb	r3, r2, #32
 8008dca:	40d8      	lsrs	r0, r3
 8008dcc:	fa0c fc02 	lsl.w	ip, ip, r2
 8008dd0:	fa21 f303 	lsr.w	r3, r1, r3
 8008dd4:	4091      	lsls	r1, r2
 8008dd6:	4301      	orrs	r1, r0
 8008dd8:	ea4f 471c 	mov.w	r7, ip, lsr #16
 8008ddc:	fa1f fe8c 	uxth.w	lr, ip
 8008de0:	fbb3 f0f7 	udiv	r0, r3, r7
 8008de4:	fb07 3610 	mls	r6, r7, r0, r3
 8008de8:	0c0b      	lsrs	r3, r1, #16
 8008dea:	ea43 4306 	orr.w	r3, r3, r6, lsl #16
 8008dee:	fb00 f60e 	mul.w	r6, r0, lr
 8008df2:	429e      	cmp	r6, r3
 8008df4:	fa04 f402 	lsl.w	r4, r4, r2
 8008df8:	d908      	bls.n	8008e0c <__udivmoddi4+0x260>
 8008dfa:	eb1c 0303 	adds.w	r3, ip, r3
 8008dfe:	f100 38ff 	add.w	r8, r0, #4294967295
 8008e02:	d22f      	bcs.n	8008e64 <__udivmoddi4+0x2b8>
 8008e04:	429e      	cmp	r6, r3
 8008e06:	d92d      	bls.n	8008e64 <__udivmoddi4+0x2b8>
 8008e08:	3802      	subs	r0, #2
 8008e0a:	4463      	add	r3, ip
 8008e0c:	1b9b      	subs	r3, r3, r6
 8008e0e:	b289      	uxth	r1, r1
 8008e10:	fbb3 f6f7 	udiv	r6, r3, r7
 8008e14:	fb07 3316 	mls	r3, r7, r6, r3
 8008e18:	ea41 4103 	orr.w	r1, r1, r3, lsl #16
 8008e1c:	fb06 f30e 	mul.w	r3, r6, lr
 8008e20:	428b      	cmp	r3, r1
 8008e22:	d908      	bls.n	8008e36 <__udivmoddi4+0x28a>
 8008e24:	eb1c 0101 	adds.w	r1, ip, r1
 8008e28:	f106 38ff 	add.w	r8, r6, #4294967295
 8008e2c:	d216      	bcs.n	8008e5c <__udivmoddi4+0x2b0>
 8008e2e:	428b      	cmp	r3, r1
 8008e30:	d914      	bls.n	8008e5c <__udivmoddi4+0x2b0>
 8008e32:	3e02      	subs	r6, #2
 8008e34:	4461      	add	r1, ip
 8008e36:	1ac9      	subs	r1, r1, r3
 8008e38:	ea46 4600 	orr.w	r6, r6, r0, lsl #16
 8008e3c:	e738      	b.n	8008cb0 <__udivmoddi4+0x104>
 8008e3e:	462e      	mov	r6, r5
 8008e40:	4628      	mov	r0, r5
 8008e42:	e705      	b.n	8008c50 <__udivmoddi4+0xa4>
 8008e44:	4606      	mov	r6, r0
 8008e46:	e6e3      	b.n	8008c10 <__udivmoddi4+0x64>
 8008e48:	4618      	mov	r0, r3
 8008e4a:	e6f8      	b.n	8008c3e <__udivmoddi4+0x92>
 8008e4c:	454b      	cmp	r3, r9
 8008e4e:	d2a9      	bcs.n	8008da4 <__udivmoddi4+0x1f8>
 8008e50:	ebb9 0802 	subs.w	r8, r9, r2
 8008e54:	eb64 0e0c 	sbc.w	lr, r4, ip
 8008e58:	3801      	subs	r0, #1
 8008e5a:	e7a3      	b.n	8008da4 <__udivmoddi4+0x1f8>
 8008e5c:	4646      	mov	r6, r8
 8008e5e:	e7ea      	b.n	8008e36 <__udivmoddi4+0x28a>
 8008e60:	4620      	mov	r0, r4
 8008e62:	e794      	b.n	8008d8e <__udivmoddi4+0x1e2>
 8008e64:	4640      	mov	r0, r8
 8008e66:	e7d1      	b.n	8008e0c <__udivmoddi4+0x260>
 8008e68:	46d0      	mov	r8, sl
 8008e6a:	e77b      	b.n	8008d64 <__udivmoddi4+0x1b8>
 8008e6c:	3b02      	subs	r3, #2
 8008e6e:	4461      	add	r1, ip
 8008e70:	e732      	b.n	8008cd8 <__udivmoddi4+0x12c>
 8008e72:	4630      	mov	r0, r6
 8008e74:	e709      	b.n	8008c8a <__udivmoddi4+0xde>
 8008e76:	4464      	add	r4, ip
 8008e78:	3802      	subs	r0, #2
 8008e7a:	e742      	b.n	8008d02 <__udivmoddi4+0x156>

08008e7c <__aeabi_idiv0>:
 8008e7c:	4770      	bx	lr
 8008e7e:	bf00      	nop

08008e80 <DAC7571_Init>:
 8008e80:	2301      	movs	r3, #1
 8008e82:	6001      	str	r1, [r0, #0]
 8008e84:	ed80 0a03 	vstr	s0, [r0, #12]
 8008e88:	7203      	strb	r3, [r0, #8]
 8008e8a:	4770      	bx	lr
 8008e8c:	0000      	movs	r0, r0
	...

08008e90 <DAC7571_SetOutVoltage>:
 8008e90:	edd0 7a03 	vldr	s15, [r0, #12]
 8008e94:	eef4 7ac0 	vcmpe.f32	s15, s0
 8008e98:	eef1 fa10 	vmrs	APSR_nzcv, fpscr
 8008e9c:	b510      	push	{r4, lr}
 8008e9e:	4604      	mov	r4, r0
 8008ea0:	d41d      	bmi.n	8008ede <DAC7571_SetOutVoltage+0x4e>
 8008ea2:	eeb5 0ac0 	vcmpe.f32	s0, #0.0
 8008ea6:	eef1 fa10 	vmrs	APSR_nzcv, fpscr
 8008eaa:	d418      	bmi.n	8008ede <DAC7571_SetOutVoltage+0x4e>
 8008eac:	eec0 7a27 	vdiv.f32	s15, s0, s15
 8008eb0:	ee17 0a90 	vmov	r0, s15
 8008eb4:	f7ff fb00 	bl	80084b8 <__aeabi_f2d>
 8008eb8:	a30b      	add	r3, pc, #44	; (adr r3, 8008ee8 <DAC7571_SetOutVoltage+0x58>)
 8008eba:	e9d3 2300 	ldrd	r2, r3, [r3]
 8008ebe:	f7ff fb53 	bl	8008568 <__aeabi_dmul>
 8008ec2:	ec41 0b10 	vmov	d0, r0, r1
 8008ec6:	f00c fa23 	bl	8015310 <floor>
 8008eca:	ec51 0b10 	vmov	r0, r1, d0
 8008ece:	f7ff fde5 	bl	8008a9c <__aeabi_d2uiz>
 8008ed2:	f3c0 2307 	ubfx	r3, r0, #8, #8
 8008ed6:	71a0      	strb	r0, [r4, #6]
 8008ed8:	7163      	strb	r3, [r4, #5]
 8008eda:	2000      	movs	r0, #0
 8008edc:	bd10      	pop	{r4, pc}
 8008ede:	2001      	movs	r0, #1
 8008ee0:	e7fc      	b.n	8008edc <DAC7571_SetOutVoltage+0x4c>
 8008ee2:	bf00      	nop
 8008ee4:	f3af 8000 	nop.w
 8008ee8:	00000000 	.word	0x00000000
 8008eec:	40affe00 	.word	0x40affe00

08008ef0 <DAC7571_SetOutEnabling>:
 8008ef0:	71c1      	strb	r1, [r0, #7]
 8008ef2:	b919      	cbnz	r1, 8008efc <DAC7571_SetOutEnabling+0xc>
 8008ef4:	ed9f 0a02 	vldr	s0, [pc, #8]	; 8008f00 <DAC7571_SetOutEnabling+0x10>
 8008ef8:	f7ff bfca 	b.w	8008e90 <DAC7571_SetOutVoltage>
 8008efc:	4770      	bx	lr
 8008efe:	bf00      	nop
 8008f00:	00000000 	.word	0x00000000

08008f04 <DAC7571_WriteDMA>:
 8008f04:	b538      	push	{r3, r4, r5, lr}
 8008f06:	79c5      	ldrb	r5, [r0, #7]
 8008f08:	2d01      	cmp	r5, #1
 8008f0a:	4604      	mov	r4, r0
 8008f0c:	d001      	beq.n	8008f12 <DAC7571_WriteDMA+0xe>
 8008f0e:	2001      	movs	r0, #1
 8008f10:	bd38      	pop	{r3, r4, r5, pc}
 8008f12:	1d42      	adds	r2, r0, #5
 8008f14:	2302      	movs	r3, #2
 8008f16:	6800      	ldr	r0, [r0, #0]
 8008f18:	2198      	movs	r1, #152	; 0x98
 8008f1a:	f004 f8f3 	bl	800d104 <HAL_I2C_Master_Transmit_DMA>
 8008f1e:	2800      	cmp	r0, #0
 8008f20:	d1f5      	bne.n	8008f0e <DAC7571_WriteDMA+0xa>
 8008f22:	7125      	strb	r5, [r4, #4]
 8008f24:	e7f4      	b.n	8008f10 <DAC7571_WriteDMA+0xc>

08008f26 <DAC7571_WriteDMA_Complete>:
 8008f26:	b510      	push	{r4, lr}
 8008f28:	4604      	mov	r4, r0
 8008f2a:	f7ff ffeb 	bl	8008f04 <DAC7571_WriteDMA>
 8008f2e:	2300      	movs	r3, #0
 8008f30:	7123      	strb	r3, [r4, #4]
 8008f32:	bd10      	pop	{r4, pc}
 8008f34:	0000      	movs	r0, r0
	...

08008f38 <DAC7571_TestOutput>:
 8008f38:	2301      	movs	r3, #1
 8008f3a:	b510      	push	{r4, lr}
 8008f3c:	71c3      	strb	r3, [r0, #7]
 8008f3e:	4b16      	ldr	r3, [pc, #88]	; (8008f98 <DAC7571_TestOutput+0x60>)
 8008f40:	881a      	ldrh	r2, [r3, #0]
 8008f42:	2a7f      	cmp	r2, #127	; 0x7f
 8008f44:	bf9c      	itt	ls
 8008f46:	3201      	addls	r2, #1
 8008f48:	801a      	strhls	r2, [r3, #0]
 8008f4a:	881a      	ldrh	r2, [r3, #0]
 8008f4c:	2a80      	cmp	r2, #128	; 0x80
 8008f4e:	bf04      	itt	eq
 8008f50:	2200      	moveq	r2, #0
 8008f52:	801a      	strheq	r2, [r3, #0]
 8008f54:	881a      	ldrh	r2, [r3, #0]
 8008f56:	4b11      	ldr	r3, [pc, #68]	; (8008f9c <DAC7571_TestOutput+0x64>)
 8008f58:	4604      	mov	r4, r0
 8008f5a:	f833 0012 	ldrh.w	r0, [r3, r2, lsl #1]
 8008f5e:	f7ff fa99 	bl	8008494 <__aeabi_i2d>
 8008f62:	a309      	add	r3, pc, #36	; (adr r3, 8008f88 <DAC7571_TestOutput+0x50>)
 8008f64:	e9d3 2300 	ldrd	r2, r3, [r3]
 8008f68:	f7ff fafe 	bl	8008568 <__aeabi_dmul>
 8008f6c:	a308      	add	r3, pc, #32	; (adr r3, 8008f90 <DAC7571_TestOutput+0x58>)
 8008f6e:	e9d3 2300 	ldrd	r2, r3, [r3]
 8008f72:	f7ff fc23 	bl	80087bc <__aeabi_ddiv>
 8008f76:	f7ff fdb1 	bl	8008adc <__aeabi_d2f>
 8008f7a:	ee00 0a10 	vmov	s0, r0
 8008f7e:	4620      	mov	r0, r4
 8008f80:	e8bd 4010 	ldmia.w	sp!, {r4, lr}
 8008f84:	f7ff bf84 	b.w	8008e90 <DAC7571_SetOutVoltage>
 8008f88:	c28f5c29 	.word	0xc28f5c29
 8008f8c:	400a28f5 	.word	0x400a28f5
 8008f90:	00000000 	.word	0x00000000
 8008f94:	40affe00 	.word	0x40affe00
 8008f98:	2000018c 	.word	0x2000018c
 8008f9c:	08015928 	.word	0x08015928

08008fa0 <IIM42652_Format_Data.part.0>:
 8008fa0:	8803      	ldrh	r3, [r0, #0]
 8008fa2:	ba5b      	rev16	r3, r3
 8008fa4:	800b      	strh	r3, [r1, #0]
 8008fa6:	4770      	bx	lr

08008fa8 <IIM42652_InitBusGuard>:
 8008fa8:	60c1      	str	r1, [r0, #12]
 8008faa:	b941      	cbnz	r1, 8008fbe <IIM42652_InitBusGuard+0x16>
 8008fac:	f04f 0350 	mov.w	r3, #80	; 0x50
 8008fb0:	f383 8811 	msr	BASEPRI, r3
 8008fb4:	f3bf 8f6f 	isb	sy
 8008fb8:	f3bf 8f4f 	dsb	sy
 8008fbc:	e7fe      	b.n	8008fbc <IIM42652_InitBusGuard+0x14>
 8008fbe:	2000      	movs	r0, #0
 8008fc0:	4770      	bx	lr

08008fc2 <IIM42652_CheckCommunication>:
 8008fc2:	b530      	push	{r4, r5, lr}
 8008fc4:	b085      	sub	sp, #20
 8008fc6:	4604      	mov	r4, r0
 8008fc8:	8901      	ldrh	r1, [r0, #8]
 8008fca:	6840      	ldr	r0, [r0, #4]
 8008fcc:	23f5      	movs	r3, #245	; 0xf5
 8008fce:	2200      	movs	r2, #0
 8008fd0:	f8ad 3008 	strh.w	r3, [sp, #8]
 8008fd4:	f003 ffdc 	bl	800cf90 <HAL_GPIO_WritePin>
 8008fd8:	f04f 33ff 	mov.w	r3, #4294967295
 8008fdc:	9300      	str	r3, [sp, #0]
 8008fde:	aa03      	add	r2, sp, #12
 8008fe0:	a902      	add	r1, sp, #8
 8008fe2:	6820      	ldr	r0, [r4, #0]
 8008fe4:	2302      	movs	r3, #2
 8008fe6:	f006 fa51 	bl	800f48c <HAL_SPI_TransmitReceive>
 8008fea:	8921      	ldrh	r1, [r4, #8]
 8008fec:	4605      	mov	r5, r0
 8008fee:	2201      	movs	r2, #1
 8008ff0:	6860      	ldr	r0, [r4, #4]
 8008ff2:	f003 ffcd 	bl	800cf90 <HAL_GPIO_WritePin>
 8008ff6:	b935      	cbnz	r5, 8009006 <IIM42652_CheckCommunication+0x44>
 8008ff8:	f89d 000d 	ldrb.w	r0, [sp, #13]
 8008ffc:	386f      	subs	r0, #111	; 0x6f
 8008ffe:	bf18      	it	ne
 8009000:	2001      	movne	r0, #1
 8009002:	b005      	add	sp, #20
 8009004:	bd30      	pop	{r4, r5, pc}
 8009006:	2001      	movs	r0, #1
 8009008:	e7fb      	b.n	8009002 <IIM42652_CheckCommunication+0x40>

0800900a <IIM42652_SetRegisterBank>:
 800900a:	b5f0      	push	{r4, r5, r6, r7, lr}
 800900c:	b085      	sub	sp, #20
 800900e:	23f6      	movs	r3, #246	; 0xf6
 8009010:	2904      	cmp	r1, #4
 8009012:	4604      	mov	r4, r0
 8009014:	460e      	mov	r6, r1
 8009016:	f8ad 3008 	strh.w	r3, [sp, #8]
 800901a:	d84f      	bhi.n	80090bc <IIM42652_SetRegisterBank+0xb2>
 800901c:	f008 fca4 	bl	8011968 <osKernelRunning>
 8009020:	2801      	cmp	r0, #1
 8009022:	d104      	bne.n	800902e <IIM42652_SetRegisterBank+0x24>
 8009024:	68e0      	ldr	r0, [r4, #12]
 8009026:	f04f 31ff 	mov.w	r1, #4294967295
 800902a:	f008 fd8a 	bl	8011b42 <osSemaphoreWait>
 800902e:	8921      	ldrh	r1, [r4, #8]
 8009030:	6860      	ldr	r0, [r4, #4]
 8009032:	2200      	movs	r2, #0
 8009034:	f04f 37ff 	mov.w	r7, #4294967295
 8009038:	f003 ffaa 	bl	800cf90 <HAL_GPIO_WritePin>
 800903c:	aa03      	add	r2, sp, #12
 800903e:	a902      	add	r1, sp, #8
 8009040:	6820      	ldr	r0, [r4, #0]
 8009042:	9700      	str	r7, [sp, #0]
 8009044:	2302      	movs	r3, #2
 8009046:	f006 fa21 	bl	800f48c <HAL_SPI_TransmitReceive>
 800904a:	8921      	ldrh	r1, [r4, #8]
 800904c:	4605      	mov	r5, r0
 800904e:	2201      	movs	r2, #1
 8009050:	6860      	ldr	r0, [r4, #4]
 8009052:	f003 ff9d 	bl	800cf90 <HAL_GPIO_WritePin>
 8009056:	bb3d      	cbnz	r5, 80090a8 <IIM42652_SetRegisterBank+0x9e>
 8009058:	f89d 300d 	ldrb.w	r3, [sp, #13]
 800905c:	8921      	ldrh	r1, [r4, #8]
 800905e:	6860      	ldr	r0, [r4, #4]
 8009060:	f8ad 500c 	strh.w	r5, [sp, #12]
 8009064:	2276      	movs	r2, #118	; 0x76
 8009066:	f003 03f8 	and.w	r3, r3, #248	; 0xf8
 800906a:	4333      	orrs	r3, r6
 800906c:	f88d 2008 	strb.w	r2, [sp, #8]
 8009070:	462a      	mov	r2, r5
 8009072:	f88d 3009 	strb.w	r3, [sp, #9]
 8009076:	f003 ff8b 	bl	800cf90 <HAL_GPIO_WritePin>
 800907a:	6820      	ldr	r0, [r4, #0]
 800907c:	9700      	str	r7, [sp, #0]
 800907e:	2302      	movs	r3, #2
 8009080:	aa03      	add	r2, sp, #12
 8009082:	a902      	add	r1, sp, #8
 8009084:	f006 fa02 	bl	800f48c <HAL_SPI_TransmitReceive>
 8009088:	4605      	mov	r5, r0
 800908a:	6820      	ldr	r0, [r4, #0]
 800908c:	f006 fc86 	bl	800f99c <HAL_SPI_GetState>
 8009090:	2801      	cmp	r0, #1
 8009092:	4602      	mov	r2, r0
 8009094:	d1f9      	bne.n	800908a <IIM42652_SetRegisterBank+0x80>
 8009096:	8921      	ldrh	r1, [r4, #8]
 8009098:	6860      	ldr	r0, [r4, #4]
 800909a:	f003 ff79 	bl	800cf90 <HAL_GPIO_WritePin>
 800909e:	b91d      	cbnz	r5, 80090a8 <IIM42652_SetRegisterBank+0x9e>
 80090a0:	f504 5380 	add.w	r3, r4, #4096	; 0x1000
 80090a4:	f883 6038 	strb.w	r6, [r3, #56]	; 0x38
 80090a8:	f008 fc5e 	bl	8011968 <osKernelRunning>
 80090ac:	2801      	cmp	r0, #1
 80090ae:	d102      	bne.n	80090b6 <IIM42652_SetRegisterBank+0xac>
 80090b0:	68e0      	ldr	r0, [r4, #12]
 80090b2:	f008 fd6b 	bl	8011b8c <osSemaphoreRelease>
 80090b6:	4628      	mov	r0, r5
 80090b8:	b005      	add	sp, #20
 80090ba:	bdf0      	pop	{r4, r5, r6, r7, pc}
 80090bc:	2501      	movs	r5, #1
 80090be:	e7fa      	b.n	80090b6 <IIM42652_SetRegisterBank+0xac>

080090c0 <IIM42652_ReadRegister>:
 80090c0:	b5f0      	push	{r4, r5, r6, r7, lr}
 80090c2:	b085      	sub	sp, #20
 80090c4:	461f      	mov	r7, r3
 80090c6:	2300      	movs	r3, #0
 80090c8:	f88d 3009 	strb.w	r3, [sp, #9]
 80090cc:	f500 5380 	add.w	r3, r0, #4096	; 0x1000
 80090d0:	f061 017f 	orn	r1, r1, #127	; 0x7f
 80090d4:	f893 3038 	ldrb.w	r3, [r3, #56]	; 0x38
 80090d8:	f88d 1008 	strb.w	r1, [sp, #8]
 80090dc:	4293      	cmp	r3, r2
 80090de:	4604      	mov	r4, r0
 80090e0:	d002      	beq.n	80090e8 <IIM42652_ReadRegister+0x28>
 80090e2:	4611      	mov	r1, r2
 80090e4:	f7ff ff91 	bl	800900a <IIM42652_SetRegisterBank>
 80090e8:	f008 fc3e 	bl	8011968 <osKernelRunning>
 80090ec:	2801      	cmp	r0, #1
 80090ee:	4606      	mov	r6, r0
 80090f0:	d122      	bne.n	8009138 <IIM42652_ReadRegister+0x78>
 80090f2:	f04f 31ff 	mov.w	r1, #4294967295
 80090f6:	68e0      	ldr	r0, [r4, #12]
 80090f8:	f008 fd23 	bl	8011b42 <osSemaphoreWait>
 80090fc:	8921      	ldrh	r1, [r4, #8]
 80090fe:	6860      	ldr	r0, [r4, #4]
 8009100:	2200      	movs	r2, #0
 8009102:	f003 ff45 	bl	800cf90 <HAL_GPIO_WritePin>
 8009106:	f04f 33ff 	mov.w	r3, #4294967295
 800910a:	9300      	str	r3, [sp, #0]
 800910c:	aa03      	add	r2, sp, #12
 800910e:	2302      	movs	r3, #2
 8009110:	a902      	add	r1, sp, #8
 8009112:	6820      	ldr	r0, [r4, #0]
 8009114:	f006 f9ba 	bl	800f48c <HAL_SPI_TransmitReceive>
 8009118:	8921      	ldrh	r1, [r4, #8]
 800911a:	4605      	mov	r5, r0
 800911c:	4632      	mov	r2, r6
 800911e:	6860      	ldr	r0, [r4, #4]
 8009120:	f003 ff36 	bl	800cf90 <HAL_GPIO_WritePin>
 8009124:	68e0      	ldr	r0, [r4, #12]
 8009126:	f008 fd31 	bl	8011b8c <osSemaphoreRelease>
 800912a:	b915      	cbnz	r5, 8009132 <IIM42652_ReadRegister+0x72>
 800912c:	f89d 300d 	ldrb.w	r3, [sp, #13]
 8009130:	703b      	strb	r3, [r7, #0]
 8009132:	4628      	mov	r0, r5
 8009134:	b005      	add	sp, #20
 8009136:	bdf0      	pop	{r4, r5, r6, r7, pc}
 8009138:	8921      	ldrh	r1, [r4, #8]
 800913a:	6860      	ldr	r0, [r4, #4]
 800913c:	2200      	movs	r2, #0
 800913e:	f003 ff27 	bl	800cf90 <HAL_GPIO_WritePin>
 8009142:	f04f 33ff 	mov.w	r3, #4294967295
 8009146:	9300      	str	r3, [sp, #0]
 8009148:	aa03      	add	r2, sp, #12
 800914a:	a902      	add	r1, sp, #8
 800914c:	6820      	ldr	r0, [r4, #0]
 800914e:	2302      	movs	r3, #2
 8009150:	f006 f99c 	bl	800f48c <HAL_SPI_TransmitReceive>
 8009154:	8921      	ldrh	r1, [r4, #8]
 8009156:	4605      	mov	r5, r0
 8009158:	2201      	movs	r2, #1
 800915a:	6860      	ldr	r0, [r4, #4]
 800915c:	f003 ff18 	bl	800cf90 <HAL_GPIO_WritePin>
 8009160:	e7e3      	b.n	800912a <IIM42652_ReadRegister+0x6a>

08009162 <IIM42652_ReadRegisterBits>:
 8009162:	b5f7      	push	{r0, r1, r2, r4, r5, r6, r7, lr}
 8009164:	f89d 6020 	ldrb.w	r6, [sp, #32]
 8009168:	9d09      	ldr	r5, [sp, #36]	; 0x24
 800916a:	2700      	movs	r7, #0
 800916c:	2e08      	cmp	r6, #8
 800916e:	461c      	mov	r4, r3
 8009170:	f88d 7007 	strb.w	r7, [sp, #7]
 8009174:	d815      	bhi.n	80091a2 <IIM42652_ReadRegisterBits+0x40>
 8009176:	2b07      	cmp	r3, #7
 8009178:	d813      	bhi.n	80091a2 <IIM42652_ReadRegisterBits+0x40>
 800917a:	f10d 0307 	add.w	r3, sp, #7
 800917e:	f7ff ff9f 	bl	80090c0 <IIM42652_ReadRegister>
 8009182:	2201      	movs	r2, #1
 8009184:	b960      	cbnz	r0, 80091a0 <IIM42652_ReadRegisterBits+0x3e>
 8009186:	fa02 f306 	lsl.w	r3, r2, r6
 800918a:	1ba4      	subs	r4, r4, r6
 800918c:	4414      	add	r4, r2
 800918e:	3b01      	subs	r3, #1
 8009190:	f89d 2007 	ldrb.w	r2, [sp, #7]
 8009194:	40a3      	lsls	r3, r4
 8009196:	4013      	ands	r3, r2
 8009198:	4123      	asrs	r3, r4
 800919a:	702b      	strb	r3, [r5, #0]
 800919c:	b003      	add	sp, #12
 800919e:	bdf0      	pop	{r4, r5, r6, r7, pc}
 80091a0:	702f      	strb	r7, [r5, #0]
 80091a2:	2001      	movs	r0, #1
 80091a4:	e7fa      	b.n	800919c <IIM42652_ReadRegisterBits+0x3a>

080091a6 <IIM42652_WriteRegisterBits>:
 80091a6:	b5f0      	push	{r4, r5, r6, r7, lr}
 80091a8:	b089      	sub	sp, #36	; 0x24
 80091aa:	461d      	mov	r5, r3
 80091ac:	f89d 7038 	ldrb.w	r7, [sp, #56]	; 0x38
 80091b0:	2300      	movs	r3, #0
 80091b2:	2f08      	cmp	r7, #8
 80091b4:	4604      	mov	r4, r0
 80091b6:	460e      	mov	r6, r1
 80091b8:	f88d 3017 	strb.w	r3, [sp, #23]
 80091bc:	d903      	bls.n	80091c6 <IIM42652_WriteRegisterBits+0x20>
 80091be:	2501      	movs	r5, #1
 80091c0:	4628      	mov	r0, r5
 80091c2:	b009      	add	sp, #36	; 0x24
 80091c4:	bdf0      	pop	{r4, r5, r6, r7, pc}
 80091c6:	2d07      	cmp	r5, #7
 80091c8:	d8f9      	bhi.n	80091be <IIM42652_WriteRegisterBits+0x18>
 80091ca:	f10d 0317 	add.w	r3, sp, #23
 80091ce:	f7ff ff77 	bl	80090c0 <IIM42652_ReadRegister>
 80091d2:	2800      	cmp	r0, #0
 80091d4:	d1f3      	bne.n	80091be <IIM42652_WriteRegisterBits+0x18>
 80091d6:	2301      	movs	r3, #1
 80091d8:	f89d 103c 	ldrb.w	r1, [sp, #60]	; 0x3c
 80091dc:	9003      	str	r0, [sp, #12]
 80091de:	1bed      	subs	r5, r5, r7
 80091e0:	40bb      	lsls	r3, r7
 80091e2:	3501      	adds	r5, #1
 80091e4:	3b01      	subs	r3, #1
 80091e6:	40ab      	lsls	r3, r5
 80091e8:	fa01 f505 	lsl.w	r5, r1, r5
 80091ec:	f89d 1017 	ldrb.w	r1, [sp, #23]
 80091f0:	f88d 6018 	strb.w	r6, [sp, #24]
 80091f4:	b2ed      	uxtb	r5, r5
 80091f6:	ea21 0103 	bic.w	r1, r1, r3
 80091fa:	402b      	ands	r3, r5
 80091fc:	430b      	orrs	r3, r1
 80091fe:	f88d 3017 	strb.w	r3, [sp, #23]
 8009202:	f88d 3019 	strb.w	r3, [sp, #25]
 8009206:	f008 fbaf 	bl	8011968 <osKernelRunning>
 800920a:	2801      	cmp	r0, #1
 800920c:	9a03      	ldr	r2, [sp, #12]
 800920e:	d121      	bne.n	8009254 <IIM42652_WriteRegisterBits+0xae>
 8009210:	f04f 31ff 	mov.w	r1, #4294967295
 8009214:	68e0      	ldr	r0, [r4, #12]
 8009216:	f008 fc94 	bl	8011b42 <osSemaphoreWait>
 800921a:	9a03      	ldr	r2, [sp, #12]
 800921c:	8921      	ldrh	r1, [r4, #8]
 800921e:	6860      	ldr	r0, [r4, #4]
 8009220:	f003 feb6 	bl	800cf90 <HAL_GPIO_WritePin>
 8009224:	f04f 33ff 	mov.w	r3, #4294967295
 8009228:	9300      	str	r3, [sp, #0]
 800922a:	6820      	ldr	r0, [r4, #0]
 800922c:	2302      	movs	r3, #2
 800922e:	aa07      	add	r2, sp, #28
 8009230:	a906      	add	r1, sp, #24
 8009232:	f006 f92b 	bl	800f48c <HAL_SPI_TransmitReceive>
 8009236:	4605      	mov	r5, r0
 8009238:	6820      	ldr	r0, [r4, #0]
 800923a:	f006 fbaf 	bl	800f99c <HAL_SPI_GetState>
 800923e:	2801      	cmp	r0, #1
 8009240:	4602      	mov	r2, r0
 8009242:	d1f9      	bne.n	8009238 <IIM42652_WriteRegisterBits+0x92>
 8009244:	6860      	ldr	r0, [r4, #4]
 8009246:	8921      	ldrh	r1, [r4, #8]
 8009248:	f003 fea2 	bl	800cf90 <HAL_GPIO_WritePin>
 800924c:	68e0      	ldr	r0, [r4, #12]
 800924e:	f008 fc9d 	bl	8011b8c <osSemaphoreRelease>
 8009252:	e7b5      	b.n	80091c0 <IIM42652_WriteRegisterBits+0x1a>
 8009254:	8921      	ldrh	r1, [r4, #8]
 8009256:	6860      	ldr	r0, [r4, #4]
 8009258:	f003 fe9a 	bl	800cf90 <HAL_GPIO_WritePin>
 800925c:	f04f 33ff 	mov.w	r3, #4294967295
 8009260:	9300      	str	r3, [sp, #0]
 8009262:	6820      	ldr	r0, [r4, #0]
 8009264:	2302      	movs	r3, #2
 8009266:	aa07      	add	r2, sp, #28
 8009268:	a906      	add	r1, sp, #24
 800926a:	f006 f90f 	bl	800f48c <HAL_SPI_TransmitReceive>
 800926e:	4605      	mov	r5, r0
 8009270:	6820      	ldr	r0, [r4, #0]
 8009272:	f006 fb93 	bl	800f99c <HAL_SPI_GetState>
 8009276:	2801      	cmp	r0, #1
 8009278:	4602      	mov	r2, r0
 800927a:	d1f9      	bne.n	8009270 <IIM42652_WriteRegisterBits+0xca>
 800927c:	8921      	ldrh	r1, [r4, #8]
 800927e:	6860      	ldr	r0, [r4, #4]
 8009280:	f003 fe86 	bl	800cf90 <HAL_GPIO_WritePin>
 8009284:	e79c      	b.n	80091c0 <IIM42652_WriteRegisterBits+0x1a>

08009286 <IIM42652_SoftReset>:
 8009286:	b513      	push	{r0, r1, r4, lr}
 8009288:	2301      	movs	r3, #1
 800928a:	e9cd 3300 	strd	r3, r3, [sp]
 800928e:	2300      	movs	r3, #0
 8009290:	461a      	mov	r2, r3
 8009292:	2111      	movs	r1, #17
 8009294:	f7ff ff87 	bl	80091a6 <IIM42652_WriteRegisterBits>
 8009298:	4604      	mov	r4, r0
 800929a:	2002      	movs	r0, #2
 800929c:	f008 fb93 	bl	80119c6 <osDelay>
 80092a0:	4620      	mov	r0, r4
 80092a2:	b002      	add	sp, #8
 80092a4:	bd10      	pop	{r4, pc}

080092a6 <IIM42652_WriteRegister>:
 80092a6:	b530      	push	{r4, r5, lr}
 80092a8:	b085      	sub	sp, #20
 80092aa:	4604      	mov	r4, r0
 80092ac:	f88d 3009 	strb.w	r3, [sp, #9]
 80092b0:	f500 5380 	add.w	r3, r0, #4096	; 0x1000
 80092b4:	f88d 1008 	strb.w	r1, [sp, #8]
 80092b8:	f893 3038 	ldrb.w	r3, [r3, #56]	; 0x38
 80092bc:	4293      	cmp	r3, r2
 80092be:	d002      	beq.n	80092c6 <IIM42652_WriteRegister+0x20>
 80092c0:	4611      	mov	r1, r2
 80092c2:	f7ff fea2 	bl	800900a <IIM42652_SetRegisterBank>
 80092c6:	f008 fb4f 	bl	8011968 <osKernelRunning>
 80092ca:	2801      	cmp	r0, #1
 80092cc:	d123      	bne.n	8009316 <IIM42652_WriteRegister+0x70>
 80092ce:	f04f 31ff 	mov.w	r1, #4294967295
 80092d2:	68e0      	ldr	r0, [r4, #12]
 80092d4:	f008 fc35 	bl	8011b42 <osSemaphoreWait>
 80092d8:	8921      	ldrh	r1, [r4, #8]
 80092da:	6860      	ldr	r0, [r4, #4]
 80092dc:	2200      	movs	r2, #0
 80092de:	f003 fe57 	bl	800cf90 <HAL_GPIO_WritePin>
 80092e2:	f04f 33ff 	mov.w	r3, #4294967295
 80092e6:	9300      	str	r3, [sp, #0]
 80092e8:	6820      	ldr	r0, [r4, #0]
 80092ea:	2302      	movs	r3, #2
 80092ec:	aa03      	add	r2, sp, #12
 80092ee:	a902      	add	r1, sp, #8
 80092f0:	f006 f8cc 	bl	800f48c <HAL_SPI_TransmitReceive>
 80092f4:	4605      	mov	r5, r0
 80092f6:	6820      	ldr	r0, [r4, #0]
 80092f8:	f006 fb50 	bl	800f99c <HAL_SPI_GetState>
 80092fc:	2801      	cmp	r0, #1
 80092fe:	4602      	mov	r2, r0
 8009300:	d1f9      	bne.n	80092f6 <IIM42652_WriteRegister+0x50>
 8009302:	6860      	ldr	r0, [r4, #4]
 8009304:	8921      	ldrh	r1, [r4, #8]
 8009306:	f003 fe43 	bl	800cf90 <HAL_GPIO_WritePin>
 800930a:	68e0      	ldr	r0, [r4, #12]
 800930c:	f008 fc3e 	bl	8011b8c <osSemaphoreRelease>
 8009310:	4628      	mov	r0, r5
 8009312:	b005      	add	sp, #20
 8009314:	bd30      	pop	{r4, r5, pc}
 8009316:	8921      	ldrh	r1, [r4, #8]
 8009318:	6860      	ldr	r0, [r4, #4]
 800931a:	2200      	movs	r2, #0
 800931c:	f003 fe38 	bl	800cf90 <HAL_GPIO_WritePin>
 8009320:	f04f 33ff 	mov.w	r3, #4294967295
 8009324:	9300      	str	r3, [sp, #0]
 8009326:	6820      	ldr	r0, [r4, #0]
 8009328:	2302      	movs	r3, #2
 800932a:	aa03      	add	r2, sp, #12
 800932c:	a902      	add	r1, sp, #8
 800932e:	f006 f8ad 	bl	800f48c <HAL_SPI_TransmitReceive>
 8009332:	4605      	mov	r5, r0
 8009334:	6820      	ldr	r0, [r4, #0]
 8009336:	f006 fb31 	bl	800f99c <HAL_SPI_GetState>
 800933a:	2801      	cmp	r0, #1
 800933c:	4602      	mov	r2, r0
 800933e:	d1f9      	bne.n	8009334 <IIM42652_WriteRegister+0x8e>
 8009340:	8921      	ldrh	r1, [r4, #8]
 8009342:	6860      	ldr	r0, [r4, #4]
 8009344:	f003 fe24 	bl	800cf90 <HAL_GPIO_WritePin>
 8009348:	e7e2      	b.n	8009310 <IIM42652_WriteRegister+0x6a>

0800934a <IIM42652_ReadMultiRegisters>:
 800934a:	e92d 47ff 	stmdb	sp!, {r0, r1, r2, r3, r4, r5, r6, r7, r8, r9, sl, lr}
 800934e:	4698      	mov	r8, r3
 8009350:	f500 5380 	add.w	r3, r0, #4096	; 0x1000
 8009354:	468a      	mov	sl, r1
 8009356:	f893 3038 	ldrb.w	r3, [r3, #56]	; 0x38
 800935a:	f8bd 9030 	ldrh.w	r9, [sp, #48]	; 0x30
 800935e:	4293      	cmp	r3, r2
 8009360:	4604      	mov	r4, r0
 8009362:	4611      	mov	r1, r2
 8009364:	d001      	beq.n	800936a <IIM42652_ReadMultiRegisters+0x20>
 8009366:	f7ff fe50 	bl	800900a <IIM42652_SetRegisterBank>
 800936a:	f109 0501 	add.w	r5, r9, #1
 800936e:	4628      	mov	r0, r5
 8009370:	f00a fc0c 	bl	8013b8c <pvPortMalloc>
 8009374:	4606      	mov	r6, r0
 8009376:	4628      	mov	r0, r5
 8009378:	f00a fc08 	bl	8013b8c <pvPortMalloc>
 800937c:	f06a 0a7f 	orn	sl, sl, #127	; 0x7f
 8009380:	462a      	mov	r2, r5
 8009382:	2100      	movs	r1, #0
 8009384:	4607      	mov	r7, r0
 8009386:	4630      	mov	r0, r6
 8009388:	f00c f8c6 	bl	8015518 <memset>
 800938c:	f886 a000 	strb.w	sl, [r6]
 8009390:	f008 faea 	bl	8011968 <osKernelRunning>
 8009394:	b2ab      	uxth	r3, r5
 8009396:	2801      	cmp	r0, #1
 8009398:	4682      	mov	sl, r0
 800939a:	9303      	str	r3, [sp, #12]
 800939c:	d12b      	bne.n	80093f6 <IIM42652_ReadMultiRegisters+0xac>
 800939e:	f04f 31ff 	mov.w	r1, #4294967295
 80093a2:	68e0      	ldr	r0, [r4, #12]
 80093a4:	f008 fbcd 	bl	8011b42 <osSemaphoreWait>
 80093a8:	8921      	ldrh	r1, [r4, #8]
 80093aa:	6860      	ldr	r0, [r4, #4]
 80093ac:	2200      	movs	r2, #0
 80093ae:	f003 fdef 	bl	800cf90 <HAL_GPIO_WritePin>
 80093b2:	f04f 32ff 	mov.w	r2, #4294967295
 80093b6:	9b03      	ldr	r3, [sp, #12]
 80093b8:	9200      	str	r2, [sp, #0]
 80093ba:	4631      	mov	r1, r6
 80093bc:	463a      	mov	r2, r7
 80093be:	6820      	ldr	r0, [r4, #0]
 80093c0:	f006 f864 	bl	800f48c <HAL_SPI_TransmitReceive>
 80093c4:	8921      	ldrh	r1, [r4, #8]
 80093c6:	4605      	mov	r5, r0
 80093c8:	4652      	mov	r2, sl
 80093ca:	6860      	ldr	r0, [r4, #4]
 80093cc:	f003 fde0 	bl	800cf90 <HAL_GPIO_WritePin>
 80093d0:	68e0      	ldr	r0, [r4, #12]
 80093d2:	f008 fbdb 	bl	8011b8c <osSemaphoreRelease>
 80093d6:	b925      	cbnz	r5, 80093e2 <IIM42652_ReadMultiRegisters+0x98>
 80093d8:	464a      	mov	r2, r9
 80093da:	1c79      	adds	r1, r7, #1
 80093dc:	4640      	mov	r0, r8
 80093de:	f00c f873 	bl	80154c8 <memcpy>
 80093e2:	4630      	mov	r0, r6
 80093e4:	f00a fbdf 	bl	8013ba6 <vPortFree>
 80093e8:	4638      	mov	r0, r7
 80093ea:	f00a fbdc 	bl	8013ba6 <vPortFree>
 80093ee:	4628      	mov	r0, r5
 80093f0:	b004      	add	sp, #16
 80093f2:	e8bd 87f0 	ldmia.w	sp!, {r4, r5, r6, r7, r8, r9, sl, pc}
 80093f6:	8921      	ldrh	r1, [r4, #8]
 80093f8:	6860      	ldr	r0, [r4, #4]
 80093fa:	2200      	movs	r2, #0
 80093fc:	f003 fdc8 	bl	800cf90 <HAL_GPIO_WritePin>
 8009400:	f04f 32ff 	mov.w	r2, #4294967295
 8009404:	9200      	str	r2, [sp, #0]
 8009406:	4631      	mov	r1, r6
 8009408:	463a      	mov	r2, r7
 800940a:	9b03      	ldr	r3, [sp, #12]
 800940c:	6820      	ldr	r0, [r4, #0]
 800940e:	f006 f83d 	bl	800f48c <HAL_SPI_TransmitReceive>
 8009412:	8921      	ldrh	r1, [r4, #8]
 8009414:	4605      	mov	r5, r0
 8009416:	2201      	movs	r2, #1
 8009418:	6860      	ldr	r0, [r4, #4]
 800941a:	f003 fdb9 	bl	800cf90 <HAL_GPIO_WritePin>
 800941e:	e7da      	b.n	80093d6 <IIM42652_ReadMultiRegisters+0x8c>

08009420 <IIM42652_WriteMultiRegisters>:
 8009420:	e92d 4ff0 	stmdb	sp!, {r4, r5, r6, r7, r8, r9, sl, fp, lr}
 8009424:	b085      	sub	sp, #20
 8009426:	af02      	add	r7, sp, #8
 8009428:	469b      	mov	fp, r3
 800942a:	8e3d      	ldrh	r5, [r7, #48]	; 0x30
 800942c:	f105 0608 	add.w	r6, r5, #8
 8009430:	08f6      	lsrs	r6, r6, #3
 8009432:	466b      	mov	r3, sp
 8009434:	eba3 03c6 	sub.w	r3, r3, r6, lsl #3
 8009438:	469d      	mov	sp, r3
 800943a:	eba3 03c6 	sub.w	r3, r3, r6, lsl #3
 800943e:	f10d 0808 	add.w	r8, sp, #8
 8009442:	469d      	mov	sp, r3
 8009444:	f500 5380 	add.w	r3, r0, #4096	; 0x1000
 8009448:	468a      	mov	sl, r1
 800944a:	f893 3038 	ldrb.w	r3, [r3, #56]	; 0x38
 800944e:	4293      	cmp	r3, r2
 8009450:	4604      	mov	r4, r0
 8009452:	4611      	mov	r1, r2
 8009454:	f10d 0908 	add.w	r9, sp, #8
 8009458:	d001      	beq.n	800945e <IIM42652_WriteMultiRegisters+0x3e>
 800945a:	f7ff fdd6 	bl	800900a <IIM42652_SetRegisterBank>
 800945e:	4640      	mov	r0, r8
 8009460:	462a      	mov	r2, r5
 8009462:	4659      	mov	r1, fp
 8009464:	f800 ab01 	strb.w	sl, [r0], #1
 8009468:	f00c f82e 	bl	80154c8 <memcpy>
 800946c:	f008 fa7c 	bl	8011968 <osKernelRunning>
 8009470:	1c6b      	adds	r3, r5, #1
 8009472:	b29b      	uxth	r3, r3
 8009474:	2801      	cmp	r0, #1
 8009476:	4606      	mov	r6, r0
 8009478:	607b      	str	r3, [r7, #4]
 800947a:	d120      	bne.n	80094be <IIM42652_WriteMultiRegisters+0x9e>
 800947c:	f04f 31ff 	mov.w	r1, #4294967295
 8009480:	68e0      	ldr	r0, [r4, #12]
 8009482:	f008 fb5e 	bl	8011b42 <osSemaphoreWait>
 8009486:	8921      	ldrh	r1, [r4, #8]
 8009488:	6860      	ldr	r0, [r4, #4]
 800948a:	2200      	movs	r2, #0
 800948c:	f003 fd80 	bl	800cf90 <HAL_GPIO_WritePin>
 8009490:	f04f 32ff 	mov.w	r2, #4294967295
 8009494:	9200      	str	r2, [sp, #0]
 8009496:	687b      	ldr	r3, [r7, #4]
 8009498:	6820      	ldr	r0, [r4, #0]
 800949a:	464a      	mov	r2, r9
 800949c:	4641      	mov	r1, r8
 800949e:	f005 fff5 	bl	800f48c <HAL_SPI_TransmitReceive>
 80094a2:	8921      	ldrh	r1, [r4, #8]
 80094a4:	4605      	mov	r5, r0
 80094a6:	4632      	mov	r2, r6
 80094a8:	6860      	ldr	r0, [r4, #4]
 80094aa:	f003 fd71 	bl	800cf90 <HAL_GPIO_WritePin>
 80094ae:	68e0      	ldr	r0, [r4, #12]
 80094b0:	f008 fb6c 	bl	8011b8c <osSemaphoreRelease>
 80094b4:	4628      	mov	r0, r5
 80094b6:	370c      	adds	r7, #12
 80094b8:	46bd      	mov	sp, r7
 80094ba:	e8bd 8ff0 	ldmia.w	sp!, {r4, r5, r6, r7, r8, r9, sl, fp, pc}
 80094be:	8921      	ldrh	r1, [r4, #8]
 80094c0:	6860      	ldr	r0, [r4, #4]
 80094c2:	2200      	movs	r2, #0
 80094c4:	f003 fd64 	bl	800cf90 <HAL_GPIO_WritePin>
 80094c8:	f04f 32ff 	mov.w	r2, #4294967295
 80094cc:	9200      	str	r2, [sp, #0]
 80094ce:	4641      	mov	r1, r8
 80094d0:	464a      	mov	r2, r9
 80094d2:	687b      	ldr	r3, [r7, #4]
 80094d4:	6820      	ldr	r0, [r4, #0]
 80094d6:	f005 ffd9 	bl	800f48c <HAL_SPI_TransmitReceive>
 80094da:	8921      	ldrh	r1, [r4, #8]
 80094dc:	4605      	mov	r5, r0
 80094de:	2201      	movs	r2, #1
 80094e0:	6860      	ldr	r0, [r4, #4]
 80094e2:	f003 fd55 	bl	800cf90 <HAL_GPIO_WritePin>
 80094e6:	e7e5      	b.n	80094b4 <IIM42652_WriteMultiRegisters+0x94>

080094e8 <IIM42652_ReadMultiRegisters_DMA>:
 80094e8:	e92d 41f0 	stmdb	sp!, {r4, r5, r6, r7, r8, lr}
 80094ec:	461f      	mov	r7, r3
 80094ee:	f500 5380 	add.w	r3, r0, #4096	; 0x1000
 80094f2:	460e      	mov	r6, r1
 80094f4:	f893 3038 	ldrb.w	r3, [r3, #56]	; 0x38
 80094f8:	f8bd 5018 	ldrh.w	r5, [sp, #24]
 80094fc:	4293      	cmp	r3, r2
 80094fe:	4604      	mov	r4, r0
 8009500:	4611      	mov	r1, r2
 8009502:	d001      	beq.n	8009508 <IIM42652_ReadMultiRegisters_DMA+0x20>
 8009504:	f7ff fd81 	bl	800900a <IIM42652_SetRegisterBank>
 8009508:	f066 067f 	orn	r6, r6, #127	; 0x7f
 800950c:	74e6      	strb	r6, [r4, #19]
 800950e:	f008 fa2b 	bl	8011968 <osKernelRunning>
 8009512:	2801      	cmp	r0, #1
 8009514:	4606      	mov	r6, r0
 8009516:	d11f      	bne.n	8009558 <IIM42652_ReadMultiRegisters_DMA+0x70>
 8009518:	68e0      	ldr	r0, [r4, #12]
 800951a:	f04f 31ff 	mov.w	r1, #4294967295
 800951e:	f008 fb10 	bl	8011b42 <osSemaphoreWait>
 8009522:	4602      	mov	r2, r0
 8009524:	bb38      	cbnz	r0, 8009576 <IIM42652_ReadMultiRegisters_DMA+0x8e>
 8009526:	8921      	ldrh	r1, [r4, #8]
 8009528:	6860      	ldr	r0, [r4, #4]
 800952a:	f003 fd31 	bl	800cf90 <HAL_GPIO_WritePin>
 800952e:	1c6b      	adds	r3, r5, #1
 8009530:	6820      	ldr	r0, [r4, #0]
 8009532:	b29b      	uxth	r3, r3
 8009534:	463a      	mov	r2, r7
 8009536:	f104 0113 	add.w	r1, r4, #19
 800953a:	f006 f89b 	bl	800f674 <HAL_SPI_TransmitReceive_DMA>
 800953e:	4605      	mov	r5, r0
 8009540:	b138      	cbz	r0, 8009552 <IIM42652_ReadMultiRegisters_DMA+0x6a>
 8009542:	6860      	ldr	r0, [r4, #4]
 8009544:	8921      	ldrh	r1, [r4, #8]
 8009546:	4632      	mov	r2, r6
 8009548:	f003 fd22 	bl	800cf90 <HAL_GPIO_WritePin>
 800954c:	68e0      	ldr	r0, [r4, #12]
 800954e:	f008 fb1d 	bl	8011b8c <osSemaphoreRelease>
 8009552:	4628      	mov	r0, r5
 8009554:	e8bd 81f0 	ldmia.w	sp!, {r4, r5, r6, r7, r8, pc}
 8009558:	8921      	ldrh	r1, [r4, #8]
 800955a:	6860      	ldr	r0, [r4, #4]
 800955c:	2200      	movs	r2, #0
 800955e:	3501      	adds	r5, #1
 8009560:	f003 fd16 	bl	800cf90 <HAL_GPIO_WritePin>
 8009564:	6820      	ldr	r0, [r4, #0]
 8009566:	b2ab      	uxth	r3, r5
 8009568:	463a      	mov	r2, r7
 800956a:	f104 0113 	add.w	r1, r4, #19
 800956e:	e8bd 41f0 	ldmia.w	sp!, {r4, r5, r6, r7, r8, lr}
 8009572:	f006 b87f 	b.w	800f674 <HAL_SPI_TransmitReceive_DMA>
 8009576:	4635      	mov	r5, r6
 8009578:	e7eb      	b.n	8009552 <IIM42652_ReadMultiRegisters_DMA+0x6a>

0800957a <IIM42652_SetIntType>:
 800957a:	2901      	cmp	r1, #1
 800957c:	b573      	push	{r0, r1, r4, r5, r6, lr}
 800957e:	4606      	mov	r6, r0
 8009580:	4615      	mov	r5, r2
 8009582:	d10d      	bne.n	80095a0 <IIM42652_SetIntType+0x26>
 8009584:	e9cd 1200 	strd	r1, r2, [sp]
 8009588:	2302      	movs	r3, #2
 800958a:	2200      	movs	r2, #0
 800958c:	2114      	movs	r1, #20
 800958e:	f7ff fe0a 	bl	80091a6 <IIM42652_WriteRegisterBits>
 8009592:	4604      	mov	r4, r0
 8009594:	2001      	movs	r0, #1
 8009596:	f008 fa16 	bl	80119c6 <osDelay>
 800959a:	4620      	mov	r0, r4
 800959c:	b002      	add	sp, #8
 800959e:	bd70      	pop	{r4, r5, r6, pc}
 80095a0:	2902      	cmp	r1, #2
 80095a2:	f04f 0401 	mov.w	r4, #1
 80095a6:	d103      	bne.n	80095b0 <IIM42652_SetIntType+0x36>
 80095a8:	e9cd 4200 	strd	r4, r2, [sp]
 80095ac:	2305      	movs	r3, #5
 80095ae:	e7ec      	b.n	800958a <IIM42652_SetIntType+0x10>
 80095b0:	2903      	cmp	r1, #3
 80095b2:	d1ef      	bne.n	8009594 <IIM42652_SetIntType+0x1a>
 80095b4:	e9cd 4200 	strd	r4, r2, [sp]
 80095b8:	2302      	movs	r3, #2
 80095ba:	2200      	movs	r2, #0
 80095bc:	2114      	movs	r1, #20
 80095be:	f7ff fdf2 	bl	80091a6 <IIM42652_WriteRegisterBits>
 80095c2:	e9cd 4500 	strd	r4, r5, [sp]
 80095c6:	2305      	movs	r3, #5
 80095c8:	2200      	movs	r2, #0
 80095ca:	2114      	movs	r1, #20
 80095cc:	4630      	mov	r0, r6
 80095ce:	e7de      	b.n	800958e <IIM42652_SetIntType+0x14>

080095d0 <IIM42652_SetIntCircuit>:
 80095d0:	2901      	cmp	r1, #1
 80095d2:	b573      	push	{r0, r1, r4, r5, r6, lr}
 80095d4:	460b      	mov	r3, r1
 80095d6:	4606      	mov	r6, r0
 80095d8:	4615      	mov	r5, r2
 80095da:	d10c      	bne.n	80095f6 <IIM42652_SetIntCircuit+0x26>
 80095dc:	e9cd 1200 	strd	r1, r2, [sp]
 80095e0:	2200      	movs	r2, #0
 80095e2:	2114      	movs	r1, #20
 80095e4:	f7ff fddf 	bl	80091a6 <IIM42652_WriteRegisterBits>
 80095e8:	4604      	mov	r4, r0
 80095ea:	2001      	movs	r0, #1
 80095ec:	f008 f9eb 	bl	80119c6 <osDelay>
 80095f0:	4620      	mov	r0, r4
 80095f2:	b002      	add	sp, #8
 80095f4:	bd70      	pop	{r4, r5, r6, pc}
 80095f6:	2902      	cmp	r1, #2
 80095f8:	f04f 0401 	mov.w	r4, #1
 80095fc:	d103      	bne.n	8009606 <IIM42652_SetIntCircuit+0x36>
 80095fe:	e9cd 4200 	strd	r4, r2, [sp]
 8009602:	2304      	movs	r3, #4
 8009604:	e7ec      	b.n	80095e0 <IIM42652_SetIntCircuit+0x10>
 8009606:	2903      	cmp	r1, #3
 8009608:	d1ef      	bne.n	80095ea <IIM42652_SetIntCircuit+0x1a>
 800960a:	e9cd 4200 	strd	r4, r2, [sp]
 800960e:	4623      	mov	r3, r4
 8009610:	2200      	movs	r2, #0
 8009612:	2114      	movs	r1, #20
 8009614:	f7ff fdc7 	bl	80091a6 <IIM42652_WriteRegisterBits>
 8009618:	e9cd 4500 	strd	r4, r5, [sp]
 800961c:	2304      	movs	r3, #4
 800961e:	2200      	movs	r2, #0
 8009620:	2114      	movs	r1, #20
 8009622:	4630      	mov	r0, r6
 8009624:	e7de      	b.n	80095e4 <IIM42652_SetIntCircuit+0x14>

08009626 <IIM42652_SetIntPolarity>:
 8009626:	2901      	cmp	r1, #1
 8009628:	b5f7      	push	{r0, r1, r2, r4, r5, r6, r7, lr}
 800962a:	4607      	mov	r7, r0
 800962c:	460d      	mov	r5, r1
 800962e:	4616      	mov	r6, r2
 8009630:	d10d      	bne.n	800964e <IIM42652_SetIntPolarity+0x28>
 8009632:	e9cd 1200 	strd	r1, r2, [sp]
 8009636:	2300      	movs	r3, #0
 8009638:	2200      	movs	r2, #0
 800963a:	2114      	movs	r1, #20
 800963c:	f7ff fdb3 	bl	80091a6 <IIM42652_WriteRegisterBits>
 8009640:	4604      	mov	r4, r0
 8009642:	2001      	movs	r0, #1
 8009644:	f008 f9bf 	bl	80119c6 <osDelay>
 8009648:	4620      	mov	r0, r4
 800964a:	b003      	add	sp, #12
 800964c:	bdf0      	pop	{r4, r5, r6, r7, pc}
 800964e:	2902      	cmp	r1, #2
 8009650:	f04f 0401 	mov.w	r4, #1
 8009654:	d103      	bne.n	800965e <IIM42652_SetIntPolarity+0x38>
 8009656:	e9cd 4200 	strd	r4, r2, [sp]
 800965a:	2303      	movs	r3, #3
 800965c:	e7ec      	b.n	8009638 <IIM42652_SetIntPolarity+0x12>
 800965e:	2903      	cmp	r1, #3
 8009660:	d1ef      	bne.n	8009642 <IIM42652_SetIntPolarity+0x1c>
 8009662:	2300      	movs	r3, #0
 8009664:	e9cd 4200 	strd	r4, r2, [sp]
 8009668:	2114      	movs	r1, #20
 800966a:	461a      	mov	r2, r3
 800966c:	f7ff fd9b 	bl	80091a6 <IIM42652_WriteRegisterBits>
 8009670:	e9cd 4600 	strd	r4, r6, [sp]
 8009674:	462b      	mov	r3, r5
 8009676:	2200      	movs	r2, #0
 8009678:	2114      	movs	r1, #20
 800967a:	4638      	mov	r0, r7
 800967c:	e7de      	b.n	800963c <IIM42652_SetIntPolarity+0x16>

0800967e <IIM42652_SetFIFOMode>:
 800967e:	b513      	push	{r0, r1, r4, lr}
 8009680:	2302      	movs	r3, #2
 8009682:	9101      	str	r1, [sp, #4]
 8009684:	9300      	str	r3, [sp, #0]
 8009686:	2200      	movs	r2, #0
 8009688:	2307      	movs	r3, #7
 800968a:	2116      	movs	r1, #22
 800968c:	f7ff fd8b 	bl	80091a6 <IIM42652_WriteRegisterBits>
 8009690:	4604      	mov	r4, r0
 8009692:	2001      	movs	r0, #1
 8009694:	f008 f997 	bl	80119c6 <osDelay>
 8009698:	4620      	mov	r0, r4
 800969a:	b002      	add	sp, #8
 800969c:	bd10      	pop	{r4, pc}

0800969e <IIM42652_SetFIFOCountMode>:
 800969e:	b537      	push	{r0, r1, r2, r4, r5, lr}
 80096a0:	2501      	movs	r5, #1
 80096a2:	9101      	str	r1, [sp, #4]
 80096a4:	2306      	movs	r3, #6
 80096a6:	2200      	movs	r2, #0
 80096a8:	214c      	movs	r1, #76	; 0x4c
 80096aa:	9500      	str	r5, [sp, #0]
 80096ac:	f7ff fd7b 	bl	80091a6 <IIM42652_WriteRegisterBits>
 80096b0:	4604      	mov	r4, r0
 80096b2:	4628      	mov	r0, r5
 80096b4:	f008 f987 	bl	80119c6 <osDelay>
 80096b8:	4620      	mov	r0, r4
 80096ba:	b003      	add	sp, #12
 80096bc:	bd30      	pop	{r4, r5, pc}

080096be <IIM42652_SetFIFOHoldLastValidData_Enable>:
 80096be:	b537      	push	{r0, r1, r2, r4, r5, lr}
 80096c0:	2501      	movs	r5, #1
 80096c2:	9101      	str	r1, [sp, #4]
 80096c4:	2307      	movs	r3, #7
 80096c6:	2200      	movs	r2, #0
 80096c8:	214c      	movs	r1, #76	; 0x4c
 80096ca:	9500      	str	r5, [sp, #0]
 80096cc:	f7ff fd6b 	bl	80091a6 <IIM42652_WriteRegisterBits>
 80096d0:	4604      	mov	r4, r0
 80096d2:	4628      	mov	r0, r5
 80096d4:	f008 f977 	bl	80119c6 <osDelay>
 80096d8:	4620      	mov	r0, r4
 80096da:	b003      	add	sp, #12
 80096dc:	bd30      	pop	{r4, r5, pc}

080096de <IIM42652_SetFIFOIntThreshold_Enable>:
 80096de:	b537      	push	{r0, r1, r2, r4, r5, lr}
 80096e0:	2501      	movs	r5, #1
 80096e2:	9101      	str	r1, [sp, #4]
 80096e4:	2305      	movs	r3, #5
 80096e6:	2200      	movs	r2, #0
 80096e8:	215f      	movs	r1, #95	; 0x5f
 80096ea:	9500      	str	r5, [sp, #0]
 80096ec:	f7ff fd5b 	bl	80091a6 <IIM42652_WriteRegisterBits>
 80096f0:	4604      	mov	r4, r0
 80096f2:	4628      	mov	r0, r5
 80096f4:	f008 f967 	bl	80119c6 <osDelay>
 80096f8:	4620      	mov	r0, r4
 80096fa:	b003      	add	sp, #12
 80096fc:	bd30      	pop	{r4, r5, pc}

080096fe <IIM42652_SetFIFOStore_Accel>:
 80096fe:	b537      	push	{r0, r1, r2, r4, r5, lr}
 8009700:	2300      	movs	r3, #0
 8009702:	2501      	movs	r5, #1
 8009704:	9101      	str	r1, [sp, #4]
 8009706:	461a      	mov	r2, r3
 8009708:	215f      	movs	r1, #95	; 0x5f
 800970a:	9500      	str	r5, [sp, #0]
 800970c:	f7ff fd4b 	bl	80091a6 <IIM42652_WriteRegisterBits>
 8009710:	4604      	mov	r4, r0
 8009712:	4628      	mov	r0, r5
 8009714:	f008 f957 	bl	80119c6 <osDelay>
 8009718:	4620      	mov	r0, r4
 800971a:	b003      	add	sp, #12
 800971c:	bd30      	pop	{r4, r5, pc}

0800971e <IIM42652_SetFIFOStore_Gyro>:
 800971e:	b537      	push	{r0, r1, r2, r4, r5, lr}
 8009720:	2501      	movs	r5, #1
 8009722:	9101      	str	r1, [sp, #4]
 8009724:	462b      	mov	r3, r5
 8009726:	2200      	movs	r2, #0
 8009728:	215f      	movs	r1, #95	; 0x5f
 800972a:	9500      	str	r5, [sp, #0]
 800972c:	f7ff fd3b 	bl	80091a6 <IIM42652_WriteRegisterBits>
 8009730:	4604      	mov	r4, r0
 8009732:	4628      	mov	r0, r5
 8009734:	f008 f947 	bl	80119c6 <osDelay>
 8009738:	4620      	mov	r0, r4
 800973a:	b003      	add	sp, #12
 800973c:	bd30      	pop	{r4, r5, pc}

0800973e <IIM42652_SetFIFOStore_Temperature>:
 800973e:	b537      	push	{r0, r1, r2, r4, r5, lr}
 8009740:	2501      	movs	r5, #1
 8009742:	9101      	str	r1, [sp, #4]
 8009744:	2302      	movs	r3, #2
 8009746:	2200      	movs	r2, #0
 8009748:	215f      	movs	r1, #95	; 0x5f
 800974a:	9500      	str	r5, [sp, #0]
 800974c:	f7ff fd2b 	bl	80091a6 <IIM42652_WriteRegisterBits>
 8009750:	4604      	mov	r4, r0
 8009752:	4628      	mov	r0, r5
 8009754:	f008 f937 	bl	80119c6 <osDelay>
 8009758:	4620      	mov	r0, r4
 800975a:	b003      	add	sp, #12
 800975c:	bd30      	pop	{r4, r5, pc}

0800975e <IIM42652_SetFIFOIntThreshold_Point>:
 800975e:	b51f      	push	{r0, r1, r2, r3, r4, lr}
 8009760:	2302      	movs	r3, #2
 8009762:	f88d 100c 	strb.w	r1, [sp, #12]
 8009766:	0a09      	lsrs	r1, r1, #8
 8009768:	f88d 100d 	strb.w	r1, [sp, #13]
 800976c:	9300      	str	r3, [sp, #0]
 800976e:	2200      	movs	r2, #0
 8009770:	ab03      	add	r3, sp, #12
 8009772:	2160      	movs	r1, #96	; 0x60
 8009774:	f7ff fe54 	bl	8009420 <IIM42652_WriteMultiRegisters>
 8009778:	4604      	mov	r4, r0
 800977a:	2001      	movs	r0, #1
 800977c:	f008 f923 	bl	80119c6 <osDelay>
 8009780:	4620      	mov	r0, r4
 8009782:	b004      	add	sp, #16
 8009784:	bd10      	pop	{r4, pc}

08009786 <IIM42652_SetIntPulsDuration>:
 8009786:	b537      	push	{r0, r1, r2, r4, r5, lr}
 8009788:	2501      	movs	r5, #1
 800978a:	9101      	str	r1, [sp, #4]
 800978c:	2306      	movs	r3, #6
 800978e:	2200      	movs	r2, #0
 8009790:	2164      	movs	r1, #100	; 0x64
 8009792:	9500      	str	r5, [sp, #0]
 8009794:	f7ff fd07 	bl	80091a6 <IIM42652_WriteRegisterBits>
 8009798:	4604      	mov	r4, r0
 800979a:	4628      	mov	r0, r5
 800979c:	f008 f913 	bl	80119c6 <osDelay>
 80097a0:	4620      	mov	r0, r4
 80097a2:	b003      	add	sp, #12
 80097a4:	bd30      	pop	{r4, r5, pc}

080097a6 <IIM42652_SetIntPulsDeassert>:
 80097a6:	b537      	push	{r0, r1, r2, r4, r5, lr}
 80097a8:	fab1 f181 	clz	r1, r1
 80097ac:	2501      	movs	r5, #1
 80097ae:	0949      	lsrs	r1, r1, #5
 80097b0:	9101      	str	r1, [sp, #4]
 80097b2:	2305      	movs	r3, #5
 80097b4:	2200      	movs	r2, #0
 80097b6:	2164      	movs	r1, #100	; 0x64
 80097b8:	9500      	str	r5, [sp, #0]
 80097ba:	f7ff fcf4 	bl	80091a6 <IIM42652_WriteRegisterBits>
 80097be:	4604      	mov	r4, r0
 80097c0:	4628      	mov	r0, r5
 80097c2:	f008 f900 	bl	80119c6 <osDelay>
 80097c6:	4620      	mov	r0, r4
 80097c8:	b003      	add	sp, #12
 80097ca:	bd30      	pop	{r4, r5, pc}

080097cc <IIM42652_SetIntPulsAsyncReset>:
 80097cc:	b537      	push	{r0, r1, r2, r4, r5, lr}
 80097ce:	fab1 f181 	clz	r1, r1
 80097d2:	2501      	movs	r5, #1
 80097d4:	0949      	lsrs	r1, r1, #5
 80097d6:	9101      	str	r1, [sp, #4]
 80097d8:	2304      	movs	r3, #4
 80097da:	2200      	movs	r2, #0
 80097dc:	2164      	movs	r1, #100	; 0x64
 80097de:	9500      	str	r5, [sp, #0]
 80097e0:	f7ff fce1 	bl	80091a6 <IIM42652_WriteRegisterBits>
 80097e4:	4604      	mov	r4, r0
 80097e6:	4628      	mov	r0, r5
 80097e8:	f008 f8ed 	bl	80119c6 <osDelay>
 80097ec:	4620      	mov	r0, r4
 80097ee:	b003      	add	sp, #12
 80097f0:	bd30      	pop	{r4, r5, pc}

080097f2 <IIM42652_SetIntSource>:
 80097f2:	b5f0      	push	{r4, r5, r6, r7, lr}
 80097f4:	2901      	cmp	r1, #1
 80097f6:	b085      	sub	sp, #20
 80097f8:	4607      	mov	r7, r0
 80097fa:	4615      	mov	r5, r2
 80097fc:	461e      	mov	r6, r3
 80097fe:	d117      	bne.n	8009830 <IIM42652_SetIntSource+0x3e>
 8009800:	2a06      	cmp	r2, #6
 8009802:	d80d      	bhi.n	8009820 <IIM42652_SetIntSource+0x2e>
 8009804:	e9cd 1300 	strd	r1, r3, [sp]
 8009808:	4613      	mov	r3, r2
 800980a:	2165      	movs	r1, #101	; 0x65
 800980c:	2200      	movs	r2, #0
 800980e:	f7ff fcca 	bl	80091a6 <IIM42652_WriteRegisterBits>
 8009812:	4604      	mov	r4, r0
 8009814:	2001      	movs	r0, #1
 8009816:	f008 f8d6 	bl	80119c6 <osDelay>
 800981a:	4620      	mov	r0, r4
 800981c:	b005      	add	sp, #20
 800981e:	bdf0      	pop	{r4, r5, r6, r7, pc}
 8009820:	f1a2 0508 	sub.w	r5, r2, #8
 8009824:	e9cd 1300 	strd	r1, r3, [sp]
 8009828:	2200      	movs	r2, #0
 800982a:	b2eb      	uxtb	r3, r5
 800982c:	2166      	movs	r1, #102	; 0x66
 800982e:	e7ee      	b.n	800980e <IIM42652_SetIntSource+0x1c>
 8009830:	2902      	cmp	r1, #2
 8009832:	f04f 0401 	mov.w	r4, #1
 8009836:	d10f      	bne.n	8009858 <IIM42652_SetIntSource+0x66>
 8009838:	2a06      	cmp	r2, #6
 800983a:	d805      	bhi.n	8009848 <IIM42652_SetIntSource+0x56>
 800983c:	e9cd 4300 	strd	r4, r3, [sp]
 8009840:	2168      	movs	r1, #104	; 0x68
 8009842:	4613      	mov	r3, r2
 8009844:	2200      	movs	r2, #0
 8009846:	e7e2      	b.n	800980e <IIM42652_SetIntSource+0x1c>
 8009848:	f1a2 0508 	sub.w	r5, r2, #8
 800984c:	e9cd 4300 	strd	r4, r3, [sp]
 8009850:	2200      	movs	r2, #0
 8009852:	b2eb      	uxtb	r3, r5
 8009854:	2169      	movs	r1, #105	; 0x69
 8009856:	e7da      	b.n	800980e <IIM42652_SetIntSource+0x1c>
 8009858:	2903      	cmp	r1, #3
 800985a:	d1db      	bne.n	8009814 <IIM42652_SetIntSource+0x22>
 800985c:	2a06      	cmp	r2, #6
 800985e:	d80d      	bhi.n	800987c <IIM42652_SetIntSource+0x8a>
 8009860:	e9cd 4300 	strd	r4, r3, [sp]
 8009864:	2165      	movs	r1, #101	; 0x65
 8009866:	4613      	mov	r3, r2
 8009868:	2200      	movs	r2, #0
 800986a:	f7ff fc9c 	bl	80091a6 <IIM42652_WriteRegisterBits>
 800986e:	e9cd 4600 	strd	r4, r6, [sp]
 8009872:	462b      	mov	r3, r5
 8009874:	2200      	movs	r2, #0
 8009876:	2168      	movs	r1, #104	; 0x68
 8009878:	4638      	mov	r0, r7
 800987a:	e7c8      	b.n	800980e <IIM42652_SetIntSource+0x1c>
 800987c:	f1a2 0508 	sub.w	r5, r2, #8
 8009880:	b2eb      	uxtb	r3, r5
 8009882:	2200      	movs	r2, #0
 8009884:	2166      	movs	r1, #102	; 0x66
 8009886:	e9cd 4600 	strd	r4, r6, [sp]
 800988a:	9303      	str	r3, [sp, #12]
 800988c:	f7ff fc8b 	bl	80091a6 <IIM42652_WriteRegisterBits>
 8009890:	e9cd 4600 	strd	r4, r6, [sp]
 8009894:	9b03      	ldr	r3, [sp, #12]
 8009896:	2200      	movs	r2, #0
 8009898:	2169      	movs	r1, #105	; 0x69
 800989a:	e7ed      	b.n	8009878 <IIM42652_SetIntSource+0x86>

0800989c <IIM42652_GetWomXTh>:
 800989c:	460b      	mov	r3, r1
 800989e:	2204      	movs	r2, #4
 80098a0:	214a      	movs	r1, #74	; 0x4a
 80098a2:	f7ff bc0d 	b.w	80090c0 <IIM42652_ReadRegister>

080098a6 <IIM42652_SetWomXTh>:
 80098a6:	b537      	push	{r0, r1, r2, r4, r5, lr}
 80098a8:	460b      	mov	r3, r1
 80098aa:	2204      	movs	r2, #4
 80098ac:	214a      	movs	r1, #74	; 0x4a
 80098ae:	4605      	mov	r5, r0
 80098b0:	f7ff fcf9 	bl	80092a6 <IIM42652_WriteRegister>
 80098b4:	f10d 0107 	add.w	r1, sp, #7
 80098b8:	4604      	mov	r4, r0
 80098ba:	4628      	mov	r0, r5
 80098bc:	f7ff ffee 	bl	800989c <IIM42652_GetWomXTh>
 80098c0:	2001      	movs	r0, #1
 80098c2:	f008 f880 	bl	80119c6 <osDelay>
 80098c6:	4620      	mov	r0, r4
 80098c8:	b003      	add	sp, #12
 80098ca:	bd30      	pop	{r4, r5, pc}

080098cc <IIM42652_GetWomYTh>:
 80098cc:	460b      	mov	r3, r1
 80098ce:	2204      	movs	r2, #4
 80098d0:	214b      	movs	r1, #75	; 0x4b
 80098d2:	f7ff bbf5 	b.w	80090c0 <IIM42652_ReadRegister>

080098d6 <IIM42652_SetWomYTh>:
 80098d6:	b537      	push	{r0, r1, r2, r4, r5, lr}
 80098d8:	460b      	mov	r3, r1
 80098da:	2204      	movs	r2, #4
 80098dc:	214b      	movs	r1, #75	; 0x4b
 80098de:	4605      	mov	r5, r0
 80098e0:	f7ff fce1 	bl	80092a6 <IIM42652_WriteRegister>
 80098e4:	f10d 0107 	add.w	r1, sp, #7
 80098e8:	4604      	mov	r4, r0
 80098ea:	4628      	mov	r0, r5
 80098ec:	f7ff ffee 	bl	80098cc <IIM42652_GetWomYTh>
 80098f0:	2001      	movs	r0, #1
 80098f2:	f008 f868 	bl	80119c6 <osDelay>
 80098f6:	4620      	mov	r0, r4
 80098f8:	b003      	add	sp, #12
 80098fa:	bd30      	pop	{r4, r5, pc}

080098fc <IIM42652_GetWomZTh>:
 80098fc:	460b      	mov	r3, r1
 80098fe:	2204      	movs	r2, #4
 8009900:	214c      	movs	r1, #76	; 0x4c
 8009902:	f7ff bbdd 	b.w	80090c0 <IIM42652_ReadRegister>

08009906 <IIM42652_SetWomZTh>:
 8009906:	b537      	push	{r0, r1, r2, r4, r5, lr}
 8009908:	460b      	mov	r3, r1
 800990a:	2204      	movs	r2, #4
 800990c:	214c      	movs	r1, #76	; 0x4c
 800990e:	4605      	mov	r5, r0
 8009910:	f7ff fcc9 	bl	80092a6 <IIM42652_WriteRegister>
 8009914:	f10d 0107 	add.w	r1, sp, #7
 8009918:	4604      	mov	r4, r0
 800991a:	4628      	mov	r0, r5
 800991c:	f7ff ffee 	bl	80098fc <IIM42652_GetWomZTh>
 8009920:	2001      	movs	r0, #1
 8009922:	f008 f850 	bl	80119c6 <osDelay>
 8009926:	4620      	mov	r0, r4
 8009928:	b003      	add	sp, #12
 800992a:	bd30      	pop	{r4, r5, pc}

0800992c <IIM42652_SetWOMIntMode>:
 800992c:	b507      	push	{r0, r1, r2, lr}
 800992e:	2301      	movs	r3, #1
 8009930:	9101      	str	r1, [sp, #4]
 8009932:	9300      	str	r3, [sp, #0]
 8009934:	2200      	movs	r2, #0
 8009936:	2303      	movs	r3, #3
 8009938:	2157      	movs	r1, #87	; 0x57
 800993a:	f7ff fc34 	bl	80091a6 <IIM42652_WriteRegisterBits>
 800993e:	b003      	add	sp, #12
 8009940:	f85d fb04 	ldr.w	pc, [sp], #4

08009944 <IIM42652_GetWOMIntMode>:
 8009944:	b507      	push	{r0, r1, r2, lr}
 8009946:	2301      	movs	r3, #1
 8009948:	9101      	str	r1, [sp, #4]
 800994a:	9300      	str	r3, [sp, #0]
 800994c:	2200      	movs	r2, #0
 800994e:	2303      	movs	r3, #3
 8009950:	2157      	movs	r1, #87	; 0x57
 8009952:	f7ff fc06 	bl	8009162 <IIM42652_ReadRegisterBits>
 8009956:	b003      	add	sp, #12
 8009958:	f85d fb04 	ldr.w	pc, [sp], #4

0800995c <IIM42652_SetWOMMode>:
 800995c:	b507      	push	{r0, r1, r2, lr}
 800995e:	2301      	movs	r3, #1
 8009960:	9101      	str	r1, [sp, #4]
 8009962:	9300      	str	r3, [sp, #0]
 8009964:	2200      	movs	r2, #0
 8009966:	2302      	movs	r3, #2
 8009968:	2157      	movs	r1, #87	; 0x57
 800996a:	f7ff fc1c 	bl	80091a6 <IIM42652_WriteRegisterBits>
 800996e:	b003      	add	sp, #12
 8009970:	f85d fb04 	ldr.w	pc, [sp], #4

08009974 <IIM42652_GetWOMMode>:
 8009974:	b507      	push	{r0, r1, r2, lr}
 8009976:	2301      	movs	r3, #1
 8009978:	9101      	str	r1, [sp, #4]
 800997a:	9300      	str	r3, [sp, #0]
 800997c:	2200      	movs	r2, #0
 800997e:	2302      	movs	r3, #2
 8009980:	2157      	movs	r1, #87	; 0x57
 8009982:	f7ff fbee 	bl	8009162 <IIM42652_ReadRegisterBits>
 8009986:	b003      	add	sp, #12
 8009988:	f85d fb04 	ldr.w	pc, [sp], #4

0800998c <IIM42652_SetSMDMode>:
 800998c:	b507      	push	{r0, r1, r2, lr}
 800998e:	2302      	movs	r3, #2
 8009990:	9101      	str	r1, [sp, #4]
 8009992:	9300      	str	r3, [sp, #0]
 8009994:	2200      	movs	r2, #0
 8009996:	2301      	movs	r3, #1
 8009998:	2157      	movs	r1, #87	; 0x57
 800999a:	f7ff fc04 	bl	80091a6 <IIM42652_WriteRegisterBits>
 800999e:	b003      	add	sp, #12
 80099a0:	f85d fb04 	ldr.w	pc, [sp], #4

080099a4 <IIM42652_GetSMDMode>:
 80099a4:	b507      	push	{r0, r1, r2, lr}
 80099a6:	2302      	movs	r3, #2
 80099a8:	9101      	str	r1, [sp, #4]
 80099aa:	9300      	str	r3, [sp, #0]
 80099ac:	2200      	movs	r2, #0
 80099ae:	2301      	movs	r3, #1
 80099b0:	2157      	movs	r1, #87	; 0x57
 80099b2:	f7ff fbd6 	bl	8009162 <IIM42652_ReadRegisterBits>
 80099b6:	b003      	add	sp, #12
 80099b8:	f85d fb04 	ldr.w	pc, [sp], #4

080099bc <IIM42652_SetAccelMode>:
 80099bc:	b513      	push	{r0, r1, r4, lr}
 80099be:	2302      	movs	r3, #2
 80099c0:	9101      	str	r1, [sp, #4]
 80099c2:	9300      	str	r3, [sp, #0]
 80099c4:	2200      	movs	r2, #0
 80099c6:	2301      	movs	r3, #1
 80099c8:	214e      	movs	r1, #78	; 0x4e
 80099ca:	f7ff fbec 	bl	80091a6 <IIM42652_WriteRegisterBits>
 80099ce:	4604      	mov	r4, r0
 80099d0:	f007 ffca 	bl	8011968 <osKernelRunning>
 80099d4:	2801      	cmp	r0, #1
 80099d6:	d104      	bne.n	80099e2 <IIM42652_SetAccelMode+0x26>
 80099d8:	f007 fff5 	bl	80119c6 <osDelay>
 80099dc:	4620      	mov	r0, r4
 80099de:	b002      	add	sp, #8
 80099e0:	bd10      	pop	{r4, pc}
 80099e2:	2001      	movs	r0, #1
 80099e4:	f002 fe3c 	bl	800c660 <HAL_Delay>
 80099e8:	e7f8      	b.n	80099dc <IIM42652_SetAccelMode+0x20>

080099ea <IIM42652_SetGyroMode>:
 80099ea:	b513      	push	{r0, r1, r4, lr}
 80099ec:	2302      	movs	r3, #2
 80099ee:	9101      	str	r1, [sp, #4]
 80099f0:	9300      	str	r3, [sp, #0]
 80099f2:	2200      	movs	r2, #0
 80099f4:	2303      	movs	r3, #3
 80099f6:	214e      	movs	r1, #78	; 0x4e
 80099f8:	f7ff fbd5 	bl	80091a6 <IIM42652_WriteRegisterBits>
 80099fc:	4604      	mov	r4, r0
 80099fe:	f007 ffb3 	bl	8011968 <osKernelRunning>
 8009a02:	2801      	cmp	r0, #1
 8009a04:	d104      	bne.n	8009a10 <IIM42652_SetGyroMode+0x26>
 8009a06:	f007 ffde 	bl	80119c6 <osDelay>
 8009a0a:	4620      	mov	r0, r4
 8009a0c:	b002      	add	sp, #8
 8009a0e:	bd10      	pop	{r4, pc}
 8009a10:	2001      	movs	r0, #1
 8009a12:	f002 fe25 	bl	800c660 <HAL_Delay>
 8009a16:	e7f8      	b.n	8009a0a <IIM42652_SetGyroMode+0x20>

08009a18 <IIM42652_SetTempMode>:
 8009a18:	b537      	push	{r0, r1, r2, r4, r5, lr}
 8009a1a:	fab1 f181 	clz	r1, r1
 8009a1e:	0949      	lsrs	r1, r1, #5
 8009a20:	2501      	movs	r5, #1
 8009a22:	9101      	str	r1, [sp, #4]
 8009a24:	2305      	movs	r3, #5
 8009a26:	2200      	movs	r2, #0
 8009a28:	214e      	movs	r1, #78	; 0x4e
 8009a2a:	9500      	str	r5, [sp, #0]
 8009a2c:	f7ff fbbb 	bl	80091a6 <IIM42652_WriteRegisterBits>
 8009a30:	4604      	mov	r4, r0
 8009a32:	f007 ff99 	bl	8011968 <osKernelRunning>
 8009a36:	42a8      	cmp	r0, r5
 8009a38:	d104      	bne.n	8009a44 <IIM42652_SetTempMode+0x2c>
 8009a3a:	f007 ffc4 	bl	80119c6 <osDelay>
 8009a3e:	4620      	mov	r0, r4
 8009a40:	b003      	add	sp, #12
 8009a42:	bd30      	pop	{r4, r5, pc}
 8009a44:	4628      	mov	r0, r5
 8009a46:	f002 fe0b 	bl	800c660 <HAL_Delay>
 8009a4a:	e7f8      	b.n	8009a3e <IIM42652_SetTempMode+0x26>

08009a4c <__IMU_TURN_ON>:
 8009a4c:	b510      	push	{r4, lr}
 8009a4e:	2103      	movs	r1, #3
 8009a50:	4604      	mov	r4, r0
 8009a52:	f7ff ffb3 	bl	80099bc <IIM42652_SetAccelMode>
 8009a56:	2103      	movs	r1, #3
 8009a58:	4620      	mov	r0, r4
 8009a5a:	f7ff ffc6 	bl	80099ea <IIM42652_SetGyroMode>
 8009a5e:	4620      	mov	r0, r4
 8009a60:	2101      	movs	r1, #1
 8009a62:	e8bd 4010 	ldmia.w	sp!, {r4, lr}
 8009a66:	f7ff bfd7 	b.w	8009a18 <IIM42652_SetTempMode>

08009a6a <__IMU_TURN_OFF>:
 8009a6a:	b510      	push	{r4, lr}
 8009a6c:	2100      	movs	r1, #0
 8009a6e:	4604      	mov	r4, r0
 8009a70:	f7ff ffa4 	bl	80099bc <IIM42652_SetAccelMode>
 8009a74:	2100      	movs	r1, #0
 8009a76:	4620      	mov	r0, r4
 8009a78:	f7ff ffb7 	bl	80099ea <IIM42652_SetGyroMode>
 8009a7c:	4620      	mov	r0, r4
 8009a7e:	2100      	movs	r1, #0
 8009a80:	e8bd 4010 	ldmia.w	sp!, {r4, lr}
 8009a84:	f7ff bfc8 	b.w	8009a18 <IIM42652_SetTempMode>

08009a88 <IIM42652_GetAccelAafBW>:
 8009a88:	b51f      	push	{r0, r1, r2, r3, r4, lr}
 8009a8a:	2103      	movs	r1, #3
 8009a8c:	9100      	str	r1, [sp, #0]
 8009a8e:	ab03      	add	r3, sp, #12
 8009a90:	2202      	movs	r2, #2
 8009a92:	f7ff fc5a 	bl	800934a <IIM42652_ReadMultiRegisters>
 8009a96:	b005      	add	sp, #20
 8009a98:	f85d fb04 	ldr.w	pc, [sp], #4

08009a9c <IIM42652_GetGyroFSR>:
 8009a9c:	b507      	push	{r0, r1, r2, lr}
 8009a9e:	2303      	movs	r3, #3
 8009aa0:	9101      	str	r1, [sp, #4]
 8009aa2:	9300      	str	r3, [sp, #0]
 8009aa4:	2200      	movs	r2, #0
 8009aa6:	2307      	movs	r3, #7
 8009aa8:	214f      	movs	r1, #79	; 0x4f
 8009aaa:	f7ff fb5a 	bl	8009162 <IIM42652_ReadRegisterBits>
 8009aae:	b003      	add	sp, #12
 8009ab0:	f85d fb04 	ldr.w	pc, [sp], #4

08009ab4 <IIM42652_GetAccelFSR>:
 8009ab4:	b507      	push	{r0, r1, r2, lr}
 8009ab6:	2303      	movs	r3, #3
 8009ab8:	9101      	str	r1, [sp, #4]
 8009aba:	9300      	str	r3, [sp, #0]
 8009abc:	2200      	movs	r2, #0
 8009abe:	2307      	movs	r3, #7
 8009ac0:	2150      	movs	r1, #80	; 0x50
 8009ac2:	f7ff fb4e 	bl	8009162 <IIM42652_ReadRegisterBits>
 8009ac6:	b003      	add	sp, #12
 8009ac8:	f85d fb04 	ldr.w	pc, [sp], #4

08009acc <IIM42652_SetGyroODR>:
 8009acc:	b573      	push	{r0, r1, r4, r5, r6, lr}
 8009ace:	2304      	movs	r3, #4
 8009ad0:	460d      	mov	r5, r1
 8009ad2:	9101      	str	r1, [sp, #4]
 8009ad4:	9300      	str	r3, [sp, #0]
 8009ad6:	2200      	movs	r2, #0
 8009ad8:	2303      	movs	r3, #3
 8009ada:	214f      	movs	r1, #79	; 0x4f
 8009adc:	4604      	mov	r4, r0
 8009ade:	f7ff fb62 	bl	80091a6 <IIM42652_WriteRegisterBits>
 8009ae2:	2d01      	cmp	r5, #1
 8009ae4:	4606      	mov	r6, r0
 8009ae6:	f504 5380 	add.w	r3, r4, #4096	; 0x1000
 8009aea:	d10b      	bne.n	8009b04 <IIM42652_SetGyroODR+0x38>
 8009aec:	2202      	movs	r2, #2
 8009aee:	f883 2048 	strb.w	r2, [r3, #72]	; 0x48
 8009af2:	f007 ff39 	bl	8011968 <osKernelRunning>
 8009af6:	2801      	cmp	r0, #1
 8009af8:	d109      	bne.n	8009b0e <IIM42652_SetGyroODR+0x42>
 8009afa:	f007 ff64 	bl	80119c6 <osDelay>
 8009afe:	4630      	mov	r0, r6
 8009b00:	b002      	add	sp, #8
 8009b02:	bd70      	pop	{r4, r5, r6, pc}
 8009b04:	2d02      	cmp	r5, #2
 8009b06:	bf0c      	ite	eq
 8009b08:	2201      	moveq	r2, #1
 8009b0a:	2200      	movne	r2, #0
 8009b0c:	e7ef      	b.n	8009aee <IIM42652_SetGyroODR+0x22>
 8009b0e:	2001      	movs	r0, #1
 8009b10:	f002 fda6 	bl	800c660 <HAL_Delay>
 8009b14:	e7f3      	b.n	8009afe <IIM42652_SetGyroODR+0x32>

08009b16 <IIM42652_GetGyroODR>:
 8009b16:	b507      	push	{r0, r1, r2, lr}
 8009b18:	2304      	movs	r3, #4
 8009b1a:	9101      	str	r1, [sp, #4]
 8009b1c:	9300      	str	r3, [sp, #0]
 8009b1e:	2200      	movs	r2, #0
 8009b20:	2303      	movs	r3, #3
 8009b22:	214f      	movs	r1, #79	; 0x4f
 8009b24:	f7ff fb1d 	bl	8009162 <IIM42652_ReadRegisterBits>
 8009b28:	b003      	add	sp, #12
 8009b2a:	f85d fb04 	ldr.w	pc, [sp], #4

08009b2e <IIM42652_SetAccelODR>:
 8009b2e:	b573      	push	{r0, r1, r4, r5, r6, lr}
 8009b30:	2304      	movs	r3, #4
 8009b32:	460d      	mov	r5, r1
 8009b34:	9101      	str	r1, [sp, #4]
 8009b36:	9300      	str	r3, [sp, #0]
 8009b38:	2200      	movs	r2, #0
 8009b3a:	2303      	movs	r3, #3
 8009b3c:	2150      	movs	r1, #80	; 0x50
 8009b3e:	4604      	mov	r4, r0
 8009b40:	f7ff fb31 	bl	80091a6 <IIM42652_WriteRegisterBits>
 8009b44:	2d01      	cmp	r5, #1
 8009b46:	4606      	mov	r6, r0
 8009b48:	f504 5380 	add.w	r3, r4, #4096	; 0x1000
 8009b4c:	d10b      	bne.n	8009b66 <IIM42652_SetAccelODR+0x38>
 8009b4e:	2202      	movs	r2, #2
 8009b50:	f883 2048 	strb.w	r2, [r3, #72]	; 0x48
 8009b54:	f007 ff08 	bl	8011968 <osKernelRunning>
 8009b58:	2801      	cmp	r0, #1
 8009b5a:	d109      	bne.n	8009b70 <IIM42652_SetAccelODR+0x42>
 8009b5c:	f007 ff33 	bl	80119c6 <osDelay>
 8009b60:	4630      	mov	r0, r6
 8009b62:	b002      	add	sp, #8
 8009b64:	bd70      	pop	{r4, r5, r6, pc}
 8009b66:	2d02      	cmp	r5, #2
 8009b68:	bf0c      	ite	eq
 8009b6a:	2201      	moveq	r2, #1
 8009b6c:	2200      	movne	r2, #0
 8009b6e:	e7ef      	b.n	8009b50 <IIM42652_SetAccelODR+0x22>
 8009b70:	2001      	movs	r0, #1
 8009b72:	f002 fd75 	bl	800c660 <HAL_Delay>
 8009b76:	e7f3      	b.n	8009b60 <IIM42652_SetAccelODR+0x32>

08009b78 <IIM42652_GetAccelODR>:
 8009b78:	b507      	push	{r0, r1, r2, lr}
 8009b7a:	2304      	movs	r3, #4
 8009b7c:	9101      	str	r1, [sp, #4]
 8009b7e:	9300      	str	r3, [sp, #0]
 8009b80:	2200      	movs	r2, #0
 8009b82:	2303      	movs	r3, #3
 8009b84:	2150      	movs	r1, #80	; 0x50
 8009b86:	f7ff faec 	bl	8009162 <IIM42652_ReadRegisterBits>
 8009b8a:	b003      	add	sp, #12
 8009b8c:	f85d fb04 	ldr.w	pc, [sp], #4

08009b90 <IIM42652_SetAccelBW>:
 8009b90:	b513      	push	{r0, r1, r4, lr}
 8009b92:	2304      	movs	r3, #4
 8009b94:	9101      	str	r1, [sp, #4]
 8009b96:	9300      	str	r3, [sp, #0]
 8009b98:	2200      	movs	r2, #0
 8009b9a:	2307      	movs	r3, #7
 8009b9c:	2152      	movs	r1, #82	; 0x52
 8009b9e:	f7ff fb02 	bl	80091a6 <IIM42652_WriteRegisterBits>
 8009ba2:	4604      	mov	r4, r0
 8009ba4:	f007 fee0 	bl	8011968 <osKernelRunning>
 8009ba8:	2801      	cmp	r0, #1
 8009baa:	d104      	bne.n	8009bb6 <IIM42652_SetAccelBW+0x26>
 8009bac:	f007 ff0b 	bl	80119c6 <osDelay>
 8009bb0:	4620      	mov	r0, r4
 8009bb2:	b002      	add	sp, #8
 8009bb4:	bd10      	pop	{r4, pc}
 8009bb6:	2001      	movs	r0, #1
 8009bb8:	f002 fd52 	bl	800c660 <HAL_Delay>
 8009bbc:	e7f8      	b.n	8009bb0 <IIM42652_SetAccelBW+0x20>

08009bbe <IIM42652_GetAccelBW>:
 8009bbe:	b507      	push	{r0, r1, r2, lr}
 8009bc0:	2304      	movs	r3, #4
 8009bc2:	9101      	str	r1, [sp, #4]
 8009bc4:	9300      	str	r3, [sp, #0]
 8009bc6:	2200      	movs	r2, #0
 8009bc8:	2307      	movs	r3, #7
 8009bca:	2152      	movs	r1, #82	; 0x52
 8009bcc:	f7ff fac9 	bl	8009162 <IIM42652_ReadRegisterBits>
 8009bd0:	b003      	add	sp, #12
 8009bd2:	f85d fb04 	ldr.w	pc, [sp], #4

08009bd6 <IIM42652_SetGyroBW>:
 8009bd6:	b513      	push	{r0, r1, r4, lr}
 8009bd8:	2304      	movs	r3, #4
 8009bda:	9101      	str	r1, [sp, #4]
 8009bdc:	9300      	str	r3, [sp, #0]
 8009bde:	2200      	movs	r2, #0
 8009be0:	2303      	movs	r3, #3
 8009be2:	2152      	movs	r1, #82	; 0x52
 8009be4:	f7ff fadf 	bl	80091a6 <IIM42652_WriteRegisterBits>
 8009be8:	4604      	mov	r4, r0
 8009bea:	f007 febd 	bl	8011968 <osKernelRunning>
 8009bee:	2801      	cmp	r0, #1
 8009bf0:	d104      	bne.n	8009bfc <IIM42652_SetGyroBW+0x26>
 8009bf2:	f007 fee8 	bl	80119c6 <osDelay>
 8009bf6:	4620      	mov	r0, r4
 8009bf8:	b002      	add	sp, #8
 8009bfa:	bd10      	pop	{r4, pc}
 8009bfc:	2001      	movs	r0, #1
 8009bfe:	f002 fd2f 	bl	800c660 <HAL_Delay>
 8009c02:	e7f8      	b.n	8009bf6 <IIM42652_SetGyroBW+0x20>

08009c04 <IIM42652_GetGyroBW>:
 8009c04:	b507      	push	{r0, r1, r2, lr}
 8009c06:	2304      	movs	r3, #4
 8009c08:	9101      	str	r1, [sp, #4]
 8009c0a:	9300      	str	r3, [sp, #0]
 8009c0c:	2200      	movs	r2, #0
 8009c0e:	2303      	movs	r3, #3
 8009c10:	2152      	movs	r1, #82	; 0x52
 8009c12:	f7ff faa6 	bl	8009162 <IIM42652_ReadRegisterBits>
 8009c16:	b003      	add	sp, #12
 8009c18:	f85d fb04 	ldr.w	pc, [sp], #4

08009c1c <IIM42652_GetAccelFilterOrder>:
 8009c1c:	b507      	push	{r0, r1, r2, lr}
 8009c1e:	2302      	movs	r3, #2
 8009c20:	9101      	str	r1, [sp, #4]
 8009c22:	9300      	str	r3, [sp, #0]
 8009c24:	2200      	movs	r2, #0
 8009c26:	2304      	movs	r3, #4
 8009c28:	2153      	movs	r1, #83	; 0x53
 8009c2a:	f7ff fa9a 	bl	8009162 <IIM42652_ReadRegisterBits>
 8009c2e:	b003      	add	sp, #12
 8009c30:	f85d fb04 	ldr.w	pc, [sp], #4

08009c34 <IIM42652_GetGyroFilterOrder>:
 8009c34:	b507      	push	{r0, r1, r2, lr}
 8009c36:	2302      	movs	r3, #2
 8009c38:	9101      	str	r1, [sp, #4]
 8009c3a:	9300      	str	r3, [sp, #0]
 8009c3c:	2200      	movs	r2, #0
 8009c3e:	2303      	movs	r3, #3
 8009c40:	2151      	movs	r1, #81	; 0x51
 8009c42:	f7ff fa8e 	bl	8009162 <IIM42652_ReadRegisterBits>
 8009c46:	b003      	add	sp, #12
 8009c48:	f85d fb04 	ldr.w	pc, [sp], #4

08009c4c <IIM42652_SetAccelScaleFactor>:
 8009c4c:	2903      	cmp	r1, #3
 8009c4e:	d808      	bhi.n	8009c62 <IIM42652_SetAccelScaleFactor+0x16>
 8009c50:	e8df f001 	tbb	[pc, r1]
 8009c54:	120d0802 	.word	0x120d0802
 8009c58:	f500 5080 	add.w	r0, r0, #4096	; 0x1000
 8009c5c:	f04f 438a 	mov.w	r3, #1157627904	; 0x45000000
 8009c60:	63c3      	str	r3, [r0, #60]	; 0x3c
 8009c62:	4770      	bx	lr
 8009c64:	f500 5080 	add.w	r0, r0, #4096	; 0x1000
 8009c68:	f04f 438b 	mov.w	r3, #1166016512	; 0x45800000
 8009c6c:	e7f8      	b.n	8009c60 <IIM42652_SetAccelScaleFactor+0x14>
 8009c6e:	f500 5080 	add.w	r0, r0, #4096	; 0x1000
 8009c72:	f04f 438c 	mov.w	r3, #1174405120	; 0x46000000
 8009c76:	e7f3      	b.n	8009c60 <IIM42652_SetAccelScaleFactor+0x14>
 8009c78:	f500 5080 	add.w	r0, r0, #4096	; 0x1000
 8009c7c:	f04f 438d 	mov.w	r3, #1182793728	; 0x46800000
 8009c80:	e7ee      	b.n	8009c60 <IIM42652_SetAccelScaleFactor+0x14>

08009c82 <IIM42652_SetAccelFSR>:
 8009c82:	b573      	push	{r0, r1, r4, r5, r6, lr}
 8009c84:	2303      	movs	r3, #3
 8009c86:	9101      	str	r1, [sp, #4]
 8009c88:	9300      	str	r3, [sp, #0]
 8009c8a:	460d      	mov	r5, r1
 8009c8c:	2307      	movs	r3, #7
 8009c8e:	2200      	movs	r2, #0
 8009c90:	2150      	movs	r1, #80	; 0x50
 8009c92:	4606      	mov	r6, r0
 8009c94:	f7ff fa87 	bl	80091a6 <IIM42652_WriteRegisterBits>
 8009c98:	4604      	mov	r4, r0
 8009c9a:	b918      	cbnz	r0, 8009ca4 <IIM42652_SetAccelFSR+0x22>
 8009c9c:	4629      	mov	r1, r5
 8009c9e:	4630      	mov	r0, r6
 8009ca0:	f7ff ffd4 	bl	8009c4c <IIM42652_SetAccelScaleFactor>
 8009ca4:	f007 fe60 	bl	8011968 <osKernelRunning>
 8009ca8:	2801      	cmp	r0, #1
 8009caa:	d104      	bne.n	8009cb6 <IIM42652_SetAccelFSR+0x34>
 8009cac:	f007 fe8b 	bl	80119c6 <osDelay>
 8009cb0:	4620      	mov	r0, r4
 8009cb2:	b002      	add	sp, #8
 8009cb4:	bd70      	pop	{r4, r5, r6, pc}
 8009cb6:	2001      	movs	r0, #1
 8009cb8:	f002 fcd2 	bl	800c660 <HAL_Delay>
 8009cbc:	e7f8      	b.n	8009cb0 <IIM42652_SetAccelFSR+0x2e>
	...

08009cc0 <IIM42652_SetGyroScaleFactor>:
 8009cc0:	2907      	cmp	r1, #7
 8009cc2:	d80b      	bhi.n	8009cdc <IIM42652_SetGyroScaleFactor+0x1c>
 8009cc4:	e8df f001 	tbb	[pc, r1]
 8009cc8:	17110b04 	.word	0x17110b04
 8009ccc:	2f29231d 	.word	0x2f29231d
 8009cd0:	f500 5080 	add.w	r0, r0, #4096	; 0x1000
 8009cd4:	4b17      	ldr	r3, [pc, #92]	; (8009d34 <IIM42652_SetGyroScaleFactor+0x74>)
 8009cd6:	6443      	str	r3, [r0, #68]	; 0x44
 8009cd8:	4b17      	ldr	r3, [pc, #92]	; (8009d38 <IIM42652_SetGyroScaleFactor+0x78>)
 8009cda:	6403      	str	r3, [r0, #64]	; 0x40
 8009cdc:	4770      	bx	lr
 8009cde:	f500 5080 	add.w	r0, r0, #4096	; 0x1000
 8009ce2:	4b16      	ldr	r3, [pc, #88]	; (8009d3c <IIM42652_SetGyroScaleFactor+0x7c>)
 8009ce4:	6443      	str	r3, [r0, #68]	; 0x44
 8009ce6:	4b16      	ldr	r3, [pc, #88]	; (8009d40 <IIM42652_SetGyroScaleFactor+0x80>)
 8009ce8:	e7f7      	b.n	8009cda <IIM42652_SetGyroScaleFactor+0x1a>
 8009cea:	f500 5080 	add.w	r0, r0, #4096	; 0x1000
 8009cee:	4b15      	ldr	r3, [pc, #84]	; (8009d44 <IIM42652_SetGyroScaleFactor+0x84>)
 8009cf0:	6443      	str	r3, [r0, #68]	; 0x44
 8009cf2:	4b15      	ldr	r3, [pc, #84]	; (8009d48 <IIM42652_SetGyroScaleFactor+0x88>)
 8009cf4:	e7f1      	b.n	8009cda <IIM42652_SetGyroScaleFactor+0x1a>
 8009cf6:	f500 5080 	add.w	r0, r0, #4096	; 0x1000
 8009cfa:	4b14      	ldr	r3, [pc, #80]	; (8009d4c <IIM42652_SetGyroScaleFactor+0x8c>)
 8009cfc:	6443      	str	r3, [r0, #68]	; 0x44
 8009cfe:	4b14      	ldr	r3, [pc, #80]	; (8009d50 <IIM42652_SetGyroScaleFactor+0x90>)
 8009d00:	e7eb      	b.n	8009cda <IIM42652_SetGyroScaleFactor+0x1a>
 8009d02:	f500 5080 	add.w	r0, r0, #4096	; 0x1000
 8009d06:	4b13      	ldr	r3, [pc, #76]	; (8009d54 <IIM42652_SetGyroScaleFactor+0x94>)
 8009d08:	6443      	str	r3, [r0, #68]	; 0x44
 8009d0a:	4b13      	ldr	r3, [pc, #76]	; (8009d58 <IIM42652_SetGyroScaleFactor+0x98>)
 8009d0c:	e7e5      	b.n	8009cda <IIM42652_SetGyroScaleFactor+0x1a>
 8009d0e:	f500 5080 	add.w	r0, r0, #4096	; 0x1000
 8009d12:	4b12      	ldr	r3, [pc, #72]	; (8009d5c <IIM42652_SetGyroScaleFactor+0x9c>)
 8009d14:	6443      	str	r3, [r0, #68]	; 0x44
 8009d16:	4b12      	ldr	r3, [pc, #72]	; (8009d60 <IIM42652_SetGyroScaleFactor+0xa0>)
 8009d18:	e7df      	b.n	8009cda <IIM42652_SetGyroScaleFactor+0x1a>
 8009d1a:	f500 5080 	add.w	r0, r0, #4096	; 0x1000
 8009d1e:	4b11      	ldr	r3, [pc, #68]	; (8009d64 <IIM42652_SetGyroScaleFactor+0xa4>)
 8009d20:	6443      	str	r3, [r0, #68]	; 0x44
 8009d22:	4b11      	ldr	r3, [pc, #68]	; (8009d68 <IIM42652_SetGyroScaleFactor+0xa8>)
 8009d24:	e7d9      	b.n	8009cda <IIM42652_SetGyroScaleFactor+0x1a>
 8009d26:	f500 5080 	add.w	r0, r0, #4096	; 0x1000
 8009d2a:	4b10      	ldr	r3, [pc, #64]	; (8009d6c <IIM42652_SetGyroScaleFactor+0xac>)
 8009d2c:	6443      	str	r3, [r0, #68]	; 0x44
 8009d2e:	4b10      	ldr	r3, [pc, #64]	; (8009d70 <IIM42652_SetGyroScaleFactor+0xb0>)
 8009d30:	e7d3      	b.n	8009cda <IIM42652_SetGyroScaleFactor+0x1a>
 8009d32:	bf00      	nop
 8009d34:	446ae9a6 	.word	0x446ae9a6
 8009d38:	41833333 	.word	0x41833333
 8009d3c:	44eae9a6 	.word	0x44eae9a6
 8009d40:	42033333 	.word	0x42033333
 8009d44:	456a8dfa 	.word	0x456a8dfa
 8009d48:	42830000 	.word	0x42830000
 8009d4c:	45ea8dfa 	.word	0x45ea8dfa
 8009d50:	43030000 	.word	0x43030000
 8009d54:	466a8dfa 	.word	0x466a8dfa
 8009d58:	43830000 	.word	0x43830000
 8009d5c:	46eab05b 	.word	0x46eab05b
 8009d60:	44031333 	.word	0x44031333
 8009d64:	476ab05b 	.word	0x476ab05b
 8009d68:	44831333 	.word	0x44831333
 8009d6c:	47eab05b 	.word	0x47eab05b
 8009d70:	45031333 	.word	0x45031333

08009d74 <IIM42652_SetGyroFSR>:
 8009d74:	b573      	push	{r0, r1, r4, r5, r6, lr}
 8009d76:	2303      	movs	r3, #3
 8009d78:	9101      	str	r1, [sp, #4]
 8009d7a:	9300      	str	r3, [sp, #0]
 8009d7c:	460d      	mov	r5, r1
 8009d7e:	2307      	movs	r3, #7
 8009d80:	2200      	movs	r2, #0
 8009d82:	214f      	movs	r1, #79	; 0x4f
 8009d84:	4606      	mov	r6, r0
 8009d86:	f7ff fa0e 	bl	80091a6 <IIM42652_WriteRegisterBits>
 8009d8a:	4604      	mov	r4, r0
 8009d8c:	b918      	cbnz	r0, 8009d96 <IIM42652_SetGyroFSR+0x22>
 8009d8e:	4629      	mov	r1, r5
 8009d90:	4630      	mov	r0, r6
 8009d92:	f7ff ff95 	bl	8009cc0 <IIM42652_SetGyroScaleFactor>
 8009d96:	f007 fde7 	bl	8011968 <osKernelRunning>
 8009d9a:	2801      	cmp	r0, #1
 8009d9c:	d104      	bne.n	8009da8 <IIM42652_SetGyroFSR+0x34>
 8009d9e:	f007 fe12 	bl	80119c6 <osDelay>
 8009da2:	4620      	mov	r0, r4
 8009da4:	b002      	add	sp, #8
 8009da6:	bd70      	pop	{r4, r5, r6, pc}
 8009da8:	2001      	movs	r0, #1
 8009daa:	f002 fc59 	bl	800c660 <HAL_Delay>
 8009dae:	e7f8      	b.n	8009da2 <IIM42652_SetGyroFSR+0x2e>

08009db0 <IIM42652_SetUserConfig>:
 8009db0:	e92d 43f8 	stmdb	sp!, {r3, r4, r5, r6, r7, r8, r9, lr}
 8009db4:	4607      	mov	r7, r0
 8009db6:	f507 5880 	add.w	r8, r7, #4096	; 0x1000
 8009dba:	f7ff fe56 	bl	8009a6a <__IMU_TURN_OFF>
 8009dbe:	f8d8 306c 	ldr.w	r3, [r8, #108]	; 0x6c
 8009dc2:	4638      	mov	r0, r7
 8009dc4:	78d9      	ldrb	r1, [r3, #3]
 8009dc6:	f7ff ffd5 	bl	8009d74 <IIM42652_SetGyroFSR>
 8009dca:	f8d8 306c 	ldr.w	r3, [r8, #108]	; 0x6c
 8009dce:	4605      	mov	r5, r0
 8009dd0:	7919      	ldrb	r1, [r3, #4]
 8009dd2:	4638      	mov	r0, r7
 8009dd4:	f7ff fe7a 	bl	8009acc <IIM42652_SetGyroODR>
 8009dd8:	f8d8 306c 	ldr.w	r3, [r8, #108]	; 0x6c
 8009ddc:	4428      	add	r0, r5
 8009dde:	7819      	ldrb	r1, [r3, #0]
 8009de0:	b2c5      	uxtb	r5, r0
 8009de2:	4638      	mov	r0, r7
 8009de4:	f7ff ff4d 	bl	8009c82 <IIM42652_SetAccelFSR>
 8009de8:	f8d8 306c 	ldr.w	r3, [r8, #108]	; 0x6c
 8009dec:	4428      	add	r0, r5
 8009dee:	7859      	ldrb	r1, [r3, #1]
 8009df0:	b2c4      	uxtb	r4, r0
 8009df2:	4638      	mov	r0, r7
 8009df4:	f7ff fe9b 	bl	8009b2e <IIM42652_SetAccelODR>
 8009df8:	f8d8 306c 	ldr.w	r3, [r8, #108]	; 0x6c
 8009dfc:	4420      	add	r0, r4
 8009dfe:	7959      	ldrb	r1, [r3, #5]
 8009e00:	fa5f f980 	uxtb.w	r9, r0
 8009e04:	4638      	mov	r0, r7
 8009e06:	f7ff fee6 	bl	8009bd6 <IIM42652_SetGyroBW>
 8009e0a:	f8d8 306c 	ldr.w	r3, [r8, #108]	; 0x6c
 8009e0e:	4448      	add	r0, r9
 8009e10:	7899      	ldrb	r1, [r3, #2]
 8009e12:	b2c6      	uxtb	r6, r0
 8009e14:	4638      	mov	r0, r7
 8009e16:	f7ff febb 	bl	8009b90 <IIM42652_SetAccelBW>
 8009e1a:	f8d8 306c 	ldr.w	r3, [r8, #108]	; 0x6c
 8009e1e:	4430      	add	r0, r6
 8009e20:	7999      	ldrb	r1, [r3, #6]
 8009e22:	b2c5      	uxtb	r5, r0
 8009e24:	4638      	mov	r0, r7
 8009e26:	f7ff fd3e 	bl	80098a6 <IIM42652_SetWomXTh>
 8009e2a:	f8d8 306c 	ldr.w	r3, [r8, #108]	; 0x6c
 8009e2e:	4428      	add	r0, r5
 8009e30:	79d9      	ldrb	r1, [r3, #7]
 8009e32:	b2c4      	uxtb	r4, r0
 8009e34:	4638      	mov	r0, r7
 8009e36:	f7ff fd4e 	bl	80098d6 <IIM42652_SetWomYTh>
 8009e3a:	f8d8 306c 	ldr.w	r3, [r8, #108]	; 0x6c
 8009e3e:	4420      	add	r0, r4
 8009e40:	7a19      	ldrb	r1, [r3, #8]
 8009e42:	fa5f f980 	uxtb.w	r9, r0
 8009e46:	4638      	mov	r0, r7
 8009e48:	f7ff fd5d 	bl	8009906 <IIM42652_SetWomZTh>
 8009e4c:	4448      	add	r0, r9
 8009e4e:	b2c6      	uxtb	r6, r0
 8009e50:	2301      	movs	r3, #1
 8009e52:	2208      	movs	r2, #8
 8009e54:	2102      	movs	r1, #2
 8009e56:	4638      	mov	r0, r7
 8009e58:	f7ff fccb 	bl	80097f2 <IIM42652_SetIntSource>
 8009e5c:	4430      	add	r0, r6
 8009e5e:	b2c5      	uxtb	r5, r0
 8009e60:	2301      	movs	r3, #1
 8009e62:	2209      	movs	r2, #9
 8009e64:	2102      	movs	r1, #2
 8009e66:	4638      	mov	r0, r7
 8009e68:	f7ff fcc3 	bl	80097f2 <IIM42652_SetIntSource>
 8009e6c:	4428      	add	r0, r5
 8009e6e:	220a      	movs	r2, #10
 8009e70:	2301      	movs	r3, #1
 8009e72:	2102      	movs	r1, #2
 8009e74:	b2c4      	uxtb	r4, r0
 8009e76:	4638      	mov	r0, r7
 8009e78:	f7ff fcbb 	bl	80097f2 <IIM42652_SetIntSource>
 8009e7c:	4404      	add	r4, r0
 8009e7e:	2032      	movs	r0, #50	; 0x32
 8009e80:	f007 fda1 	bl	80119c6 <osDelay>
 8009e84:	f8d8 306c 	ldr.w	r3, [r8, #108]	; 0x6c
 8009e88:	4638      	mov	r0, r7
 8009e8a:	7a59      	ldrb	r1, [r3, #9]
 8009e8c:	f7ff fd4e 	bl	800992c <IIM42652_SetWOMIntMode>
 8009e90:	b2e4      	uxtb	r4, r4
 8009e92:	f8d8 306c 	ldr.w	r3, [r8, #108]	; 0x6c
 8009e96:	4420      	add	r0, r4
 8009e98:	7a99      	ldrb	r1, [r3, #10]
 8009e9a:	b2c5      	uxtb	r5, r0
 8009e9c:	4638      	mov	r0, r7
 8009e9e:	f7ff fd5d 	bl	800995c <IIM42652_SetWOMMode>
 8009ea2:	f8d8 306c 	ldr.w	r3, [r8, #108]	; 0x6c
 8009ea6:	4428      	add	r0, r5
 8009ea8:	7ad9      	ldrb	r1, [r3, #11]
 8009eaa:	b2c4      	uxtb	r4, r0
 8009eac:	4638      	mov	r0, r7
 8009eae:	f7ff fd6d 	bl	800998c <IIM42652_SetSMDMode>
 8009eb2:	4404      	add	r4, r0
 8009eb4:	b2e4      	uxtb	r4, r4
 8009eb6:	4638      	mov	r0, r7
 8009eb8:	f7ff fdc8 	bl	8009a4c <__IMU_TURN_ON>
 8009ebc:	4620      	mov	r0, r4
 8009ebe:	e8bd 83f8 	ldmia.w	sp!, {r3, r4, r5, r6, r7, r8, r9, pc}

08009ec2 <IIM42652_SetTMSFSyncEnable>:
 8009ec2:	b537      	push	{r0, r1, r2, r4, r5, lr}
 8009ec4:	2501      	movs	r5, #1
 8009ec6:	9101      	str	r1, [sp, #4]
 8009ec8:	462b      	mov	r3, r5
 8009eca:	2200      	movs	r2, #0
 8009ecc:	2154      	movs	r1, #84	; 0x54
 8009ece:	9500      	str	r5, [sp, #0]
 8009ed0:	f7ff f969 	bl	80091a6 <IIM42652_WriteRegisterBits>
 8009ed4:	4604      	mov	r4, r0
 8009ed6:	4628      	mov	r0, r5
 8009ed8:	f007 fd75 	bl	80119c6 <osDelay>
 8009edc:	4620      	mov	r0, r4
 8009ede:	b003      	add	sp, #12
 8009ee0:	bd30      	pop	{r4, r5, pc}

08009ee2 <IIM42652_SetTMSDeltaMode>:
 8009ee2:	b537      	push	{r0, r1, r2, r4, r5, lr}
 8009ee4:	2501      	movs	r5, #1
 8009ee6:	9101      	str	r1, [sp, #4]
 8009ee8:	2302      	movs	r3, #2
 8009eea:	2200      	movs	r2, #0
 8009eec:	2154      	movs	r1, #84	; 0x54
 8009eee:	9500      	str	r5, [sp, #0]
 8009ef0:	f7ff f959 	bl	80091a6 <IIM42652_WriteRegisterBits>
 8009ef4:	4604      	mov	r4, r0
 8009ef6:	4628      	mov	r0, r5
 8009ef8:	f007 fd65 	bl	80119c6 <osDelay>
 8009efc:	4620      	mov	r0, r4
 8009efe:	b003      	add	sp, #12
 8009f00:	bd30      	pop	{r4, r5, pc}

08009f02 <IIM42652_SetDMPPowerSaveMode>:
 8009f02:	b507      	push	{r0, r1, r2, lr}
 8009f04:	2301      	movs	r3, #1
 8009f06:	9101      	str	r1, [sp, #4]
 8009f08:	9300      	str	r3, [sp, #0]
 8009f0a:	2200      	movs	r2, #0
 8009f0c:	2307      	movs	r3, #7
 8009f0e:	2156      	movs	r1, #86	; 0x56
 8009f10:	f7ff f949 	bl	80091a6 <IIM42652_WriteRegisterBits>
 8009f14:	b003      	add	sp, #12
 8009f16:	f85d fb04 	ldr.w	pc, [sp], #4

08009f1a <IIM42652_SetDMPodr>:
 8009f1a:	b507      	push	{r0, r1, r2, lr}
 8009f1c:	2302      	movs	r3, #2
 8009f1e:	9101      	str	r1, [sp, #4]
 8009f20:	9300      	str	r3, [sp, #0]
 8009f22:	2200      	movs	r2, #0
 8009f24:	2301      	movs	r3, #1
 8009f26:	2156      	movs	r1, #86	; 0x56
 8009f28:	f7ff f93d 	bl	80091a6 <IIM42652_WriteRegisterBits>
 8009f2c:	b003      	add	sp, #12
 8009f2e:	f85d fb04 	ldr.w	pc, [sp], #4

08009f32 <IIM42652_SetBasicConfig>:
 8009f32:	e92d 41f3 	stmdb	sp!, {r0, r1, r4, r5, r6, r7, r8, lr}
 8009f36:	4607      	mov	r7, r0
 8009f38:	f7ff fd97 	bl	8009a6a <__IMU_TURN_OFF>
 8009f3c:	f507 5380 	add.w	r3, r7, #4096	; 0x1000
 8009f40:	f893 3038 	ldrb.w	r3, [r3, #56]	; 0x38
 8009f44:	b11b      	cbz	r3, 8009f4e <IIM42652_SetBasicConfig+0x1c>
 8009f46:	2100      	movs	r1, #0
 8009f48:	4638      	mov	r0, r7
 8009f4a:	f7ff f85e 	bl	800900a <IIM42652_SetRegisterBank>
 8009f4e:	4638      	mov	r0, r7
 8009f50:	f7ff f999 	bl	8009286 <IIM42652_SoftReset>
 8009f54:	2200      	movs	r2, #0
 8009f56:	4605      	mov	r5, r0
 8009f58:	2103      	movs	r1, #3
 8009f5a:	4638      	mov	r0, r7
 8009f5c:	f7ff fb0d 	bl	800957a <IIM42652_SetIntType>
 8009f60:	4428      	add	r0, r5
 8009f62:	b2c5      	uxtb	r5, r0
 8009f64:	2201      	movs	r2, #1
 8009f66:	2103      	movs	r1, #3
 8009f68:	4638      	mov	r0, r7
 8009f6a:	f7ff fb31 	bl	80095d0 <IIM42652_SetIntCircuit>
 8009f6e:	4428      	add	r0, r5
 8009f70:	2201      	movs	r2, #1
 8009f72:	b2c4      	uxtb	r4, r0
 8009f74:	2103      	movs	r1, #3
 8009f76:	4638      	mov	r0, r7
 8009f78:	f7ff fb55 	bl	8009626 <IIM42652_SetIntPolarity>
 8009f7c:	2101      	movs	r1, #1
 8009f7e:	4404      	add	r4, r0
 8009f80:	4638      	mov	r0, r7
 8009f82:	f7ff fb7c 	bl	800967e <IIM42652_SetFIFOMode>
 8009f86:	b2e4      	uxtb	r4, r4
 8009f88:	4404      	add	r4, r0
 8009f8a:	2101      	movs	r1, #1
 8009f8c:	4638      	mov	r0, r7
 8009f8e:	f7ff fb86 	bl	800969e <IIM42652_SetFIFOCountMode>
 8009f92:	b2e4      	uxtb	r4, r4
 8009f94:	4420      	add	r0, r4
 8009f96:	fa5f f880 	uxtb.w	r8, r0
 8009f9a:	2100      	movs	r1, #0
 8009f9c:	4638      	mov	r0, r7
 8009f9e:	f7ff fb8e 	bl	80096be <IIM42652_SetFIFOHoldLastValidData_Enable>
 8009fa2:	4440      	add	r0, r8
 8009fa4:	b2c6      	uxtb	r6, r0
 8009fa6:	217d      	movs	r1, #125	; 0x7d
 8009fa8:	4638      	mov	r0, r7
 8009faa:	f7ff fbd8 	bl	800975e <IIM42652_SetFIFOIntThreshold_Point>
 8009fae:	4430      	add	r0, r6
 8009fb0:	b2c5      	uxtb	r5, r0
 8009fb2:	2101      	movs	r1, #1
 8009fb4:	4638      	mov	r0, r7
 8009fb6:	f7ff fb92 	bl	80096de <IIM42652_SetFIFOIntThreshold_Enable>
 8009fba:	4428      	add	r0, r5
 8009fbc:	b2c4      	uxtb	r4, r0
 8009fbe:	2101      	movs	r1, #1
 8009fc0:	4638      	mov	r0, r7
 8009fc2:	f7ff fb9c 	bl	80096fe <IIM42652_SetFIFOStore_Accel>
 8009fc6:	4420      	add	r0, r4
 8009fc8:	fa5f f880 	uxtb.w	r8, r0
 8009fcc:	2101      	movs	r1, #1
 8009fce:	4638      	mov	r0, r7
 8009fd0:	f7ff fba5 	bl	800971e <IIM42652_SetFIFOStore_Gyro>
 8009fd4:	4440      	add	r0, r8
 8009fd6:	b2c6      	uxtb	r6, r0
 8009fd8:	2101      	movs	r1, #1
 8009fda:	4638      	mov	r0, r7
 8009fdc:	f7ff fbaf 	bl	800973e <IIM42652_SetFIFOStore_Temperature>
 8009fe0:	4430      	add	r0, r6
 8009fe2:	b2c5      	uxtb	r5, r0
 8009fe4:	2101      	movs	r1, #1
 8009fe6:	4638      	mov	r0, r7
 8009fe8:	f7ff fbcd 	bl	8009786 <IIM42652_SetIntPulsDuration>
 8009fec:	4428      	add	r0, r5
 8009fee:	b2c4      	uxtb	r4, r0
 8009ff0:	2100      	movs	r1, #0
 8009ff2:	4638      	mov	r0, r7
 8009ff4:	f7ff fbd7 	bl	80097a6 <IIM42652_SetIntPulsDeassert>
 8009ff8:	4420      	add	r0, r4
 8009ffa:	fa5f f880 	uxtb.w	r8, r0
 8009ffe:	2101      	movs	r1, #1
 800a000:	4638      	mov	r0, r7
 800a002:	f7ff fbe3 	bl	80097cc <IIM42652_SetIntPulsAsyncReset>
 800a006:	4440      	add	r0, r8
 800a008:	b2c6      	uxtb	r6, r0
 800a00a:	2300      	movs	r3, #0
 800a00c:	2204      	movs	r2, #4
 800a00e:	2101      	movs	r1, #1
 800a010:	4638      	mov	r0, r7
 800a012:	f7ff fbee 	bl	80097f2 <IIM42652_SetIntSource>
 800a016:	4430      	add	r0, r6
 800a018:	b2c5      	uxtb	r5, r0
 800a01a:	2300      	movs	r3, #0
 800a01c:	2203      	movs	r2, #3
 800a01e:	2101      	movs	r1, #1
 800a020:	4638      	mov	r0, r7
 800a022:	f7ff fbe6 	bl	80097f2 <IIM42652_SetIntSource>
 800a026:	2301      	movs	r3, #1
 800a028:	4428      	add	r0, r5
 800a02a:	4619      	mov	r1, r3
 800a02c:	2202      	movs	r2, #2
 800a02e:	b2c4      	uxtb	r4, r0
 800a030:	4638      	mov	r0, r7
 800a032:	f7ff fbde 	bl	80097f2 <IIM42652_SetIntSource>
 800a036:	f10d 0106 	add.w	r1, sp, #6
 800a03a:	4404      	add	r4, r0
 800a03c:	4638      	mov	r0, r7
 800a03e:	f7ff fd23 	bl	8009a88 <IIM42652_GetAccelAafBW>
 800a042:	b2e4      	uxtb	r4, r4
 800a044:	4420      	add	r0, r4
 800a046:	b2c5      	uxtb	r5, r0
 800a048:	f10d 0105 	add.w	r1, sp, #5
 800a04c:	4638      	mov	r0, r7
 800a04e:	f7ff fde5 	bl	8009c1c <IIM42652_GetAccelFilterOrder>
 800a052:	4428      	add	r0, r5
 800a054:	b2c4      	uxtb	r4, r0
 800a056:	f10d 0105 	add.w	r1, sp, #5
 800a05a:	4638      	mov	r0, r7
 800a05c:	f7ff fdea 	bl	8009c34 <IIM42652_GetGyroFilterOrder>
 800a060:	4420      	add	r0, r4
 800a062:	fa5f f880 	uxtb.w	r8, r0
 800a066:	2100      	movs	r1, #0
 800a068:	4638      	mov	r0, r7
 800a06a:	f7ff ff2a 	bl	8009ec2 <IIM42652_SetTMSFSyncEnable>
 800a06e:	4440      	add	r0, r8
 800a070:	b2c6      	uxtb	r6, r0
 800a072:	2101      	movs	r1, #1
 800a074:	4638      	mov	r0, r7
 800a076:	f7ff ff34 	bl	8009ee2 <IIM42652_SetTMSDeltaMode>
 800a07a:	4430      	add	r0, r6
 800a07c:	b2c5      	uxtb	r5, r0
 800a07e:	2100      	movs	r1, #0
 800a080:	4638      	mov	r0, r7
 800a082:	f7ff ff3e 	bl	8009f02 <IIM42652_SetDMPPowerSaveMode>
 800a086:	4428      	add	r0, r5
 800a088:	2103      	movs	r1, #3
 800a08a:	b2c4      	uxtb	r4, r0
 800a08c:	4638      	mov	r0, r7
 800a08e:	f7ff ff44 	bl	8009f1a <IIM42652_SetDMPodr>
 800a092:	4404      	add	r4, r0
 800a094:	20c8      	movs	r0, #200	; 0xc8
 800a096:	f007 fc96 	bl	80119c6 <osDelay>
 800a09a:	4638      	mov	r0, r7
 800a09c:	f7ff fcd6 	bl	8009a4c <__IMU_TURN_ON>
 800a0a0:	b2e4      	uxtb	r4, r4
 800a0a2:	4620      	mov	r0, r4
 800a0a4:	b002      	add	sp, #8
 800a0a6:	e8bd 81f0 	ldmia.w	sp!, {r4, r5, r6, r7, r8, pc}

0800a0aa <IIM42652_Init>:
 800a0aa:	e92d 41ff 	stmdb	sp!, {r0, r1, r2, r3, r4, r5, r6, r7, r8, lr}
 800a0ae:	f500 5780 	add.w	r7, r0, #4096	; 0x1000
 800a0b2:	8103      	strh	r3, [r0, #8]
 800a0b4:	2500      	movs	r5, #0
 800a0b6:	4698      	mov	r8, r3
 800a0b8:	2320      	movs	r3, #32
 800a0ba:	e9c0 1200 	strd	r1, r2, [r0]
 800a0be:	f887 5038 	strb.w	r5, [r7, #56]	; 0x38
 800a0c2:	7405      	strb	r5, [r0, #16]
 800a0c4:	f887 3048 	strb.w	r3, [r7, #72]	; 0x48
 800a0c8:	9b0a      	ldr	r3, [sp, #40]	; 0x28
 800a0ca:	66fb      	str	r3, [r7, #108]	; 0x6c
 800a0cc:	4604      	mov	r4, r0
 800a0ce:	4616      	mov	r6, r2
 800a0d0:	4629      	mov	r1, r5
 800a0d2:	f44f 6201 	mov.w	r2, #2064	; 0x810
 800a0d6:	f887 5036 	strb.w	r5, [r7, #54]	; 0x36
 800a0da:	3013      	adds	r0, #19
 800a0dc:	f00b fa1c 	bl	8015518 <memset>
 800a0e0:	2390      	movs	r3, #144	; 0x90
 800a0e2:	4630      	mov	r0, r6
 800a0e4:	462a      	mov	r2, r5
 800a0e6:	4641      	mov	r1, r8
 800a0e8:	f8ad 3008 	strh.w	r3, [sp, #8]
 800a0ec:	f002 ff50 	bl	800cf90 <HAL_GPIO_WritePin>
 800a0f0:	f04f 33ff 	mov.w	r3, #4294967295
 800a0f4:	9300      	str	r3, [sp, #0]
 800a0f6:	aa03      	add	r2, sp, #12
 800a0f8:	2302      	movs	r3, #2
 800a0fa:	a902      	add	r1, sp, #8
 800a0fc:	6820      	ldr	r0, [r4, #0]
 800a0fe:	f005 f9c5 	bl	800f48c <HAL_SPI_TransmitReceive>
 800a102:	8921      	ldrh	r1, [r4, #8]
 800a104:	6860      	ldr	r0, [r4, #4]
 800a106:	2201      	movs	r2, #1
 800a108:	f002 ff42 	bl	800cf90 <HAL_GPIO_WritePin>
 800a10c:	4620      	mov	r0, r4
 800a10e:	f7fe ff58 	bl	8008fc2 <IIM42652_CheckCommunication>
 800a112:	4606      	mov	r6, r0
 800a114:	b9f0      	cbnz	r0, 800a154 <IIM42652_Init+0xaa>
 800a116:	4620      	mov	r0, r4
 800a118:	f7ff ff0b 	bl	8009f32 <IIM42652_SetBasicConfig>
 800a11c:	6efb      	ldr	r3, [r7, #108]	; 0x6c
 800a11e:	7b1a      	ldrb	r2, [r3, #12]
 800a120:	2aac      	cmp	r2, #172	; 0xac
 800a122:	4605      	mov	r5, r0
 800a124:	d011      	beq.n	800a14a <IIM42652_Init+0xa0>
 800a126:	210e      	movs	r1, #14
 800a128:	22ac      	movs	r2, #172	; 0xac
 800a12a:	2003      	movs	r0, #3
 800a12c:	731a      	strb	r2, [r3, #12]
 800a12e:	7099      	strb	r1, [r3, #2]
 800a130:	2201      	movs	r2, #1
 800a132:	7159      	strb	r1, [r3, #5]
 800a134:	2180      	movs	r1, #128	; 0x80
 800a136:	7058      	strb	r0, [r3, #1]
 800a138:	701a      	strb	r2, [r3, #0]
 800a13a:	7118      	strb	r0, [r3, #4]
 800a13c:	70de      	strb	r6, [r3, #3]
 800a13e:	7199      	strb	r1, [r3, #6]
 800a140:	71d9      	strb	r1, [r3, #7]
 800a142:	7219      	strb	r1, [r3, #8]
 800a144:	725e      	strb	r6, [r3, #9]
 800a146:	729a      	strb	r2, [r3, #10]
 800a148:	72da      	strb	r2, [r3, #11]
 800a14a:	4620      	mov	r0, r4
 800a14c:	f7ff fe30 	bl	8009db0 <IIM42652_SetUserConfig>
 800a150:	4428      	add	r0, r5
 800a152:	b2c0      	uxtb	r0, r0
 800a154:	b004      	add	sp, #16
 800a156:	e8bd 81f0 	ldmia.w	sp!, {r4, r5, r6, r7, r8, pc}

0800a15a <IIM42652_FIFO_Flush>:
 800a15a:	b507      	push	{r0, r1, r2, lr}
 800a15c:	2301      	movs	r3, #1
 800a15e:	e9cd 3300 	strd	r3, r3, [sp]
 800a162:	2200      	movs	r2, #0
 800a164:	214b      	movs	r1, #75	; 0x4b
 800a166:	f7ff f81e 	bl	80091a6 <IIM42652_WriteRegisterBits>
 800a16a:	b003      	add	sp, #12
 800a16c:	f85d fb04 	ldr.w	pc, [sp], #4

0800a170 <IIM42652_GetFIFOCount_ISR>:
 800a170:	b57f      	push	{r0, r1, r2, r3, r4, r5, r6, lr}
 800a172:	23ae      	movs	r3, #174	; 0xae
 800a174:	4604      	mov	r4, r0
 800a176:	f88d 3008 	strb.w	r3, [sp, #8]
 800a17a:	f007 fbf5 	bl	8011968 <osKernelRunning>
 800a17e:	2801      	cmp	r0, #1
 800a180:	4606      	mov	r6, r0
 800a182:	d122      	bne.n	800a1ca <IIM42652_GetFIFOCount_ISR+0x5a>
 800a184:	f04f 31ff 	mov.w	r1, #4294967295
 800a188:	68e0      	ldr	r0, [r4, #12]
 800a18a:	f007 fcda 	bl	8011b42 <osSemaphoreWait>
 800a18e:	8921      	ldrh	r1, [r4, #8]
 800a190:	6860      	ldr	r0, [r4, #4]
 800a192:	2200      	movs	r2, #0
 800a194:	f002 fefc 	bl	800cf90 <HAL_GPIO_WritePin>
 800a198:	f04f 33ff 	mov.w	r3, #4294967295
 800a19c:	9300      	str	r3, [sp, #0]
 800a19e:	aa03      	add	r2, sp, #12
 800a1a0:	2303      	movs	r3, #3
 800a1a2:	a902      	add	r1, sp, #8
 800a1a4:	6820      	ldr	r0, [r4, #0]
 800a1a6:	f005 f971 	bl	800f48c <HAL_SPI_TransmitReceive>
 800a1aa:	8921      	ldrh	r1, [r4, #8]
 800a1ac:	4605      	mov	r5, r0
 800a1ae:	4632      	mov	r2, r6
 800a1b0:	6860      	ldr	r0, [r4, #4]
 800a1b2:	f002 feed 	bl	800cf90 <HAL_GPIO_WritePin>
 800a1b6:	68e0      	ldr	r0, [r4, #12]
 800a1b8:	f007 fce8 	bl	8011b8c <osSemaphoreRelease>
 800a1bc:	b9d5      	cbnz	r5, 800a1f4 <IIM42652_GetFIFOCount_ISR+0x84>
 800a1be:	f8bd 000d 	ldrh.w	r0, [sp, #13]
 800a1c2:	ba40      	rev16	r0, r0
 800a1c4:	b280      	uxth	r0, r0
 800a1c6:	b004      	add	sp, #16
 800a1c8:	bd70      	pop	{r4, r5, r6, pc}
 800a1ca:	8921      	ldrh	r1, [r4, #8]
 800a1cc:	6860      	ldr	r0, [r4, #4]
 800a1ce:	2200      	movs	r2, #0
 800a1d0:	f002 fede 	bl	800cf90 <HAL_GPIO_WritePin>
 800a1d4:	f04f 33ff 	mov.w	r3, #4294967295
 800a1d8:	9300      	str	r3, [sp, #0]
 800a1da:	aa03      	add	r2, sp, #12
 800a1dc:	a902      	add	r1, sp, #8
 800a1de:	6820      	ldr	r0, [r4, #0]
 800a1e0:	2303      	movs	r3, #3
 800a1e2:	f005 f953 	bl	800f48c <HAL_SPI_TransmitReceive>
 800a1e6:	8921      	ldrh	r1, [r4, #8]
 800a1e8:	4605      	mov	r5, r0
 800a1ea:	2201      	movs	r2, #1
 800a1ec:	6860      	ldr	r0, [r4, #4]
 800a1ee:	f002 fecf 	bl	800cf90 <HAL_GPIO_WritePin>
 800a1f2:	e7e3      	b.n	800a1bc <IIM42652_GetFIFOCount_ISR+0x4c>
 800a1f4:	2000      	movs	r0, #0
 800a1f6:	e7e6      	b.n	800a1c6 <IIM42652_GetFIFOCount_ISR+0x56>

0800a1f8 <IIM42652_GetFIFOData_DMA>:
 800a1f8:	2301      	movs	r3, #1
 800a1fa:	b513      	push	{r0, r1, r4, lr}
 800a1fc:	f880 3824 	strb.w	r3, [r0, #2084]	; 0x824
 800a200:	4604      	mov	r4, r0
 800a202:	f7ff ffb5 	bl	800a170 <IIM42652_GetFIFOCount_ISR>
 800a206:	f504 5380 	add.w	r3, r4, #4096	; 0x1000
 800a20a:	b2c2      	uxtb	r2, r0
 800a20c:	f883 2035 	strb.w	r2, [r3, #53]	; 0x35
 800a210:	4a0b      	ldr	r2, [pc, #44]	; (800a240 <IIM42652_GetFIFOData_DMA+0x48>)
 800a212:	8853      	ldrh	r3, [r2, #2]
 800a214:	f3c3 0108 	ubfx	r1, r3, #0, #9
 800a218:	3301      	adds	r3, #1
 800a21a:	8053      	strh	r3, [r2, #2]
 800a21c:	eb02 0141 	add.w	r1, r2, r1, lsl #1
 800a220:	0103      	lsls	r3, r0, #4
 800a222:	b29b      	uxth	r3, r3
 800a224:	8088      	strh	r0, [r1, #4]
 800a226:	2200      	movs	r2, #0
 800a228:	9300      	str	r3, [sp, #0]
 800a22a:	2130      	movs	r1, #48	; 0x30
 800a22c:	f604 0325 	addw	r3, r4, #2085	; 0x825
 800a230:	4620      	mov	r0, r4
 800a232:	f7ff f959 	bl	80094e8 <IIM42652_ReadMultiRegisters_DMA>
 800a236:	fab0 f080 	clz	r0, r0
 800a23a:	0940      	lsrs	r0, r0, #5
 800a23c:	b002      	add	sp, #8
 800a23e:	bd10      	pop	{r4, pc}
 800a240:	20000d9c 	.word	0x20000d9c

0800a244 <imu_TO_buffer>:
 800a244:	e92d 43f0 	stmdb	sp!, {r4, r5, r6, r7, r8, r9, lr}
 800a248:	f9b2 c004 	ldrsh.w	ip, [r2, #4]
 800a24c:	f9b2 7006 	ldrsh.w	r7, [r2, #6]
 800a250:	f9b2 6008 	ldrsh.w	r6, [r2, #8]
 800a254:	f9b2 500a 	ldrsh.w	r5, [r2, #10]
 800a258:	f9b2 400c 	ldrsh.w	r4, [r2, #12]
 800a25c:	f9b2 9010 	ldrsh.w	r9, [r2, #16]
 800a260:	f9b2 8002 	ldrsh.w	r8, [r2, #2]
 800a264:	f892 e00e 	ldrb.w	lr, [r2, #14]
 800a268:	f992 2003 	ldrsb.w	r2, [r2, #3]
 800a26c:	f500 5080 	add.w	r0, r0, #4096	; 0x1000
 800a270:	fb09 f101 	mul.w	r1, r9, r1
 800a274:	f890 0037 	ldrb.w	r0, [r0, #55]	; 0x37
 800a278:	701a      	strb	r2, [r3, #0]
 800a27a:	ea4f 222c 	mov.w	r2, ip, asr #8
 800a27e:	709a      	strb	r2, [r3, #2]
 800a280:	123a      	asrs	r2, r7, #8
 800a282:	711a      	strb	r2, [r3, #4]
 800a284:	1232      	asrs	r2, r6, #8
 800a286:	719a      	strb	r2, [r3, #6]
 800a288:	122a      	asrs	r2, r5, #8
 800a28a:	721a      	strb	r2, [r3, #8]
 800a28c:	1222      	asrs	r2, r4, #8
 800a28e:	729a      	strb	r2, [r3, #10]
 800a290:	f3c1 2207 	ubfx	r2, r1, #8, #8
 800a294:	f883 8001 	strb.w	r8, [r3, #1]
 800a298:	f883 c003 	strb.w	ip, [r3, #3]
 800a29c:	715f      	strb	r7, [r3, #5]
 800a29e:	71de      	strb	r6, [r3, #7]
 800a2a0:	725d      	strb	r5, [r3, #9]
 800a2a2:	72dc      	strb	r4, [r3, #11]
 800a2a4:	f883 e00c 	strb.w	lr, [r3, #12]
 800a2a8:	735a      	strb	r2, [r3, #13]
 800a2aa:	7399      	strb	r1, [r3, #14]
 800a2ac:	73d8      	strb	r0, [r3, #15]
 800a2ae:	e8bd 83f0 	ldmia.w	sp!, {r4, r5, r6, r7, r8, r9, pc}
	...

0800a2b4 <IIM42652_GetFIFOData_DMA_Complete>:
 800a2b4:	e92d 4ff0 	stmdb	sp!, {r4, r5, r6, r7, r8, r9, sl, fp, lr}
 800a2b8:	4605      	mov	r5, r0
 800a2ba:	b093      	sub	sp, #76	; 0x4c
 800a2bc:	f505 5680 	add.w	r6, r5, #4096	; 0x1000
 800a2c0:	8901      	ldrh	r1, [r0, #8]
 800a2c2:	6840      	ldr	r0, [r0, #4]
 800a2c4:	2400      	movs	r4, #0
 800a2c6:	2201      	movs	r2, #1
 800a2c8:	9404      	str	r4, [sp, #16]
 800a2ca:	f002 fe61 	bl	800cf90 <HAL_GPIO_WritePin>
 800a2ce:	f896 3035 	ldrb.w	r3, [r6, #53]	; 0x35
 800a2d2:	2b00      	cmp	r3, #0
 800a2d4:	f040 8158 	bne.w	800a588 <IIM42652_GetFIFOData_DMA_Complete+0x2d4>
 800a2d8:	2300      	movs	r3, #0
 800a2da:	f885 3824 	strb.w	r3, [r5, #2084]	; 0x824
 800a2de:	f007 fb43 	bl	8011968 <osKernelRunning>
 800a2e2:	2801      	cmp	r0, #1
 800a2e4:	f040 8131 	bne.w	800a54a <IIM42652_GetFIFOData_DMA_Complete+0x296>
 800a2e8:	68e8      	ldr	r0, [r5, #12]
 800a2ea:	f007 fc4f 	bl	8011b8c <osSemaphoreRelease>
 800a2ee:	e12c      	b.n	800a54a <IIM42652_GetFIFOData_DMA_Complete+0x296>
 800a2f0:	0659      	lsls	r1, r3, #25
 800a2f2:	d515      	bpl.n	800a320 <IIM42652_GetFIFOData_DMA_Complete+0x6c>
 800a2f4:	f604 0025 	addw	r0, r4, #2085	; 0x825
 800a2f8:	f10d 0136 	add.w	r1, sp, #54	; 0x36
 800a2fc:	4428      	add	r0, r5
 800a2fe:	f7fe fe4f 	bl	8008fa0 <IIM42652_Format_Data.part.0>
 800a302:	f604 0027 	addw	r0, r4, #2087	; 0x827
 800a306:	a90e      	add	r1, sp, #56	; 0x38
 800a308:	4428      	add	r0, r5
 800a30a:	f7fe fe49 	bl	8008fa0 <IIM42652_Format_Data.part.0>
 800a30e:	f604 0029 	addw	r0, r4, #2089	; 0x829
 800a312:	f10d 013a 	add.w	r1, sp, #58	; 0x3a
 800a316:	4428      	add	r0, r5
 800a318:	f7fe fe42 	bl	8008fa0 <IIM42652_Format_Data.part.0>
 800a31c:	3207      	adds	r2, #7
 800a31e:	b294      	uxth	r4, r2
 800a320:	5deb      	ldrb	r3, [r5, r7]
 800a322:	069b      	lsls	r3, r3, #26
 800a324:	d514      	bpl.n	800a350 <IIM42652_GetFIFOData_DMA_Complete+0x9c>
 800a326:	f604 0025 	addw	r0, r4, #2085	; 0x825
 800a32a:	a90f      	add	r1, sp, #60	; 0x3c
 800a32c:	4428      	add	r0, r5
 800a32e:	f7fe fe37 	bl	8008fa0 <IIM42652_Format_Data.part.0>
 800a332:	f604 0027 	addw	r0, r4, #2087	; 0x827
 800a336:	f10d 013e 	add.w	r1, sp, #62	; 0x3e
 800a33a:	4428      	add	r0, r5
 800a33c:	f7fe fe30 	bl	8008fa0 <IIM42652_Format_Data.part.0>
 800a340:	f604 0029 	addw	r0, r4, #2089	; 0x829
 800a344:	a910      	add	r1, sp, #64	; 0x40
 800a346:	4428      	add	r0, r5
 800a348:	f7fe fe2a 	bl	8008fa0 <IIM42652_Format_Data.part.0>
 800a34c:	3406      	adds	r4, #6
 800a34e:	b2a4      	uxth	r4, r4
 800a350:	5deb      	ldrb	r3, [r5, r7]
 800a352:	f013 0f60 	tst.w	r3, #96	; 0x60
 800a356:	d006      	beq.n	800a366 <IIM42652_GetFIFOData_DMA_Complete+0xb2>
 800a358:	192a      	adds	r2, r5, r4
 800a35a:	3401      	adds	r4, #1
 800a35c:	f892 2825 	ldrb.w	r2, [r2, #2085]	; 0x825
 800a360:	f88d 2042 	strb.w	r2, [sp, #66]	; 0x42
 800a364:	b2a4      	uxth	r4, r4
 800a366:	f013 0f0c 	tst.w	r3, #12
 800a36a:	d007      	beq.n	800a37c <IIM42652_GetFIFOData_DMA_Complete+0xc8>
 800a36c:	f604 0025 	addw	r0, r4, #2085	; 0x825
 800a370:	a911      	add	r1, sp, #68	; 0x44
 800a372:	4428      	add	r0, r5
 800a374:	f7fe fe14 	bl	8008fa0 <IIM42652_Format_Data.part.0>
 800a378:	3402      	adds	r4, #2
 800a37a:	b2a4      	uxth	r4, r4
 800a37c:	f9bd 3036 	ldrsh.w	r3, [sp, #54]	; 0x36
 800a380:	f513 4f00 	cmn.w	r3, #32768	; 0x8000
 800a384:	d012      	beq.n	800a3ac <IIM42652_GetFIFOData_DMA_Complete+0xf8>
 800a386:	ee07 3a90 	vmov	s15, r3
 800a38a:	edd6 6a0f 	vldr	s13, [r6, #60]	; 0x3c
 800a38e:	f8bb 2002 	ldrh.w	r2, [fp, #2]
 800a392:	f89b 1002 	ldrb.w	r1, [fp, #2]
 800a396:	eef8 7ae7 	vcvt.f32.s32	s15, s15
 800a39a:	eb0b 0181 	add.w	r1, fp, r1, lsl #2
 800a39e:	ee87 7aa6 	vdiv.f32	s14, s15, s13
 800a3a2:	1c53      	adds	r3, r2, #1
 800a3a4:	f8ab 3002 	strh.w	r3, [fp, #2]
 800a3a8:	ed81 7a01 	vstr	s14, [r1, #4]
 800a3ac:	f9bd 3038 	ldrsh.w	r3, [sp, #56]	; 0x38
 800a3b0:	f513 4f00 	cmn.w	r3, #32768	; 0x8000
 800a3b4:	d010      	beq.n	800a3d8 <IIM42652_GetFIFOData_DMA_Complete+0x124>
 800a3b6:	ee07 3a90 	vmov	s15, r3
 800a3ba:	edd6 6a0f 	vldr	s13, [r6, #60]	; 0x3c
 800a3be:	4876      	ldr	r0, [pc, #472]	; (800a598 <IIM42652_GetFIFOData_DMA_Complete+0x2e4>)
 800a3c0:	eef8 7ae7 	vcvt.f32.s32	s15, s15
 800a3c4:	8842      	ldrh	r2, [r0, #2]
 800a3c6:	7881      	ldrb	r1, [r0, #2]
 800a3c8:	ee87 7aa6 	vdiv.f32	s14, s15, s13
 800a3cc:	eb00 0181 	add.w	r1, r0, r1, lsl #2
 800a3d0:	1c53      	adds	r3, r2, #1
 800a3d2:	8043      	strh	r3, [r0, #2]
 800a3d4:	ed81 7a01 	vstr	s14, [r1, #4]
 800a3d8:	f9bd 303a 	ldrsh.w	r3, [sp, #58]	; 0x3a
 800a3dc:	f513 4f00 	cmn.w	r3, #32768	; 0x8000
 800a3e0:	d012      	beq.n	800a408 <IIM42652_GetFIFOData_DMA_Complete+0x154>
 800a3e2:	ee07 3a90 	vmov	s15, r3
 800a3e6:	edd6 6a0f 	vldr	s13, [r6, #60]	; 0x3c
 800a3ea:	f8b8 2002 	ldrh.w	r2, [r8, #2]
 800a3ee:	f898 1002 	ldrb.w	r1, [r8, #2]
 800a3f2:	eef8 7ae7 	vcvt.f32.s32	s15, s15
 800a3f6:	eb08 0181 	add.w	r1, r8, r1, lsl #2
 800a3fa:	ee87 7aa6 	vdiv.f32	s14, s15, s13
 800a3fe:	1c53      	adds	r3, r2, #1
 800a400:	f8a8 3002 	strh.w	r3, [r8, #2]
 800a404:	ed81 7a01 	vstr	s14, [r1, #4]
 800a408:	f9bd 203c 	ldrsh.w	r2, [sp, #60]	; 0x3c
 800a40c:	f512 4f00 	cmn.w	r2, #32768	; 0x8000
 800a410:	d010      	beq.n	800a434 <IIM42652_GetFIFOData_DMA_Complete+0x180>
 800a412:	ee07 2a90 	vmov	s15, r2
 800a416:	edd6 6a10 	vldr	s13, [r6, #64]	; 0x40
 800a41a:	4b60      	ldr	r3, [pc, #384]	; (800a59c <IIM42652_GetFIFOData_DMA_Complete+0x2e8>)
 800a41c:	eef8 7ae7 	vcvt.f32.s32	s15, s15
 800a420:	8859      	ldrh	r1, [r3, #2]
 800a422:	7898      	ldrb	r0, [r3, #2]
 800a424:	ee87 7aa6 	vdiv.f32	s14, s15, s13
 800a428:	eb03 0080 	add.w	r0, r3, r0, lsl #2
 800a42c:	1c4a      	adds	r2, r1, #1
 800a42e:	805a      	strh	r2, [r3, #2]
 800a430:	ed80 7a01 	vstr	s14, [r0, #4]
 800a434:	f9bd 203e 	ldrsh.w	r2, [sp, #62]	; 0x3e
 800a438:	f512 4f00 	cmn.w	r2, #32768	; 0x8000
 800a43c:	d010      	beq.n	800a460 <IIM42652_GetFIFOData_DMA_Complete+0x1ac>
 800a43e:	ee07 2a90 	vmov	s15, r2
 800a442:	edd6 6a10 	vldr	s13, [r6, #64]	; 0x40
 800a446:	4b56      	ldr	r3, [pc, #344]	; (800a5a0 <IIM42652_GetFIFOData_DMA_Complete+0x2ec>)
 800a448:	eef8 7ae7 	vcvt.f32.s32	s15, s15
 800a44c:	8859      	ldrh	r1, [r3, #2]
 800a44e:	7898      	ldrb	r0, [r3, #2]
 800a450:	ee87 7aa6 	vdiv.f32	s14, s15, s13
 800a454:	eb03 0080 	add.w	r0, r3, r0, lsl #2
 800a458:	1c4a      	adds	r2, r1, #1
 800a45a:	805a      	strh	r2, [r3, #2]
 800a45c:	ed80 7a01 	vstr	s14, [r0, #4]
 800a460:	f9bd 2040 	ldrsh.w	r2, [sp, #64]	; 0x40
 800a464:	f512 4f00 	cmn.w	r2, #32768	; 0x8000
 800a468:	d010      	beq.n	800a48c <IIM42652_GetFIFOData_DMA_Complete+0x1d8>
 800a46a:	ee07 2a90 	vmov	s15, r2
 800a46e:	edd6 6a10 	vldr	s13, [r6, #64]	; 0x40
 800a472:	4b4c      	ldr	r3, [pc, #304]	; (800a5a4 <IIM42652_GetFIFOData_DMA_Complete+0x2f0>)
 800a474:	eef8 7ae7 	vcvt.f32.s32	s15, s15
 800a478:	8859      	ldrh	r1, [r3, #2]
 800a47a:	7898      	ldrb	r0, [r3, #2]
 800a47c:	ee87 7aa6 	vdiv.f32	s14, s15, s13
 800a480:	eb03 0080 	add.w	r0, r3, r0, lsl #2
 800a484:	1c4a      	adds	r2, r1, #1
 800a486:	805a      	strh	r2, [r3, #2]
 800a488:	ed80 7a01 	vstr	s14, [r0, #4]
 800a48c:	f895 9823 	ldrb.w	r9, [r5, #2083]	; 0x823
 800a490:	f1b9 0f01 	cmp.w	r9, #1
 800a494:	d127      	bne.n	800a4e6 <IIM42652_GetFIFOData_DMA_Complete+0x232>
 800a496:	4f44      	ldr	r7, [pc, #272]	; (800a5a8 <IIM42652_GetFIFOData_DMA_Complete+0x2f4>)
 800a498:	f896 2048 	ldrb.w	r2, [r6, #72]	; 0x48
 800a49c:	883b      	ldrh	r3, [r7, #0]
 800a49e:	b29b      	uxth	r3, r3
 800a4a0:	429a      	cmp	r2, r3
 800a4a2:	d86d      	bhi.n	800a580 <IIM42652_GetFIFOData_DMA_Complete+0x2cc>
 800a4a4:	f8df a108 	ldr.w	sl, [pc, #264]	; 800a5b0 <IIM42652_GetFIFOData_DMA_Complete+0x2fc>
 800a4a8:	ab05      	add	r3, sp, #20
 800a4aa:	aa0d      	add	r2, sp, #52	; 0x34
 800a4ac:	4649      	mov	r1, r9
 800a4ae:	4628      	mov	r0, r5
 800a4b0:	f7ff fec8 	bl	800a244 <imu_TO_buffer>
 800a4b4:	f8da 0000 	ldr.w	r0, [sl]
 800a4b8:	f008 f82f 	bl	801251a <xQueueIsQueueFullFromISR>
 800a4bc:	4603      	mov	r3, r0
 800a4be:	2800      	cmp	r0, #0
 800a4c0:	d146      	bne.n	800a550 <IIM42652_GetFIFOData_DMA_Complete+0x29c>
 800a4c2:	9003      	str	r0, [sp, #12]
 800a4c4:	aa04      	add	r2, sp, #16
 800a4c6:	a905      	add	r1, sp, #20
 800a4c8:	f8da 0000 	ldr.w	r0, [sl]
 800a4cc:	f007 fdbe 	bl	801204c <xQueueGenericSendFromISR>
 800a4d0:	ab04      	add	r3, sp, #16
 800a4d2:	4836      	ldr	r0, [pc, #216]	; (800a5ac <IIM42652_GetFIFOData_DMA_Complete+0x2f8>)
 800a4d4:	9300      	str	r3, [sp, #0]
 800a4d6:	6800      	ldr	r0, [r0, #0]
 800a4d8:	9b03      	ldr	r3, [sp, #12]
 800a4da:	464a      	mov	r2, r9
 800a4dc:	2104      	movs	r1, #4
 800a4de:	f008 fecf 	bl	8013280 <xTaskGenericNotifyFromISR>
 800a4e2:	9b03      	ldr	r3, [sp, #12]
 800a4e4:	803b      	strh	r3, [r7, #0]
 800a4e6:	9b02      	ldr	r3, [sp, #8]
 800a4e8:	3301      	adds	r3, #1
 800a4ea:	9302      	str	r3, [sp, #8]
 800a4ec:	4622      	mov	r2, r4
 800a4ee:	f896 1035 	ldrb.w	r1, [r6, #53]	; 0x35
 800a4f2:	f8bd 3008 	ldrh.w	r3, [sp, #8]
 800a4f6:	4299      	cmp	r1, r3
 800a4f8:	f67f aeee 	bls.w	800a2d8 <IIM42652_GetFIFOData_DMA_Complete+0x24>
 800a4fc:	f602 0725 	addw	r7, r2, #2085	; 0x825
 800a500:	18ab      	adds	r3, r5, r2
 800a502:	57e9      	ldrsb	r1, [r5, r7]
 800a504:	f893 3825 	ldrb.w	r3, [r3, #2085]	; 0x825
 800a508:	f88d 3034 	strb.w	r3, [sp, #52]	; 0x34
 800a50c:	1c54      	adds	r4, r2, #1
 800a50e:	2900      	cmp	r1, #0
 800a510:	5deb      	ldrb	r3, [r5, r7]
 800a512:	b2a4      	uxth	r4, r4
 800a514:	f6bf aeec 	bge.w	800a2f0 <IIM42652_GetFIFOData_DMA_Complete+0x3c>
 800a518:	4628      	mov	r0, r5
 800a51a:	f7ff fe1e 	bl	800a15a <IIM42652_FIFO_Flush>
 800a51e:	2300      	movs	r3, #0
 800a520:	f885 3824 	strb.w	r3, [r5, #2084]	; 0x824
 800a524:	f007 fa20 	bl	8011968 <osKernelRunning>
 800a528:	2801      	cmp	r0, #1
 800a52a:	d102      	bne.n	800a532 <IIM42652_GetFIFOData_DMA_Complete+0x27e>
 800a52c:	68e8      	ldr	r0, [r5, #12]
 800a52e:	f007 fb2d 	bl	8011b8c <osSemaphoreRelease>
 800a532:	9b04      	ldr	r3, [sp, #16]
 800a534:	b14b      	cbz	r3, 800a54a <IIM42652_GetFIFOData_DMA_Complete+0x296>
 800a536:	f04f 23e0 	mov.w	r3, #3758153728	; 0xe000e000
 800a53a:	f04f 5280 	mov.w	r2, #268435456	; 0x10000000
 800a53e:	f8c3 2d04 	str.w	r2, [r3, #3332]	; 0xd04
 800a542:	f3bf 8f4f 	dsb	sy
 800a546:	f3bf 8f6f 	isb	sy
 800a54a:	b013      	add	sp, #76	; 0x4c
 800a54c:	e8bd 8ff0 	ldmia.w	sp!, {r4, r5, r6, r7, r8, r9, sl, fp, pc}
 800a550:	aa04      	add	r2, sp, #16
 800a552:	a909      	add	r1, sp, #36	; 0x24
 800a554:	f8da 0000 	ldr.w	r0, [sl]
 800a558:	f007 ff90 	bl	801247c <xQueueReceiveFromISR>
 800a55c:	2300      	movs	r3, #0
 800a55e:	aa04      	add	r2, sp, #16
 800a560:	a905      	add	r1, sp, #20
 800a562:	f8da 0000 	ldr.w	r0, [sl]
 800a566:	f007 fd71 	bl	801204c <xQueueGenericSendFromISR>
 800a56a:	ab04      	add	r3, sp, #16
 800a56c:	480f      	ldr	r0, [pc, #60]	; (800a5ac <IIM42652_GetFIFOData_DMA_Complete+0x2f8>)
 800a56e:	9300      	str	r3, [sp, #0]
 800a570:	6800      	ldr	r0, [r0, #0]
 800a572:	2300      	movs	r3, #0
 800a574:	464a      	mov	r2, r9
 800a576:	2104      	movs	r1, #4
 800a578:	f008 fe82 	bl	8013280 <xTaskGenericNotifyFromISR>
 800a57c:	2300      	movs	r3, #0
 800a57e:	e7b1      	b.n	800a4e4 <IIM42652_GetFIFOData_DMA_Complete+0x230>
 800a580:	883b      	ldrh	r3, [r7, #0]
 800a582:	3301      	adds	r3, #1
 800a584:	b29b      	uxth	r3, r3
 800a586:	e7ad      	b.n	800a4e4 <IIM42652_GetFIFOData_DMA_Complete+0x230>
 800a588:	f8df b028 	ldr.w	fp, [pc, #40]	; 800a5b4 <IIM42652_GetFIFOData_DMA_Complete+0x300>
 800a58c:	f8df 8028 	ldr.w	r8, [pc, #40]	; 800a5b8 <IIM42652_GetFIFOData_DMA_Complete+0x304>
 800a590:	9402      	str	r4, [sp, #8]
 800a592:	2201      	movs	r2, #1
 800a594:	e7ab      	b.n	800a4ee <IIM42652_GetFIFOData_DMA_Complete+0x23a>
 800a596:	bf00      	nop
 800a598:	20000594 	.word	0x20000594
 800a59c:	200011a0 	.word	0x200011a0
 800a5a0:	200015a4 	.word	0x200015a4
 800a5a4:	200019a8 	.word	0x200019a8
 800a5a8:	20002e28 	.word	0x20002e28
 800a5ac:	2000ae84 	.word	0x2000ae84
 800a5b0:	20005608 	.word	0x20005608
 800a5b4:	20000190 	.word	0x20000190
 800a5b8:	20000998 	.word	0x20000998

0800a5bc <imuUsbPacketsCreator>:
 800a5bc:	e92d 41f0 	stmdb	sp!, {r4, r5, r6, r7, r8, lr}
 800a5c0:	b08a      	sub	sp, #40	; 0x28
 800a5c2:	460d      	mov	r5, r1
 800a5c4:	9f10      	ldr	r7, [sp, #64]	; 0x40
 800a5c6:	2f12      	cmp	r7, #18
 800a5c8:	4616      	mov	r6, r2
 800a5ca:	461c      	mov	r4, r3
 800a5cc:	d803      	bhi.n	800a5d6 <imuUsbPacketsCreator+0x1a>
 800a5ce:	2000      	movs	r0, #0
 800a5d0:	b00a      	add	sp, #40	; 0x28
 800a5d2:	e8bd 81f0 	ldmia.w	sp!, {r4, r5, r6, r7, r8, pc}
 800a5d6:	f04f 0811 	mov.w	r8, #17
 800a5da:	4642      	mov	r2, r8
 800a5dc:	2100      	movs	r1, #0
 800a5de:	a805      	add	r0, sp, #20
 800a5e0:	f00a ff9a 	bl	8015518 <memset>
 800a5e4:	23d0      	movs	r3, #208	; 0xd0
 800a5e6:	4632      	mov	r2, r6
 800a5e8:	4629      	mov	r1, r5
 800a5ea:	f10d 0015 	add.w	r0, sp, #21
 800a5ee:	f88d 3014 	strb.w	r3, [sp, #20]
 800a5f2:	f00a ff69 	bl	80154c8 <memcpy>
 800a5f6:	ab05      	add	r3, sp, #20
 800a5f8:	f8cd 8000 	str.w	r8, [sp]
 800a5fc:	463a      	mov	r2, r7
 800a5fe:	4621      	mov	r1, r4
 800a600:	a803      	add	r0, sp, #12
 800a602:	f000 fbb4 	bl	800ad6e <omdEncodeBuf>
 800a606:	f89d 3010 	ldrb.w	r3, [sp, #16]
 800a60a:	2b00      	cmp	r3, #0
 800a60c:	d1df      	bne.n	800a5ce <imuUsbPacketsCreator+0x12>
 800a60e:	9803      	ldr	r0, [sp, #12]
 800a610:	3001      	adds	r0, #1
 800a612:	e7dd      	b.n	800a5d0 <imuUsbPacketsCreator+0x14>

0800a614 <RGB_Init>:
 800a614:	b538      	push	{r3, r4, r5, lr}
 800a616:	4604      	mov	r4, r0
 800a618:	2500      	movs	r5, #0
 800a61a:	4608      	mov	r0, r1
 800a61c:	6021      	str	r1, [r4, #0]
 800a61e:	72a5      	strb	r5, [r4, #10]
 800a620:	f005 fa34 	bl	800fa8c <HAL_TIM_Base_Start_IT>
 800a624:	4629      	mov	r1, r5
 800a626:	6820      	ldr	r0, [r4, #0]
 800a628:	f005 fd46 	bl	80100b8 <HAL_TIM_PWM_Start>
 800a62c:	2104      	movs	r1, #4
 800a62e:	6820      	ldr	r0, [r4, #0]
 800a630:	f005 fd42 	bl	80100b8 <HAL_TIM_PWM_Start>
 800a634:	2108      	movs	r1, #8
 800a636:	6820      	ldr	r0, [r4, #0]
 800a638:	f005 fd3e 	bl	80100b8 <HAL_TIM_PWM_Start>
 800a63c:	f44f 7300 	mov.w	r3, #512	; 0x200
 800a640:	f04f 6280 	mov.w	r2, #67108864	; 0x4000000
 800a644:	e9c4 2305 	strd	r2, r3, [r4, #20]
 800a648:	f04f 7180 	mov.w	r1, #16777216	; 0x1000000
 800a64c:	f44f 7280 	mov.w	r2, #256	; 0x100
 800a650:	e9c4 2108 	strd	r2, r1, [r4, #32]
 800a654:	4905      	ldr	r1, [pc, #20]	; (800a66c <RGB_Init+0x58>)
 800a656:	6323      	str	r3, [r4, #48]	; 0x30
 800a658:	f44f 6380 	mov.w	r3, #1024	; 0x400
 800a65c:	e9c4 5503 	strd	r5, r5, [r4, #12]
 800a660:	e9c4 120a 	strd	r1, r2, [r4, #40]	; 0x28
 800a664:	61e5      	str	r5, [r4, #28]
 800a666:	86a3      	strh	r3, [r4, #52]	; 0x34
 800a668:	bd38      	pop	{r3, r4, r5, pc}
 800a66a:	bf00      	nop
 800a66c:	02000400 	.word	0x02000400

0800a670 <RGB_SetActColor>:
 800a670:	b513      	push	{r0, r1, r4, lr}
 800a672:	4604      	mov	r4, r0
 800a674:	4668      	mov	r0, sp
 800a676:	e880 0006 	stmia.w	r0, {r1, r2}
 800a67a:	6822      	ldr	r2, [r4, #0]
 800a67c:	f8bd 1004 	ldrh.w	r1, [sp, #4]
 800a680:	6812      	ldr	r2, [r2, #0]
 800a682:	f5c1 6180 	rsb	r1, r1, #1024	; 0x400
 800a686:	6351      	str	r1, [r2, #52]	; 0x34
 800a688:	f8bd 1000 	ldrh.w	r1, [sp]
 800a68c:	f5c1 6180 	rsb	r1, r1, #1024	; 0x400
 800a690:	6391      	str	r1, [r2, #56]	; 0x38
 800a692:	f8bd 1002 	ldrh.w	r1, [sp, #2]
 800a696:	f5c1 6180 	rsb	r1, r1, #1024	; 0x400
 800a69a:	63d1      	str	r1, [r2, #60]	; 0x3c
 800a69c:	b113      	cbz	r3, 800a6a4 <RGB_SetActColor+0x34>
 800a69e:	c803      	ldmia	r0, {r0, r1}
 800a6a0:	6060      	str	r0, [r4, #4]
 800a6a2:	8121      	strh	r1, [r4, #8]
 800a6a4:	b002      	add	sp, #8
 800a6a6:	bd10      	pop	{r4, pc}

0800a6a8 <RGB_Blink>:
 800a6a8:	7a83      	ldrb	r3, [r0, #10]
 800a6aa:	b510      	push	{r4, lr}
 800a6ac:	4604      	mov	r4, r0
 800a6ae:	b133      	cbz	r3, 800a6be <RGB_Blink+0x16>
 800a6b0:	e9d0 1203 	ldrd	r1, r2, [r0, #12]
 800a6b4:	2300      	movs	r3, #0
 800a6b6:	f7ff ffdb 	bl	800a670 <RGB_SetActColor>
 800a6ba:	72a3      	strb	r3, [r4, #10]
 800a6bc:	bd10      	pop	{r4, pc}
 800a6be:	e9d0 1201 	ldrd	r1, r2, [r0, #4]
 800a6c2:	f7ff ffd5 	bl	800a670 <RGB_SetActColor>
 800a6c6:	2301      	movs	r3, #1
 800a6c8:	e7f7      	b.n	800a6ba <RGB_Blink+0x12>
	...

0800a6cc <setConfigMode.part.0>:
 800a6cc:	b510      	push	{r4, lr}
 800a6ce:	4806      	ldr	r0, [pc, #24]	; (800a6e8 <setConfigMode.part.0+0x1c>)
 800a6d0:	f7ff f9bc 	bl	8009a4c <__IMU_TURN_ON>
 800a6d4:	4805      	ldr	r0, [pc, #20]	; (800a6ec <setConfigMode.part.0+0x20>)
 800a6d6:	e8bd 4010 	ldmia.w	sp!, {r4, lr}
 800a6da:	6800      	ldr	r0, [r0, #0]
 800a6dc:	2300      	movs	r3, #0
 800a6de:	2201      	movs	r2, #1
 800a6e0:	2110      	movs	r1, #16
 800a6e2:	f008 bd51 	b.w	8013188 <xTaskGenericNotify>
 800a6e6:	bf00      	nop
 800a6e8:	20001dac 	.word	0x20001dac
 800a6ec:	2000ae58 	.word	0x2000ae58

0800a6f0 <OMDProtocolInit>:
 800a6f0:	b537      	push	{r0, r1, r2, r4, r5, lr}
 800a6f2:	4604      	mov	r4, r0
 800a6f4:	2500      	movs	r5, #0
 800a6f6:	4668      	mov	r0, sp
 800a6f8:	e9cd 5500 	strd	r5, r5, [sp]
 800a6fc:	f007 f9ae 	bl	8011a5c <osMutexCreate>
 800a700:	6020      	str	r0, [r4, #0]
 800a702:	b940      	cbnz	r0, 800a716 <OMDProtocolInit+0x26>
 800a704:	f04f 0350 	mov.w	r3, #80	; 0x50
 800a708:	f383 8811 	msr	BASEPRI, r3
 800a70c:	f3bf 8f6f 	isb	sy
 800a710:	f3bf 8f4f 	dsb	sy
 800a714:	e7fe      	b.n	800a714 <OMDProtocolInit+0x24>
 800a716:	4629      	mov	r1, r5
 800a718:	f44f 6200 	mov.w	r2, #2048	; 0x800
 800a71c:	1d20      	adds	r0, r4, #4
 800a71e:	f00a fefb 	bl	8015518 <memset>
 800a722:	f44f 6200 	mov.w	r2, #2048	; 0x800
 800a726:	4629      	mov	r1, r5
 800a728:	f604 0004 	addw	r0, r4, #2052	; 0x804
 800a72c:	f00a fef4 	bl	8015518 <memset>
 800a730:	f504 5480 	add.w	r4, r4, #4096	; 0x1000
 800a734:	6065      	str	r5, [r4, #4]
 800a736:	b003      	add	sp, #12
 800a738:	bd30      	pop	{r4, r5, pc}

0800a73a <MoveRxDataInBuffer>:
 800a73a:	e92d 43f8 	stmdb	sp!, {r3, r4, r5, r6, r7, r8, r9, lr}
 800a73e:	4605      	mov	r5, r0
 800a740:	4610      	mov	r0, r2
 800a742:	460c      	mov	r4, r1
 800a744:	4616      	mov	r6, r2
 800a746:	f000 fd11 	bl	800b16c <vc_vector_clear>
 800a74a:	f505 5780 	add.w	r7, r5, #4096	; 0x1000
 800a74e:	4620      	mov	r0, r4
 800a750:	f000 fd01 	bl	800b156 <vc_vector_empty>
 800a754:	4681      	mov	r9, r0
 800a756:	bb00      	cbnz	r0, 800a79a <MoveRxDataInBuffer+0x60>
 800a758:	4620      	mov	r0, r4
 800a75a:	f000 fcf2 	bl	800b142 <vc_vector_front>
 800a75e:	4649      	mov	r1, r9
 800a760:	f890 8000 	ldrb.w	r8, [r0]
 800a764:	4620      	mov	r0, r4
 800a766:	f000 fd0a 	bl	800b17e <vc_vector_erase>
 800a76a:	88fb      	ldrh	r3, [r7, #6]
 800a76c:	f3c3 020a 	ubfx	r2, r3, #0, #11
 800a770:	442a      	add	r2, r5
 800a772:	f241 0008 	movw	r0, #4104	; 0x1008
 800a776:	3301      	adds	r3, #1
 800a778:	b29b      	uxth	r3, r3
 800a77a:	f802 8000 	strb.w	r8, [r2, r0]
 800a77e:	80fb      	strh	r3, [r7, #6]
 800a780:	f1b8 0f00 	cmp.w	r8, #0
 800a784:	d1e3      	bne.n	800a74e <MoveRxDataInBuffer+0x14>
 800a786:	88bc      	ldrh	r4, [r7, #4]
 800a788:	1b1b      	subs	r3, r3, r4
 800a78a:	b29c      	uxth	r4, r3
 800a78c:	4405      	add	r5, r0
 800a78e:	fa1f f388 	uxth.w	r3, r8
 800a792:	429c      	cmp	r4, r3
 800a794:	d803      	bhi.n	800a79e <MoveRxDataInBuffer+0x64>
 800a796:	2300      	movs	r3, #0
 800a798:	607b      	str	r3, [r7, #4]
 800a79a:	e8bd 83f8 	ldmia.w	sp!, {r3, r4, r5, r6, r7, r8, r9, pc}
 800a79e:	eb05 0108 	add.w	r1, r5, r8
 800a7a2:	4630      	mov	r0, r6
 800a7a4:	f000 fd40 	bl	800b228 <vc_vector_push_back>
 800a7a8:	f108 0801 	add.w	r8, r8, #1
 800a7ac:	e7ef      	b.n	800a78e <MoveRxDataInBuffer+0x54>
	...

0800a7b0 <ackCommand>:
 800a7b0:	e92d 43f0 	stmdb	sp!, {r4, r5, r6, r7, r8, r9, lr}
 800a7b4:	b087      	sub	sp, #28
 800a7b6:	2400      	movs	r4, #0
 800a7b8:	4688      	mov	r8, r1
 800a7ba:	4607      	mov	r7, r0
 800a7bc:	f88d 200f 	strb.w	r2, [sp, #15]
 800a7c0:	2101      	movs	r1, #1
 800a7c2:	4622      	mov	r2, r4
 800a7c4:	2003      	movs	r0, #3
 800a7c6:	9405      	str	r4, [sp, #20]
 800a7c8:	f000 fc98 	bl	800b0fc <vc_vector_create>
 800a7cc:	4622      	mov	r2, r4
 800a7ce:	4605      	mov	r5, r0
 800a7d0:	2101      	movs	r1, #1
 800a7d2:	2003      	movs	r0, #3
 800a7d4:	f000 fc92 	bl	800b0fc <vc_vector_create>
 800a7d8:	23ac      	movs	r3, #172	; 0xac
 800a7da:	f10d 0113 	add.w	r1, sp, #19
 800a7de:	4606      	mov	r6, r0
 800a7e0:	4628      	mov	r0, r5
 800a7e2:	f88d 3013 	strb.w	r3, [sp, #19]
 800a7e6:	f000 fd1f 	bl	800b228 <vc_vector_push_back>
 800a7ea:	4640      	mov	r0, r8
 800a7ec:	f000 fca9 	bl	800b142 <vc_vector_front>
 800a7f0:	4601      	mov	r1, r0
 800a7f2:	4628      	mov	r0, r5
 800a7f4:	f000 fd18 	bl	800b228 <vc_vector_push_back>
 800a7f8:	f10d 010f 	add.w	r1, sp, #15
 800a7fc:	4628      	mov	r0, r5
 800a7fe:	f000 fd13 	bl	800b228 <vc_vector_push_back>
 800a802:	4640      	mov	r0, r8
 800a804:	f000 fcb2 	bl	800b16c <vc_vector_clear>
 800a808:	4631      	mov	r1, r6
 800a80a:	4628      	mov	r0, r5
 800a80c:	f000 faf0 	bl	800adf0 <omdEncode>
 800a810:	6838      	ldr	r0, [r7, #0]
 800a812:	f8df 8058 	ldr.w	r8, [pc, #88]	; 800a86c <ackCommand+0xbc>
 800a816:	f04f 31ff 	mov.w	r1, #4294967295
 800a81a:	f007 f926 	bl	8011a6a <osMutexWait>
 800a81e:	4630      	mov	r0, r6
 800a820:	f000 fc9e 	bl	800b160 <vc_vector_count>
 800a824:	b2e5      	uxtb	r5, r4
 800a826:	42a8      	cmp	r0, r5
 800a828:	f104 0401 	add.w	r4, r4, #1
 800a82c:	d80e      	bhi.n	800a84c <ackCommand+0x9c>
 800a82e:	6838      	ldr	r0, [r7, #0]
 800a830:	f007 f940 	bl	8011ab4 <osMutexRelease>
 800a834:	ab05      	add	r3, sp, #20
 800a836:	480c      	ldr	r0, [pc, #48]	; (800a868 <ackCommand+0xb8>)
 800a838:	9300      	str	r3, [sp, #0]
 800a83a:	2201      	movs	r2, #1
 800a83c:	2300      	movs	r3, #0
 800a83e:	2104      	movs	r1, #4
 800a840:	6800      	ldr	r0, [r0, #0]
 800a842:	f008 fd1d 	bl	8013280 <xTaskGenericNotifyFromISR>
 800a846:	b007      	add	sp, #28
 800a848:	e8bd 83f0 	ldmia.w	sp!, {r4, r5, r6, r7, r8, r9, pc}
 800a84c:	4629      	mov	r1, r5
 800a84e:	4630      	mov	r0, r6
 800a850:	f8d8 9000 	ldr.w	r9, [r8]
 800a854:	f000 fc70 	bl	800b138 <vc_vector_at>
 800a858:	2300      	movs	r3, #0
 800a85a:	4601      	mov	r1, r0
 800a85c:	f04f 32ff 	mov.w	r2, #4294967295
 800a860:	4648      	mov	r0, r9
 800a862:	f007 fb11 	bl	8011e88 <xQueueGenericSend>
 800a866:	e7da      	b.n	800a81e <ackCommand+0x6e>
 800a868:	2000ae84 	.word	0x2000ae84
 800a86c:	2000c27c 	.word	0x2000c27c

0800a870 <saveUserConfig>:
 800a870:	4803      	ldr	r0, [pc, #12]	; (800a880 <saveUserConfig+0x10>)
 800a872:	2300      	movs	r3, #0
 800a874:	6800      	ldr	r0, [r0, #0]
 800a876:	2201      	movs	r2, #1
 800a878:	2140      	movs	r1, #64	; 0x40
 800a87a:	f008 bc85 	b.w	8013188 <xTaskGenericNotify>
 800a87e:	bf00      	nop
 800a880:	2000ae58 	.word	0x2000ae58

0800a884 <setConfigMode>:
 800a884:	b510      	push	{r4, lr}
 800a886:	b918      	cbnz	r0, 800a890 <setConfigMode+0xc>
 800a888:	e8bd 4010 	ldmia.w	sp!, {r4, lr}
 800a88c:	f7ff bf1e 	b.w	800a6cc <setConfigMode.part.0>
 800a890:	4805      	ldr	r0, [pc, #20]	; (800a8a8 <setConfigMode+0x24>)
 800a892:	f7ff f8ea 	bl	8009a6a <__IMU_TURN_OFF>
 800a896:	4805      	ldr	r0, [pc, #20]	; (800a8ac <setConfigMode+0x28>)
 800a898:	e8bd 4010 	ldmia.w	sp!, {r4, lr}
 800a89c:	6800      	ldr	r0, [r0, #0]
 800a89e:	2300      	movs	r3, #0
 800a8a0:	2201      	movs	r2, #1
 800a8a2:	2120      	movs	r1, #32
 800a8a4:	f008 bc70 	b.w	8013188 <xTaskGenericNotify>
 800a8a8:	20001dac 	.word	0x20001dac
 800a8ac:	2000ae58 	.word	0x2000ae58

0800a8b0 <setTelemetryEn>:
 800a8b0:	3800      	subs	r0, #0
 800a8b2:	4b03      	ldr	r3, [pc, #12]	; (800a8c0 <setTelemetryEn+0x10>)
 800a8b4:	bf18      	it	ne
 800a8b6:	2001      	movne	r0, #1
 800a8b8:	f883 0823 	strb.w	r0, [r3, #2083]	; 0x823
 800a8bc:	4770      	bx	lr
 800a8be:	bf00      	nop
 800a8c0:	20001dac 	.word	0x20001dac

0800a8c4 <setAccelODR>:
 800a8c4:	b538      	push	{r3, r4, r5, lr}
 800a8c6:	4604      	mov	r4, r0
 800a8c8:	460d      	mov	r5, r1
 800a8ca:	f7ff f930 	bl	8009b2e <IIM42652_SetAccelODR>
 800a8ce:	b918      	cbnz	r0, 800a8d8 <setAccelODR+0x14>
 800a8d0:	f504 5480 	add.w	r4, r4, #4096	; 0x1000
 800a8d4:	6ee3      	ldr	r3, [r4, #108]	; 0x6c
 800a8d6:	705d      	strb	r5, [r3, #1]
 800a8d8:	bd38      	pop	{r3, r4, r5, pc}

0800a8da <setGyroODR>:
 800a8da:	b538      	push	{r3, r4, r5, lr}
 800a8dc:	4604      	mov	r4, r0
 800a8de:	460d      	mov	r5, r1
 800a8e0:	f7ff f8f4 	bl	8009acc <IIM42652_SetGyroODR>
 800a8e4:	b918      	cbnz	r0, 800a8ee <setGyroODR+0x14>
 800a8e6:	f504 5480 	add.w	r4, r4, #4096	; 0x1000
 800a8ea:	6ee3      	ldr	r3, [r4, #108]	; 0x6c
 800a8ec:	711d      	strb	r5, [r3, #4]
 800a8ee:	bd38      	pop	{r3, r4, r5, pc}

0800a8f0 <setAccelFSR>:
 800a8f0:	b538      	push	{r3, r4, r5, lr}
 800a8f2:	4604      	mov	r4, r0
 800a8f4:	460d      	mov	r5, r1
 800a8f6:	f7ff f9c4 	bl	8009c82 <IIM42652_SetAccelFSR>
 800a8fa:	b918      	cbnz	r0, 800a904 <setAccelFSR+0x14>
 800a8fc:	f504 5480 	add.w	r4, r4, #4096	; 0x1000
 800a900:	6ee3      	ldr	r3, [r4, #108]	; 0x6c
 800a902:	701d      	strb	r5, [r3, #0]
 800a904:	bd38      	pop	{r3, r4, r5, pc}

0800a906 <setGyroFSR>:
 800a906:	b538      	push	{r3, r4, r5, lr}
 800a908:	4604      	mov	r4, r0
 800a90a:	460d      	mov	r5, r1
 800a90c:	f7ff fa32 	bl	8009d74 <IIM42652_SetGyroFSR>
 800a910:	b918      	cbnz	r0, 800a91a <setGyroFSR+0x14>
 800a912:	f504 5480 	add.w	r4, r4, #4096	; 0x1000
 800a916:	6ee3      	ldr	r3, [r4, #108]	; 0x6c
 800a918:	70dd      	strb	r5, [r3, #3]
 800a91a:	bd38      	pop	{r3, r4, r5, pc}

0800a91c <setAccelBW>:
 800a91c:	b538      	push	{r3, r4, r5, lr}
 800a91e:	4604      	mov	r4, r0
 800a920:	460d      	mov	r5, r1
 800a922:	f7ff f935 	bl	8009b90 <IIM42652_SetAccelBW>
 800a926:	b918      	cbnz	r0, 800a930 <setAccelBW+0x14>
 800a928:	f504 5480 	add.w	r4, r4, #4096	; 0x1000
 800a92c:	6ee3      	ldr	r3, [r4, #108]	; 0x6c
 800a92e:	709d      	strb	r5, [r3, #2]
 800a930:	bd38      	pop	{r3, r4, r5, pc}

0800a932 <setGyroBW>:
 800a932:	b538      	push	{r3, r4, r5, lr}
 800a934:	4604      	mov	r4, r0
 800a936:	460d      	mov	r5, r1
 800a938:	f7ff f94d 	bl	8009bd6 <IIM42652_SetGyroBW>
 800a93c:	b918      	cbnz	r0, 800a946 <setGyroBW+0x14>
 800a93e:	f504 5480 	add.w	r4, r4, #4096	; 0x1000
 800a942:	6ee3      	ldr	r3, [r4, #108]	; 0x6c
 800a944:	715d      	strb	r5, [r3, #5]
 800a946:	bd38      	pop	{r3, r4, r5, pc}

0800a948 <setWomXth>:
 800a948:	b538      	push	{r3, r4, r5, lr}
 800a94a:	4604      	mov	r4, r0
 800a94c:	460d      	mov	r5, r1
 800a94e:	f7fe ffaa 	bl	80098a6 <IIM42652_SetWomXTh>
 800a952:	b918      	cbnz	r0, 800a95c <setWomXth+0x14>
 800a954:	f504 5480 	add.w	r4, r4, #4096	; 0x1000
 800a958:	6ee3      	ldr	r3, [r4, #108]	; 0x6c
 800a95a:	719d      	strb	r5, [r3, #6]
 800a95c:	bd38      	pop	{r3, r4, r5, pc}

0800a95e <setWomYth>:
 800a95e:	b538      	push	{r3, r4, r5, lr}
 800a960:	4604      	mov	r4, r0
 800a962:	460d      	mov	r5, r1
 800a964:	f7fe ffb7 	bl	80098d6 <IIM42652_SetWomYTh>
 800a968:	b918      	cbnz	r0, 800a972 <setWomYth+0x14>
 800a96a:	f504 5480 	add.w	r4, r4, #4096	; 0x1000
 800a96e:	6ee3      	ldr	r3, [r4, #108]	; 0x6c
 800a970:	71dd      	strb	r5, [r3, #7]
 800a972:	bd38      	pop	{r3, r4, r5, pc}

0800a974 <setWomZth>:
 800a974:	b538      	push	{r3, r4, r5, lr}
 800a976:	4604      	mov	r4, r0
 800a978:	460d      	mov	r5, r1
 800a97a:	f7fe ffc4 	bl	8009906 <IIM42652_SetWomZTh>
 800a97e:	b918      	cbnz	r0, 800a988 <setWomZth+0x14>
 800a980:	f504 5480 	add.w	r4, r4, #4096	; 0x1000
 800a984:	6ee3      	ldr	r3, [r4, #108]	; 0x6c
 800a986:	721d      	strb	r5, [r3, #8]
 800a988:	bd38      	pop	{r3, r4, r5, pc}

0800a98a <setWomIntMode>:
 800a98a:	b538      	push	{r3, r4, r5, lr}
 800a98c:	4604      	mov	r4, r0
 800a98e:	460d      	mov	r5, r1
 800a990:	f7fe ffcc 	bl	800992c <IIM42652_SetWOMIntMode>
 800a994:	b918      	cbnz	r0, 800a99e <setWomIntMode+0x14>
 800a996:	f504 5480 	add.w	r4, r4, #4096	; 0x1000
 800a99a:	6ee3      	ldr	r3, [r4, #108]	; 0x6c
 800a99c:	725d      	strb	r5, [r3, #9]
 800a99e:	bd38      	pop	{r3, r4, r5, pc}

0800a9a0 <setWomMode>:
 800a9a0:	b538      	push	{r3, r4, r5, lr}
 800a9a2:	4604      	mov	r4, r0
 800a9a4:	460d      	mov	r5, r1
 800a9a6:	f7fe ffd9 	bl	800995c <IIM42652_SetWOMMode>
 800a9aa:	b918      	cbnz	r0, 800a9b4 <setWomMode+0x14>
 800a9ac:	f504 5480 	add.w	r4, r4, #4096	; 0x1000
 800a9b0:	6ee3      	ldr	r3, [r4, #108]	; 0x6c
 800a9b2:	729d      	strb	r5, [r3, #10]
 800a9b4:	bd38      	pop	{r3, r4, r5, pc}

0800a9b6 <setSmdMode>:
 800a9b6:	b538      	push	{r3, r4, r5, lr}
 800a9b8:	4604      	mov	r4, r0
 800a9ba:	460d      	mov	r5, r1
 800a9bc:	f7fe ffe6 	bl	800998c <IIM42652_SetSMDMode>
 800a9c0:	b918      	cbnz	r0, 800a9ca <setSmdMode+0x14>
 800a9c2:	f504 5480 	add.w	r4, r4, #4096	; 0x1000
 800a9c6:	6ee3      	ldr	r3, [r4, #108]	; 0x6c
 800a9c8:	72dd      	strb	r5, [r3, #11]
 800a9ca:	bd38      	pop	{r3, r4, r5, pc}

0800a9cc <executeCommand>:
 800a9cc:	b537      	push	{r0, r1, r2, r4, r5, lr}
 800a9ce:	4605      	mov	r5, r0
 800a9d0:	4608      	mov	r0, r1
 800a9d2:	460c      	mov	r4, r1
 800a9d4:	f000 fbb5 	bl	800b142 <vc_vector_front>
 800a9d8:	7803      	ldrb	r3, [r0, #0]
 800a9da:	2b3b      	cmp	r3, #59	; 0x3b
 800a9dc:	d862      	bhi.n	800aaa4 <executeCommand+0xd8>
 800a9de:	2b0f      	cmp	r3, #15
 800a9e0:	d801      	bhi.n	800a9e6 <executeCommand+0x1a>
 800a9e2:	b003      	add	sp, #12
 800a9e4:	bd30      	pop	{r4, r5, pc}
 800a9e6:	3b10      	subs	r3, #16
 800a9e8:	2b2b      	cmp	r3, #43	; 0x2b
 800a9ea:	d8fa      	bhi.n	800a9e2 <executeCommand+0x16>
 800a9ec:	a201      	add	r2, pc, #4	; (adr r2, 800a9f4 <executeCommand+0x28>)
 800a9ee:	f852 f023 	ldr.w	pc, [r2, r3, lsl #2]
 800a9f2:	bf00      	nop
 800a9f4:	0800ab7f 	.word	0x0800ab7f
 800a9f8:	0800ab95 	.word	0x0800ab95
 800a9fc:	0800abab 	.word	0x0800abab
 800aa00:	0800abc1 	.word	0x0800abc1
 800aa04:	0800ac11 	.word	0x0800ac11
 800aa08:	0800ac27 	.word	0x0800ac27
 800aa0c:	0800a9e3 	.word	0x0800a9e3
 800aa10:	0800a9e3 	.word	0x0800a9e3
 800aa14:	0800a9e3 	.word	0x0800a9e3
 800aa18:	0800a9e3 	.word	0x0800a9e3
 800aa1c:	0800a9e3 	.word	0x0800a9e3
 800aa20:	0800a9e3 	.word	0x0800a9e3
 800aa24:	0800a9e3 	.word	0x0800a9e3
 800aa28:	0800a9e3 	.word	0x0800a9e3
 800aa2c:	0800a9e3 	.word	0x0800a9e3
 800aa30:	0800a9e3 	.word	0x0800a9e3
 800aa34:	0800abcd 	.word	0x0800abcd
 800aa38:	0800abe3 	.word	0x0800abe3
 800aa3c:	0800abef 	.word	0x0800abef
 800aa40:	0800ac05 	.word	0x0800ac05
 800aa44:	0800ac33 	.word	0x0800ac33
 800aa48:	0800ac49 	.word	0x0800ac49
 800aa4c:	0800a9e3 	.word	0x0800a9e3
 800aa50:	0800a9e3 	.word	0x0800a9e3
 800aa54:	0800a9e3 	.word	0x0800a9e3
 800aa58:	0800a9e3 	.word	0x0800a9e3
 800aa5c:	0800a9e3 	.word	0x0800a9e3
 800aa60:	0800a9e3 	.word	0x0800a9e3
 800aa64:	0800a9e3 	.word	0x0800a9e3
 800aa68:	0800a9e3 	.word	0x0800a9e3
 800aa6c:	0800a9e3 	.word	0x0800a9e3
 800aa70:	0800a9e3 	.word	0x0800a9e3
 800aa74:	0800ac55 	.word	0x0800ac55
 800aa78:	0800ac6b 	.word	0x0800ac6b
 800aa7c:	0800ac77 	.word	0x0800ac77
 800aa80:	0800ac8d 	.word	0x0800ac8d
 800aa84:	0800ac99 	.word	0x0800ac99
 800aa88:	0800acaf 	.word	0x0800acaf
 800aa8c:	0800acbb 	.word	0x0800acbb
 800aa90:	0800acd1 	.word	0x0800acd1
 800aa94:	0800acdd 	.word	0x0800acdd
 800aa98:	0800acf3 	.word	0x0800acf3
 800aa9c:	0800acff 	.word	0x0800acff
 800aaa0:	0800ad15 	.word	0x0800ad15
 800aaa4:	f103 0210 	add.w	r2, r3, #16
 800aaa8:	b2d2      	uxtb	r2, r2
 800aaaa:	2a0e      	cmp	r2, #14
 800aaac:	d899      	bhi.n	800a9e2 <executeCommand+0x16>
 800aaae:	3bf0      	subs	r3, #240	; 0xf0
 800aab0:	2b0e      	cmp	r3, #14
 800aab2:	d896      	bhi.n	800a9e2 <executeCommand+0x16>
 800aab4:	a201      	add	r2, pc, #4	; (adr r2, 800aabc <executeCommand+0xf0>)
 800aab6:	f852 f023 	ldr.w	pc, [r2, r3, lsl #2]
 800aaba:	bf00      	nop
 800aabc:	0800aaf9 	.word	0x0800aaf9
 800aac0:	0800a9e3 	.word	0x0800a9e3
 800aac4:	0800a9e3 	.word	0x0800a9e3
 800aac8:	0800a9e3 	.word	0x0800a9e3
 800aacc:	0800a9e3 	.word	0x0800a9e3
 800aad0:	0800a9e3 	.word	0x0800a9e3
 800aad4:	0800a9e3 	.word	0x0800a9e3
 800aad8:	0800a9e3 	.word	0x0800a9e3
 800aadc:	0800a9e3 	.word	0x0800a9e3
 800aae0:	0800a9e3 	.word	0x0800a9e3
 800aae4:	0800ab61 	.word	0x0800ab61
 800aae8:	0800ab77 	.word	0x0800ab77
 800aaec:	0800ab35 	.word	0x0800ab35
 800aaf0:	0800ab53 	.word	0x0800ab53
 800aaf4:	0800ab1b 	.word	0x0800ab1b
 800aaf8:	2101      	movs	r1, #1
 800aafa:	4620      	mov	r0, r4
 800aafc:	f000 fb1c 	bl	800b138 <vc_vector_at>
 800ab00:	7803      	ldrb	r3, [r0, #0]
 800ab02:	f88d 3007 	strb.w	r3, [sp, #7]
 800ab06:	b113      	cbz	r3, 800ab0e <executeCommand+0x142>
 800ab08:	f7ff feb2 	bl	800a870 <saveUserConfig>
 800ab0c:	e769      	b.n	800a9e2 <executeCommand+0x16>
 800ab0e:	2201      	movs	r2, #1
 800ab10:	4621      	mov	r1, r4
 800ab12:	4628      	mov	r0, r5
 800ab14:	f7ff fe4c 	bl	800a7b0 <ackCommand>
 800ab18:	e763      	b.n	800a9e2 <executeCommand+0x16>
 800ab1a:	2101      	movs	r1, #1
 800ab1c:	4620      	mov	r0, r4
 800ab1e:	f000 fb0b 	bl	800b138 <vc_vector_at>
 800ab22:	7803      	ldrb	r3, [r0, #0]
 800ab24:	f88d 3007 	strb.w	r3, [sp, #7]
 800ab28:	2b00      	cmp	r3, #0
 800ab2a:	d0f0      	beq.n	800ab0e <executeCommand+0x142>
 800ab2c:	487c      	ldr	r0, [pc, #496]	; (800ad20 <executeCommand+0x354>)
 800ab2e:	f7fe fbaa 	bl	8009286 <IIM42652_SoftReset>
 800ab32:	e756      	b.n	800a9e2 <executeCommand+0x16>
 800ab34:	2101      	movs	r1, #1
 800ab36:	4620      	mov	r0, r4
 800ab38:	f000 fafe 	bl	800b138 <vc_vector_at>
 800ab3c:	7803      	ldrb	r3, [r0, #0]
 800ab3e:	f88d 3007 	strb.w	r3, [sp, #7]
 800ab42:	b11b      	cbz	r3, 800ab4c <executeCommand+0x180>
 800ab44:	2001      	movs	r0, #1
 800ab46:	f7ff fe9d 	bl	800a884 <setConfigMode>
 800ab4a:	e74a      	b.n	800a9e2 <executeCommand+0x16>
 800ab4c:	f7ff fdbe 	bl	800a6cc <setConfigMode.part.0>
 800ab50:	e747      	b.n	800a9e2 <executeCommand+0x16>
 800ab52:	4b74      	ldr	r3, [pc, #464]	; (800ad24 <executeCommand+0x358>)
 800ab54:	791a      	ldrb	r2, [r3, #4]
 800ab56:	f082 0201 	eor.w	r2, r2, #1
 800ab5a:	f88d 2007 	strb.w	r2, [sp, #7]
 800ab5e:	e7d7      	b.n	800ab10 <executeCommand+0x144>
 800ab60:	2101      	movs	r1, #1
 800ab62:	4620      	mov	r0, r4
 800ab64:	f000 fae8 	bl	800b138 <vc_vector_at>
 800ab68:	7800      	ldrb	r0, [r0, #0]
 800ab6a:	f88d 0007 	strb.w	r0, [sp, #7]
 800ab6e:	f7ff fe9f 	bl	800a8b0 <setTelemetryEn>
 800ab72:	2210      	movs	r2, #16
 800ab74:	e7cc      	b.n	800ab10 <executeCommand+0x144>
 800ab76:	4b6a      	ldr	r3, [pc, #424]	; (800ad20 <executeCommand+0x354>)
 800ab78:	f893 2823 	ldrb.w	r2, [r3, #2083]	; 0x823
 800ab7c:	e7ed      	b.n	800ab5a <executeCommand+0x18e>
 800ab7e:	2101      	movs	r1, #1
 800ab80:	4620      	mov	r0, r4
 800ab82:	f000 fad9 	bl	800b138 <vc_vector_at>
 800ab86:	7801      	ldrb	r1, [r0, #0]
 800ab88:	4865      	ldr	r0, [pc, #404]	; (800ad20 <executeCommand+0x354>)
 800ab8a:	f88d 1007 	strb.w	r1, [sp, #7]
 800ab8e:	f7ff fe99 	bl	800a8c4 <setAccelODR>
 800ab92:	e7ee      	b.n	800ab72 <executeCommand+0x1a6>
 800ab94:	4862      	ldr	r0, [pc, #392]	; (800ad20 <executeCommand+0x354>)
 800ab96:	f10d 0107 	add.w	r1, sp, #7
 800ab9a:	f7fe ffed 	bl	8009b78 <IIM42652_GetAccelODR>
 800ab9e:	2800      	cmp	r0, #0
 800aba0:	f47f af1f 	bne.w	800a9e2 <executeCommand+0x16>
 800aba4:	f89d 2007 	ldrb.w	r2, [sp, #7]
 800aba8:	e7b2      	b.n	800ab10 <executeCommand+0x144>
 800abaa:	2101      	movs	r1, #1
 800abac:	4620      	mov	r0, r4
 800abae:	f000 fac3 	bl	800b138 <vc_vector_at>
 800abb2:	7801      	ldrb	r1, [r0, #0]
 800abb4:	485a      	ldr	r0, [pc, #360]	; (800ad20 <executeCommand+0x354>)
 800abb6:	f88d 1007 	strb.w	r1, [sp, #7]
 800abba:	f7ff fe99 	bl	800a8f0 <setAccelFSR>
 800abbe:	e7d8      	b.n	800ab72 <executeCommand+0x1a6>
 800abc0:	f10d 0107 	add.w	r1, sp, #7
 800abc4:	4856      	ldr	r0, [pc, #344]	; (800ad20 <executeCommand+0x354>)
 800abc6:	f7fe ff75 	bl	8009ab4 <IIM42652_GetAccelFSR>
 800abca:	e7e8      	b.n	800ab9e <executeCommand+0x1d2>
 800abcc:	2101      	movs	r1, #1
 800abce:	4620      	mov	r0, r4
 800abd0:	f000 fab2 	bl	800b138 <vc_vector_at>
 800abd4:	7801      	ldrb	r1, [r0, #0]
 800abd6:	4852      	ldr	r0, [pc, #328]	; (800ad20 <executeCommand+0x354>)
 800abd8:	f88d 1007 	strb.w	r1, [sp, #7]
 800abdc:	f7ff fe7d 	bl	800a8da <setGyroODR>
 800abe0:	e7c7      	b.n	800ab72 <executeCommand+0x1a6>
 800abe2:	f10d 0107 	add.w	r1, sp, #7
 800abe6:	484e      	ldr	r0, [pc, #312]	; (800ad20 <executeCommand+0x354>)
 800abe8:	f7fe ff95 	bl	8009b16 <IIM42652_GetGyroODR>
 800abec:	e7d7      	b.n	800ab9e <executeCommand+0x1d2>
 800abee:	2101      	movs	r1, #1
 800abf0:	4620      	mov	r0, r4
 800abf2:	f000 faa1 	bl	800b138 <vc_vector_at>
 800abf6:	7801      	ldrb	r1, [r0, #0]
 800abf8:	4849      	ldr	r0, [pc, #292]	; (800ad20 <executeCommand+0x354>)
 800abfa:	f88d 1007 	strb.w	r1, [sp, #7]
 800abfe:	f7ff fe82 	bl	800a906 <setGyroFSR>
 800ac02:	e7b6      	b.n	800ab72 <executeCommand+0x1a6>
 800ac04:	f10d 0107 	add.w	r1, sp, #7
 800ac08:	4845      	ldr	r0, [pc, #276]	; (800ad20 <executeCommand+0x354>)
 800ac0a:	f7fe ff47 	bl	8009a9c <IIM42652_GetGyroFSR>
 800ac0e:	e7c6      	b.n	800ab9e <executeCommand+0x1d2>
 800ac10:	2101      	movs	r1, #1
 800ac12:	4620      	mov	r0, r4
 800ac14:	f000 fa90 	bl	800b138 <vc_vector_at>
 800ac18:	7801      	ldrb	r1, [r0, #0]
 800ac1a:	4841      	ldr	r0, [pc, #260]	; (800ad20 <executeCommand+0x354>)
 800ac1c:	f88d 1007 	strb.w	r1, [sp, #7]
 800ac20:	f7ff fe7c 	bl	800a91c <setAccelBW>
 800ac24:	e7a5      	b.n	800ab72 <executeCommand+0x1a6>
 800ac26:	f10d 0107 	add.w	r1, sp, #7
 800ac2a:	483d      	ldr	r0, [pc, #244]	; (800ad20 <executeCommand+0x354>)
 800ac2c:	f7fe ffc7 	bl	8009bbe <IIM42652_GetAccelBW>
 800ac30:	e7b5      	b.n	800ab9e <executeCommand+0x1d2>
 800ac32:	2101      	movs	r1, #1
 800ac34:	4620      	mov	r0, r4
 800ac36:	f000 fa7f 	bl	800b138 <vc_vector_at>
 800ac3a:	7801      	ldrb	r1, [r0, #0]
 800ac3c:	4838      	ldr	r0, [pc, #224]	; (800ad20 <executeCommand+0x354>)
 800ac3e:	f88d 1007 	strb.w	r1, [sp, #7]
 800ac42:	f7ff fe76 	bl	800a932 <setGyroBW>
 800ac46:	e794      	b.n	800ab72 <executeCommand+0x1a6>
 800ac48:	f10d 0107 	add.w	r1, sp, #7
 800ac4c:	4834      	ldr	r0, [pc, #208]	; (800ad20 <executeCommand+0x354>)
 800ac4e:	f7fe ffd9 	bl	8009c04 <IIM42652_GetGyroBW>
 800ac52:	e7a4      	b.n	800ab9e <executeCommand+0x1d2>
 800ac54:	2101      	movs	r1, #1
 800ac56:	4620      	mov	r0, r4
 800ac58:	f000 fa6e 	bl	800b138 <vc_vector_at>
 800ac5c:	7801      	ldrb	r1, [r0, #0]
 800ac5e:	4830      	ldr	r0, [pc, #192]	; (800ad20 <executeCommand+0x354>)
 800ac60:	f88d 1007 	strb.w	r1, [sp, #7]
 800ac64:	f7ff fe70 	bl	800a948 <setWomXth>
 800ac68:	e783      	b.n	800ab72 <executeCommand+0x1a6>
 800ac6a:	f10d 0107 	add.w	r1, sp, #7
 800ac6e:	482c      	ldr	r0, [pc, #176]	; (800ad20 <executeCommand+0x354>)
 800ac70:	f7fe fe14 	bl	800989c <IIM42652_GetWomXTh>
 800ac74:	e793      	b.n	800ab9e <executeCommand+0x1d2>
 800ac76:	2101      	movs	r1, #1
 800ac78:	4620      	mov	r0, r4
 800ac7a:	f000 fa5d 	bl	800b138 <vc_vector_at>
 800ac7e:	7801      	ldrb	r1, [r0, #0]
 800ac80:	4827      	ldr	r0, [pc, #156]	; (800ad20 <executeCommand+0x354>)
 800ac82:	f88d 1007 	strb.w	r1, [sp, #7]
 800ac86:	f7ff fe6a 	bl	800a95e <setWomYth>
 800ac8a:	e772      	b.n	800ab72 <executeCommand+0x1a6>
 800ac8c:	f10d 0107 	add.w	r1, sp, #7
 800ac90:	4823      	ldr	r0, [pc, #140]	; (800ad20 <executeCommand+0x354>)
 800ac92:	f7fe fe1b 	bl	80098cc <IIM42652_GetWomYTh>
 800ac96:	e782      	b.n	800ab9e <executeCommand+0x1d2>
 800ac98:	2101      	movs	r1, #1
 800ac9a:	4620      	mov	r0, r4
 800ac9c:	f000 fa4c 	bl	800b138 <vc_vector_at>
 800aca0:	7801      	ldrb	r1, [r0, #0]
 800aca2:	481f      	ldr	r0, [pc, #124]	; (800ad20 <executeCommand+0x354>)
 800aca4:	f88d 1007 	strb.w	r1, [sp, #7]
 800aca8:	f7ff fe64 	bl	800a974 <setWomZth>
 800acac:	e761      	b.n	800ab72 <executeCommand+0x1a6>
 800acae:	f10d 0107 	add.w	r1, sp, #7
 800acb2:	481b      	ldr	r0, [pc, #108]	; (800ad20 <executeCommand+0x354>)
 800acb4:	f7fe fe22 	bl	80098fc <IIM42652_GetWomZTh>
 800acb8:	e771      	b.n	800ab9e <executeCommand+0x1d2>
 800acba:	2101      	movs	r1, #1
 800acbc:	4620      	mov	r0, r4
 800acbe:	f000 fa3b 	bl	800b138 <vc_vector_at>
 800acc2:	7801      	ldrb	r1, [r0, #0]
 800acc4:	4816      	ldr	r0, [pc, #88]	; (800ad20 <executeCommand+0x354>)
 800acc6:	f88d 1007 	strb.w	r1, [sp, #7]
 800acca:	f7ff fe5e 	bl	800a98a <setWomIntMode>
 800acce:	e750      	b.n	800ab72 <executeCommand+0x1a6>
 800acd0:	f10d 0107 	add.w	r1, sp, #7
 800acd4:	4812      	ldr	r0, [pc, #72]	; (800ad20 <executeCommand+0x354>)
 800acd6:	f7fe fe35 	bl	8009944 <IIM42652_GetWOMIntMode>
 800acda:	e760      	b.n	800ab9e <executeCommand+0x1d2>
 800acdc:	2101      	movs	r1, #1
 800acde:	4620      	mov	r0, r4
 800ace0:	f000 fa2a 	bl	800b138 <vc_vector_at>
 800ace4:	7801      	ldrb	r1, [r0, #0]
 800ace6:	480e      	ldr	r0, [pc, #56]	; (800ad20 <executeCommand+0x354>)
 800ace8:	f88d 1007 	strb.w	r1, [sp, #7]
 800acec:	f7ff fe58 	bl	800a9a0 <setWomMode>
 800acf0:	e73f      	b.n	800ab72 <executeCommand+0x1a6>
 800acf2:	f10d 0107 	add.w	r1, sp, #7
 800acf6:	480a      	ldr	r0, [pc, #40]	; (800ad20 <executeCommand+0x354>)
 800acf8:	f7fe fe3c 	bl	8009974 <IIM42652_GetWOMMode>
 800acfc:	e74f      	b.n	800ab9e <executeCommand+0x1d2>
 800acfe:	2101      	movs	r1, #1
 800ad00:	4620      	mov	r0, r4
 800ad02:	f000 fa19 	bl	800b138 <vc_vector_at>
 800ad06:	7801      	ldrb	r1, [r0, #0]
 800ad08:	4805      	ldr	r0, [pc, #20]	; (800ad20 <executeCommand+0x354>)
 800ad0a:	f88d 1007 	strb.w	r1, [sp, #7]
 800ad0e:	f7ff fe52 	bl	800a9b6 <setSmdMode>
 800ad12:	e72e      	b.n	800ab72 <executeCommand+0x1a6>
 800ad14:	f10d 0107 	add.w	r1, sp, #7
 800ad18:	4801      	ldr	r0, [pc, #4]	; (800ad20 <executeCommand+0x354>)
 800ad1a:	f7fe fe43 	bl	80099a4 <IIM42652_GetSMDMode>
 800ad1e:	e73e      	b.n	800ab9e <executeCommand+0x1d2>
 800ad20:	20001dac 	.word	0x20001dac
 800ad24:	2000466c 	.word	0x2000466c

0800ad28 <GiveRxData>:
 800ad28:	2200      	movs	r2, #0
 800ad2a:	b573      	push	{r0, r1, r4, r5, r6, lr}
 800ad2c:	4605      	mov	r5, r0
 800ad2e:	460e      	mov	r6, r1
 800ad30:	4610      	mov	r0, r2
 800ad32:	2101      	movs	r1, #1
 800ad34:	f000 f9e2 	bl	800b0fc <vc_vector_create>
 800ad38:	4604      	mov	r4, r0
 800ad3a:	4622      	mov	r2, r4
 800ad3c:	4631      	mov	r1, r6
 800ad3e:	4628      	mov	r0, r5
 800ad40:	f7ff fcfb 	bl	800a73a <MoveRxDataInBuffer>
 800ad44:	4620      	mov	r0, r4
 800ad46:	f000 fa06 	bl	800b156 <vc_vector_empty>
 800ad4a:	4602      	mov	r2, r0
 800ad4c:	b108      	cbz	r0, 800ad52 <GiveRxData+0x2a>
 800ad4e:	b002      	add	sp, #8
 800ad50:	bd70      	pop	{r4, r5, r6, pc}
 800ad52:	2101      	movs	r1, #1
 800ad54:	2002      	movs	r0, #2
 800ad56:	f000 f9d1 	bl	800b0fc <vc_vector_create>
 800ad5a:	4601      	mov	r1, r0
 800ad5c:	9001      	str	r0, [sp, #4]
 800ad5e:	4620      	mov	r0, r4
 800ad60:	f000 f893 	bl	800ae8a <omdDecode>
 800ad64:	9901      	ldr	r1, [sp, #4]
 800ad66:	4628      	mov	r0, r5
 800ad68:	f7ff fe30 	bl	800a9cc <executeCommand>
 800ad6c:	e7e5      	b.n	800ad3a <GiveRxData+0x12>

0800ad6e <omdEncodeBuf>:
 800ad6e:	b5f0      	push	{r4, r5, r6, r7, lr}
 800ad70:	9d05      	ldr	r5, [sp, #20]
 800ad72:	b101      	cbz	r1, 800ad76 <omdEncodeBuf+0x8>
 800ad74:	b923      	cbnz	r3, 800ad80 <omdEncodeBuf+0x12>
 800ad76:	2300      	movs	r3, #0
 800ad78:	6003      	str	r3, [r0, #0]
 800ad7a:	2301      	movs	r3, #1
 800ad7c:	7103      	strb	r3, [r0, #4]
 800ad7e:	bdf0      	pop	{r4, r5, r6, r7, pc}
 800ad80:	188e      	adds	r6, r1, r2
 800ad82:	1c4a      	adds	r2, r1, #1
 800ad84:	b1fd      	cbz	r5, 800adc6 <omdEncodeBuf+0x58>
 800ad86:	eb03 0e05 	add.w	lr, r3, r5
 800ad8a:	460f      	mov	r7, r1
 800ad8c:	2401      	movs	r4, #1
 800ad8e:	42b2      	cmp	r2, r6
 800ad90:	d223      	bcs.n	800adda <omdEncodeBuf+0x6c>
 800ad92:	f813 5b01 	ldrb.w	r5, [r3], #1
 800ad96:	f102 0c01 	add.w	ip, r2, #1
 800ad9a:	b945      	cbnz	r5, 800adae <omdEncodeBuf+0x40>
 800ad9c:	459e      	cmp	lr, r3
 800ad9e:	703c      	strb	r4, [r7, #0]
 800ada0:	d920      	bls.n	800ade4 <omdEncodeBuf+0x76>
 800ada2:	2401      	movs	r4, #1
 800ada4:	e000      	b.n	800ada8 <omdEncodeBuf+0x3a>
 800ada6:	463a      	mov	r2, r7
 800ada8:	4617      	mov	r7, r2
 800adaa:	4662      	mov	r2, ip
 800adac:	e7ef      	b.n	800ad8e <omdEncodeBuf+0x20>
 800adae:	3401      	adds	r4, #1
 800adb0:	459e      	cmp	lr, r3
 800adb2:	7015      	strb	r5, [r2, #0]
 800adb4:	b2e4      	uxtb	r4, r4
 800adb6:	d912      	bls.n	800adde <omdEncodeBuf+0x70>
 800adb8:	2cff      	cmp	r4, #255	; 0xff
 800adba:	d1f4      	bne.n	800ada6 <omdEncodeBuf+0x38>
 800adbc:	703c      	strb	r4, [r7, #0]
 800adbe:	1c94      	adds	r4, r2, #2
 800adc0:	4662      	mov	r2, ip
 800adc2:	46a4      	mov	ip, r4
 800adc4:	e7ed      	b.n	800ada2 <omdEncodeBuf+0x34>
 800adc6:	460f      	mov	r7, r1
 800adc8:	2401      	movs	r4, #1
 800adca:	42b7      	cmp	r7, r6
 800adcc:	d20e      	bcs.n	800adec <omdEncodeBuf+0x7e>
 800adce:	703c      	strb	r4, [r7, #0]
 800add0:	4616      	mov	r6, r2
 800add2:	1a76      	subs	r6, r6, r1
 800add4:	6006      	str	r6, [r0, #0]
 800add6:	7105      	strb	r5, [r0, #4]
 800add8:	e7d1      	b.n	800ad7e <omdEncodeBuf+0x10>
 800adda:	2502      	movs	r5, #2
 800addc:	e7f5      	b.n	800adca <omdEncodeBuf+0x5c>
 800adde:	4662      	mov	r2, ip
 800ade0:	2500      	movs	r5, #0
 800ade2:	e7f2      	b.n	800adca <omdEncodeBuf+0x5c>
 800ade4:	4617      	mov	r7, r2
 800ade6:	2401      	movs	r4, #1
 800ade8:	4662      	mov	r2, ip
 800adea:	e7f0      	b.n	800adce <omdEncodeBuf+0x60>
 800adec:	2502      	movs	r5, #2
 800adee:	e7f0      	b.n	800add2 <omdEncodeBuf+0x64>

0800adf0 <omdEncode>:
 800adf0:	e92d 47ff 	stmdb	sp!, {r0, r1, r2, r3, r4, r5, r6, r7, r8, r9, sl, lr}
 800adf4:	2400      	movs	r4, #0
 800adf6:	460d      	mov	r5, r1
 800adf8:	4680      	mov	r8, r0
 800adfa:	f88d 400e 	strb.w	r4, [sp, #14]
 800adfe:	f000 f9a2 	bl	800b146 <vc_vector_begin>
 800ae02:	f10d 010f 	add.w	r1, sp, #15
 800ae06:	4607      	mov	r7, r0
 800ae08:	4628      	mov	r0, r5
 800ae0a:	f88d 400f 	strb.w	r4, [sp, #15]
 800ae0e:	f000 fa0b 	bl	800b228 <vc_vector_push_back>
 800ae12:	4626      	mov	r6, r4
 800ae14:	f04f 0aff 	mov.w	sl, #255	; 0xff
 800ae18:	4640      	mov	r0, r8
 800ae1a:	9701      	str	r7, [sp, #4]
 800ae1c:	f000 f995 	bl	800b14a <vc_vector_end>
 800ae20:	3401      	adds	r4, #1
 800ae22:	42b8      	cmp	r0, r7
 800ae24:	9901      	ldr	r1, [sp, #4]
 800ae26:	b2e4      	uxtb	r4, r4
 800ae28:	d10f      	bne.n	800ae4a <omdEncode+0x5a>
 800ae2a:	f10d 020e 	add.w	r2, sp, #14
 800ae2e:	4631      	mov	r1, r6
 800ae30:	4628      	mov	r0, r5
 800ae32:	f88d 400e 	strb.w	r4, [sp, #14]
 800ae36:	f000 f9fa 	bl	800b22e <vc_vector_replace>
 800ae3a:	f10d 010f 	add.w	r1, sp, #15
 800ae3e:	4628      	mov	r0, r5
 800ae40:	f000 f9f2 	bl	800b228 <vc_vector_push_back>
 800ae44:	b004      	add	sp, #16
 800ae46:	e8bd 87f0 	ldmia.w	sp!, {r4, r5, r6, r7, r8, r9, sl, pc}
 800ae4a:	f817 9b01 	ldrb.w	r9, [r7], #1
 800ae4e:	f1b9 0f00 	cmp.w	r9, #0
 800ae52:	d112      	bne.n	800ae7a <omdEncode+0x8a>
 800ae54:	f88d 400e 	strb.w	r4, [sp, #14]
 800ae58:	f10d 020e 	add.w	r2, sp, #14
 800ae5c:	4631      	mov	r1, r6
 800ae5e:	4628      	mov	r0, r5
 800ae60:	f000 f9e5 	bl	800b22e <vc_vector_replace>
 800ae64:	f10d 010f 	add.w	r1, sp, #15
 800ae68:	4628      	mov	r0, r5
 800ae6a:	f000 f9dd 	bl	800b228 <vc_vector_push_back>
 800ae6e:	4628      	mov	r0, r5
 800ae70:	f000 f978 	bl	800b164 <vc_vector_size>
 800ae74:	2400      	movs	r4, #0
 800ae76:	1e46      	subs	r6, r0, #1
 800ae78:	e7ce      	b.n	800ae18 <omdEncode+0x28>
 800ae7a:	4628      	mov	r0, r5
 800ae7c:	f000 f9d4 	bl	800b228 <vc_vector_push_back>
 800ae80:	2cfe      	cmp	r4, #254	; 0xfe
 800ae82:	d1c9      	bne.n	800ae18 <omdEncode+0x28>
 800ae84:	f88d a00e 	strb.w	sl, [sp, #14]
 800ae88:	e7e6      	b.n	800ae58 <omdEncode+0x68>

0800ae8a <omdDecode>:
 800ae8a:	e92d 4ff7 	stmdb	sp!, {r0, r1, r2, r4, r5, r6, r7, r8, r9, sl, fp, lr}
 800ae8e:	4605      	mov	r5, r0
 800ae90:	4608      	mov	r0, r1
 800ae92:	460e      	mov	r6, r1
 800ae94:	f000 f96a 	bl	800b16c <vc_vector_clear>
 800ae98:	2400      	movs	r4, #0
 800ae9a:	46a0      	mov	r8, r4
 800ae9c:	4628      	mov	r0, r5
 800ae9e:	f000 f961 	bl	800b164 <vc_vector_size>
 800aea2:	42a0      	cmp	r0, r4
 800aea4:	d92d      	bls.n	800af02 <omdDecode+0x78>
 800aea6:	4621      	mov	r1, r4
 800aea8:	4628      	mov	r0, r5
 800aeaa:	f000 f945 	bl	800b138 <vc_vector_at>
 800aeae:	7803      	ldrb	r3, [r0, #0]
 800aeb0:	3b01      	subs	r3, #1
 800aeb2:	fa5f f983 	uxtb.w	r9, r3
 800aeb6:	fa4f fa83 	sxtb.w	sl, r3
 800aeba:	f104 0b01 	add.w	fp, r4, #1
 800aebe:	2700      	movs	r7, #0
 800aec0:	b27b      	sxtb	r3, r7
 800aec2:	eb07 040b 	add.w	r4, r7, fp
 800aec6:	459a      	cmp	sl, r3
 800aec8:	4621      	mov	r1, r4
 800aeca:	4628      	mov	r0, r5
 800aecc:	dc0e      	bgt.n	800aeec <omdDecode+0x62>
 800aece:	f000 f933 	bl	800b138 <vc_vector_at>
 800aed2:	7800      	ldrb	r0, [r0, #0]
 800aed4:	b1a8      	cbz	r0, 800af02 <omdDecode+0x78>
 800aed6:	f1b9 0ffd 	cmp.w	r9, #253	; 0xfd
 800aeda:	d8df      	bhi.n	800ae9c <omdDecode+0x12>
 800aedc:	f10d 0107 	add.w	r1, sp, #7
 800aee0:	4630      	mov	r0, r6
 800aee2:	f88d 8007 	strb.w	r8, [sp, #7]
 800aee6:	f000 f99f 	bl	800b228 <vc_vector_push_back>
 800aeea:	e7d7      	b.n	800ae9c <omdDecode+0x12>
 800aeec:	f000 f924 	bl	800b138 <vc_vector_at>
 800aef0:	7803      	ldrb	r3, [r0, #0]
 800aef2:	f88d 3007 	strb.w	r3, [sp, #7]
 800aef6:	3701      	adds	r7, #1
 800aef8:	b933      	cbnz	r3, 800af08 <omdDecode+0x7e>
 800aefa:	4630      	mov	r0, r6
 800aefc:	f000 f936 	bl	800b16c <vc_vector_clear>
 800af00:	2001      	movs	r0, #1
 800af02:	b003      	add	sp, #12
 800af04:	e8bd 8ff0 	ldmia.w	sp!, {r4, r5, r6, r7, r8, r9, sl, fp, pc}
 800af08:	f10d 0107 	add.w	r1, sp, #7
 800af0c:	4630      	mov	r0, r6
 800af0e:	f000 f98b 	bl	800b228 <vc_vector_push_back>
 800af12:	e7d5      	b.n	800aec0 <omdDecode+0x36>

0800af14 <BitCheckW>:
 800af14:	291f      	cmp	r1, #31
 800af16:	bf9a      	itte	ls
 800af18:	40c8      	lsrls	r0, r1
 800af1a:	f000 0001 	andls.w	r0, r0, #1
 800af1e:	20ff      	movhi	r0, #255	; 0xff
 800af20:	4770      	bx	lr
	...

0800af24 <_SAVE_AC1_SETTINGS>:
 800af24:	b51f      	push	{r0, r1, r2, r3, r4, lr}
 800af26:	466c      	mov	r4, sp
 800af28:	e884 000f 	stmia.w	r4, {r0, r1, r2, r3}
 800af2c:	2204      	movs	r2, #4
 800af2e:	4621      	mov	r1, r4
 800af30:	4802      	ldr	r0, [pc, #8]	; (800af3c <_SAVE_AC1_SETTINGS+0x18>)
 800af32:	f000 f869 	bl	800b008 <Flash_Write_Data>
 800af36:	b2c0      	uxtb	r0, r0
 800af38:	b004      	add	sp, #16
 800af3a:	bd10      	pop	{r4, pc}
 800af3c:	08004000 	.word	0x08004000

0800af40 <_LOAD_AC1_SETTINGS>:
 800af40:	b508      	push	{r3, lr}
 800af42:	4601      	mov	r1, r0
 800af44:	2204      	movs	r2, #4
 800af46:	4802      	ldr	r0, [pc, #8]	; (800af50 <_LOAD_AC1_SETTINGS+0x10>)
 800af48:	f000 f8ac 	bl	800b0a4 <Flash_Read_Data>
 800af4c:	bd08      	pop	{r3, pc}
 800af4e:	bf00      	nop
 800af50:	08004000 	.word	0x08004000

0800af54 <_USB_SEND_OPT>:
 800af54:	b5f8      	push	{r3, r4, r5, r6, r7, lr}
 800af56:	4e0d      	ldr	r6, [pc, #52]	; (800af8c <_USB_SEND_OPT+0x38>)
 800af58:	6833      	ldr	r3, [r6, #0]
 800af5a:	185f      	adds	r7, r3, r1
 800af5c:	f5b7 6f00 	cmp.w	r7, #2048	; 0x800
 800af60:	4605      	mov	r5, r0
 800af62:	460c      	mov	r4, r1
 800af64:	d207      	bcs.n	800af76 <_USB_SEND_OPT+0x22>
 800af66:	460a      	mov	r2, r1
 800af68:	4601      	mov	r1, r0
 800af6a:	4809      	ldr	r0, [pc, #36]	; (800af90 <_USB_SEND_OPT+0x3c>)
 800af6c:	4418      	add	r0, r3
 800af6e:	f00a faab 	bl	80154c8 <memcpy>
 800af72:	6037      	str	r7, [r6, #0]
 800af74:	bdf8      	pop	{r3, r4, r5, r6, r7, pc}
 800af76:	b299      	uxth	r1, r3
 800af78:	4805      	ldr	r0, [pc, #20]	; (800af90 <_USB_SEND_OPT+0x3c>)
 800af7a:	f008 fe91 	bl	8013ca0 <CDC_Transmit_FS>
 800af7e:	4804      	ldr	r0, [pc, #16]	; (800af90 <_USB_SEND_OPT+0x3c>)
 800af80:	4622      	mov	r2, r4
 800af82:	4629      	mov	r1, r5
 800af84:	f00a faa0 	bl	80154c8 <memcpy>
 800af88:	6034      	str	r4, [r6, #0]
 800af8a:	e7f3      	b.n	800af74 <_USB_SEND_OPT+0x20>
 800af8c:	20004e74 	.word	0x20004e74
 800af90:	20004674 	.word	0x20004674

0800af94 <GetSector>:
 800af94:	f100 4378 	add.w	r3, r0, #4160749568	; 0xf8000000
 800af98:	f643 72fe 	movw	r2, #16382	; 0x3ffe
 800af9c:	4293      	cmp	r3, r2
 800af9e:	d924      	bls.n	800afea <GetSector+0x56>
 800afa0:	f5a3 4180 	sub.w	r1, r3, #16384	; 0x4000
 800afa4:	4291      	cmp	r1, r2
 800afa6:	d922      	bls.n	800afee <GetSector+0x5a>
 800afa8:	f5a3 4100 	sub.w	r1, r3, #32768	; 0x8000
 800afac:	4291      	cmp	r1, r2
 800afae:	d920      	bls.n	800aff2 <GetSector+0x5e>
 800afb0:	f5a3 4340 	sub.w	r3, r3, #49152	; 0xc000
 800afb4:	4293      	cmp	r3, r2
 800afb6:	d91e      	bls.n	800aff6 <GetSector+0x62>
 800afb8:	f100 4077 	add.w	r0, r0, #4143972352	; 0xf7000000
 800afbc:	f500 027f 	add.w	r2, r0, #16711680	; 0xff0000
 800afc0:	f64f 73fe 	movw	r3, #65534	; 0xfffe
 800afc4:	429a      	cmp	r2, r3
 800afc6:	d918      	bls.n	800affa <GetSector+0x66>
 800afc8:	f500 027e 	add.w	r2, r0, #16646144	; 0xfe0000
 800afcc:	f503 3380 	add.w	r3, r3, #65536	; 0x10000
 800afd0:	429a      	cmp	r2, r3
 800afd2:	d914      	bls.n	800affe <GetSector+0x6a>
 800afd4:	f500 027c 	add.w	r2, r0, #16515072	; 0xfc0000
 800afd8:	429a      	cmp	r2, r3
 800afda:	d912      	bls.n	800b002 <GetSector+0x6e>
 800afdc:	f500 007a 	add.w	r0, r0, #16384000	; 0xfa0000
 800afe0:	4298      	cmp	r0, r3
 800afe2:	bf94      	ite	ls
 800afe4:	2007      	movls	r0, #7
 800afe6:	2000      	movhi	r0, #0
 800afe8:	4770      	bx	lr
 800afea:	2000      	movs	r0, #0
 800afec:	4770      	bx	lr
 800afee:	2001      	movs	r0, #1
 800aff0:	4770      	bx	lr
 800aff2:	2002      	movs	r0, #2
 800aff4:	4770      	bx	lr
 800aff6:	2003      	movs	r0, #3
 800aff8:	4770      	bx	lr
 800affa:	2004      	movs	r0, #4
 800affc:	4770      	bx	lr
 800affe:	2005      	movs	r0, #5
 800b000:	4770      	bx	lr
 800b002:	2006      	movs	r0, #6
 800b004:	4770      	bx	lr
	...

0800b008 <Flash_Write_Data>:
 800b008:	e92d 41f3 	stmdb	sp!, {r0, r1, r4, r5, r6, r7, r8, lr}
 800b00c:	4605      	mov	r5, r0
 800b00e:	460f      	mov	r7, r1
 800b010:	4616      	mov	r6, r2
 800b012:	b672      	cpsid	i
 800b014:	f007 fd00 	bl	8012a18 <vTaskSuspendAll>
 800b018:	f001 fdae 	bl	800cb78 <HAL_FLASH_Unlock>
 800b01c:	4b1f      	ldr	r3, [pc, #124]	; (800b09c <Flash_Write_Data+0x94>)
 800b01e:	2201      	movs	r2, #1
 800b020:	60da      	str	r2, [r3, #12]
 800b022:	f04f 0802 	mov.w	r8, #2
 800b026:	2210      	movs	r2, #16
 800b028:	f8c3 800c 	str.w	r8, [r3, #12]
 800b02c:	60da      	str	r2, [r3, #12]
 800b02e:	2220      	movs	r2, #32
 800b030:	60da      	str	r2, [r3, #12]
 800b032:	2240      	movs	r2, #64	; 0x40
 800b034:	60da      	str	r2, [r3, #12]
 800b036:	2280      	movs	r2, #128	; 0x80
 800b038:	60da      	str	r2, [r3, #12]
 800b03a:	4628      	mov	r0, r5
 800b03c:	f7ff ffaa 	bl	800af94 <GetSector>
 800b040:	4604      	mov	r4, r0
 800b042:	eb05 0086 	add.w	r0, r5, r6, lsl #2
 800b046:	f7ff ffa5 	bl	800af94 <GetSector>
 800b04a:	4b15      	ldr	r3, [pc, #84]	; (800b0a0 <Flash_Write_Data+0x98>)
 800b04c:	2200      	movs	r2, #0
 800b04e:	601a      	str	r2, [r3, #0]
 800b050:	1c42      	adds	r2, r0, #1
 800b052:	1b12      	subs	r2, r2, r4
 800b054:	a901      	add	r1, sp, #4
 800b056:	4618      	mov	r0, r3
 800b058:	609c      	str	r4, [r3, #8]
 800b05a:	f8c3 8010 	str.w	r8, [r3, #16]
 800b05e:	60da      	str	r2, [r3, #12]
 800b060:	f001 fe7e 	bl	800cd60 <HAL_FLASHEx_Erase>
 800b064:	4604      	mov	r4, r0
 800b066:	b168      	cbz	r0, 800b084 <Flash_Write_Data+0x7c>
 800b068:	f001 fda2 	bl	800cbb0 <HAL_FLASH_GetError>
 800b06c:	b002      	add	sp, #8
 800b06e:	e8bd 81f0 	ldmia.w	sp!, {r4, r5, r6, r7, r8, pc}
 800b072:	f857 2024 	ldr.w	r2, [r7, r4, lsl #2]
 800b076:	2300      	movs	r3, #0
 800b078:	2002      	movs	r0, #2
 800b07a:	f001 fdc7 	bl	800cc0c <HAL_FLASH_Program>
 800b07e:	2800      	cmp	r0, #0
 800b080:	d1f2      	bne.n	800b068 <Flash_Write_Data+0x60>
 800b082:	3401      	adds	r4, #1
 800b084:	42a6      	cmp	r6, r4
 800b086:	eb05 0184 	add.w	r1, r5, r4, lsl #2
 800b08a:	dcf2      	bgt.n	800b072 <Flash_Write_Data+0x6a>
 800b08c:	f001 fd86 	bl	800cb9c <HAL_FLASH_Lock>
 800b090:	f007 fd68 	bl	8012b64 <xTaskResumeAll>
 800b094:	b662      	cpsie	i
 800b096:	2000      	movs	r0, #0
 800b098:	e7e8      	b.n	800b06c <Flash_Write_Data+0x64>
 800b09a:	bf00      	nop
 800b09c:	40023c00 	.word	0x40023c00
 800b0a0:	20004e78 	.word	0x20004e78

0800b0a4 <Flash_Read_Data>:
 800b0a4:	b510      	push	{r4, lr}
 800b0a6:	1a40      	subs	r0, r0, r1
 800b0a8:	f64f 73ff 	movw	r3, #65535	; 0xffff
 800b0ac:	3a01      	subs	r2, #1
 800b0ae:	b292      	uxth	r2, r2
 800b0b0:	580c      	ldr	r4, [r1, r0]
 800b0b2:	f841 4b04 	str.w	r4, [r1], #4
 800b0b6:	429a      	cmp	r2, r3
 800b0b8:	d1f8      	bne.n	800b0ac <Flash_Read_Data+0x8>
 800b0ba:	bd10      	pop	{r4, pc}

0800b0bc <vc_vector_realloc>:
 800b0bc:	b538      	push	{r3, r4, r5, lr}
 800b0be:	6845      	ldr	r5, [r0, #4]
 800b0c0:	434d      	muls	r5, r1
 800b0c2:	4604      	mov	r4, r0
 800b0c4:	4629      	mov	r1, r5
 800b0c6:	68c0      	ldr	r0, [r0, #12]
 800b0c8:	f00a fb0e 	bl	80156e8 <realloc>
 800b0cc:	b110      	cbz	r0, 800b0d4 <vc_vector_realloc+0x18>
 800b0ce:	e9c4 5002 	strd	r5, r0, [r4, #8]
 800b0d2:	2001      	movs	r0, #1
 800b0d4:	bd38      	pop	{r3, r4, r5, pc}

0800b0d6 <vc_vector_call_deleter>:
 800b0d6:	b570      	push	{r4, r5, r6, lr}
 800b0d8:	4605      	mov	r5, r0
 800b0da:	460c      	mov	r4, r1
 800b0dc:	4616      	mov	r6, r2
 800b0de:	42b4      	cmp	r4, r6
 800b0e0:	d300      	bcc.n	800b0e4 <vc_vector_call_deleter+0xe>
 800b0e2:	bd70      	pop	{r4, r5, r6, pc}
 800b0e4:	e9d5 2303 	ldrd	r2, r3, [r5, #12]
 800b0e8:	6868      	ldr	r0, [r5, #4]
 800b0ea:	fb00 2004 	mla	r0, r0, r4, r2
 800b0ee:	4798      	blx	r3
 800b0f0:	3401      	adds	r4, #1
 800b0f2:	e7f4      	b.n	800b0de <vc_vector_call_deleter+0x8>

0800b0f4 <vc_vector_call_deleter_all>:
 800b0f4:	6802      	ldr	r2, [r0, #0]
 800b0f6:	2100      	movs	r1, #0
 800b0f8:	f7ff bfed 	b.w	800b0d6 <vc_vector_call_deleter>

0800b0fc <vc_vector_create>:
 800b0fc:	b5f8      	push	{r3, r4, r5, r6, r7, lr}
 800b0fe:	4605      	mov	r5, r0
 800b100:	2014      	movs	r0, #20
 800b102:	460e      	mov	r6, r1
 800b104:	4617      	mov	r7, r2
 800b106:	f00a f9cf 	bl	80154a8 <malloc>
 800b10a:	4604      	mov	r4, r0
 800b10c:	b160      	cbz	r0, 800b128 <vc_vector_create+0x2c>
 800b10e:	2300      	movs	r3, #0
 800b110:	2d01      	cmp	r5, #1
 800b112:	e9c0 3600 	strd	r3, r6, [r0]
 800b116:	60c3      	str	r3, [r0, #12]
 800b118:	6107      	str	r7, [r0, #16]
 800b11a:	bf98      	it	ls
 800b11c:	2508      	movls	r5, #8
 800b11e:	b92e      	cbnz	r6, 800b12c <vc_vector_create+0x30>
 800b120:	4620      	mov	r0, r4
 800b122:	f00a f9c9 	bl	80154b8 <free>
 800b126:	2400      	movs	r4, #0
 800b128:	4620      	mov	r0, r4
 800b12a:	bdf8      	pop	{r3, r4, r5, r6, r7, pc}
 800b12c:	4629      	mov	r1, r5
 800b12e:	f7ff ffc5 	bl	800b0bc <vc_vector_realloc>
 800b132:	2800      	cmp	r0, #0
 800b134:	d1f8      	bne.n	800b128 <vc_vector_create+0x2c>
 800b136:	e7f3      	b.n	800b120 <vc_vector_create+0x24>

0800b138 <vc_vector_at>:
 800b138:	6842      	ldr	r2, [r0, #4]
 800b13a:	68c0      	ldr	r0, [r0, #12]
 800b13c:	fb02 0001 	mla	r0, r2, r1, r0
 800b140:	4770      	bx	lr

0800b142 <vc_vector_front>:
 800b142:	68c0      	ldr	r0, [r0, #12]
 800b144:	4770      	bx	lr

0800b146 <vc_vector_begin>:
 800b146:	68c0      	ldr	r0, [r0, #12]
 800b148:	4770      	bx	lr

0800b14a <vc_vector_end>:
 800b14a:	e9d0 1200 	ldrd	r1, r2, [r0]
 800b14e:	68c0      	ldr	r0, [r0, #12]
 800b150:	fb01 0002 	mla	r0, r1, r2, r0
 800b154:	4770      	bx	lr

0800b156 <vc_vector_empty>:
 800b156:	6800      	ldr	r0, [r0, #0]
 800b158:	fab0 f080 	clz	r0, r0
 800b15c:	0940      	lsrs	r0, r0, #5
 800b15e:	4770      	bx	lr

0800b160 <vc_vector_count>:
 800b160:	6800      	ldr	r0, [r0, #0]
 800b162:	4770      	bx	lr

0800b164 <vc_vector_size>:
 800b164:	e9d0 3000 	ldrd	r3, r0, [r0]
 800b168:	4358      	muls	r0, r3
 800b16a:	4770      	bx	lr

0800b16c <vc_vector_clear>:
 800b16c:	6903      	ldr	r3, [r0, #16]
 800b16e:	b510      	push	{r4, lr}
 800b170:	4604      	mov	r4, r0
 800b172:	b10b      	cbz	r3, 800b178 <vc_vector_clear+0xc>
 800b174:	f7ff ffbe 	bl	800b0f4 <vc_vector_call_deleter_all>
 800b178:	2300      	movs	r3, #0
 800b17a:	6023      	str	r3, [r4, #0]
 800b17c:	bd10      	pop	{r4, pc}

0800b17e <vc_vector_erase>:
 800b17e:	b538      	push	{r3, r4, r5, lr}
 800b180:	6903      	ldr	r3, [r0, #16]
 800b182:	4604      	mov	r4, r0
 800b184:	460d      	mov	r5, r1
 800b186:	b123      	cbz	r3, 800b192 <vc_vector_erase+0x14>
 800b188:	6840      	ldr	r0, [r0, #4]
 800b18a:	68e2      	ldr	r2, [r4, #12]
 800b18c:	fb00 2001 	mla	r0, r0, r1, r2
 800b190:	4798      	blx	r3
 800b192:	6862      	ldr	r2, [r4, #4]
 800b194:	6821      	ldr	r1, [r4, #0]
 800b196:	68e0      	ldr	r0, [r4, #12]
 800b198:	fb02 f305 	mul.w	r3, r2, r5
 800b19c:	1b4d      	subs	r5, r1, r5
 800b19e:	18d1      	adds	r1, r2, r3
 800b1a0:	4401      	add	r1, r0
 800b1a2:	436a      	muls	r2, r5
 800b1a4:	4418      	add	r0, r3
 800b1a6:	f00a f99d 	bl	80154e4 <memmove>
 800b1aa:	6823      	ldr	r3, [r4, #0]
 800b1ac:	3b01      	subs	r3, #1
 800b1ae:	6023      	str	r3, [r4, #0]
 800b1b0:	2001      	movs	r0, #1
 800b1b2:	bd38      	pop	{r3, r4, r5, pc}

0800b1b4 <vc_vector_append>:
 800b1b4:	e92d 43f8 	stmdb	sp!, {r3, r4, r5, r6, r7, r8, r9, lr}
 800b1b8:	6805      	ldr	r5, [r0, #0]
 800b1ba:	4604      	mov	r4, r0
 800b1bc:	e9d0 3001 	ldrd	r3, r0, [r0, #4]
 800b1c0:	4415      	add	r5, r2
 800b1c2:	fbb0 f0f3 	udiv	r0, r0, r3
 800b1c6:	42a8      	cmp	r0, r5
 800b1c8:	4689      	mov	r9, r1
 800b1ca:	4690      	mov	r8, r2
 800b1cc:	d30d      	bcc.n	800b1ea <vc_vector_append+0x36>
 800b1ce:	e9d4 0600 	ldrd	r0, r6, [r4]
 800b1d2:	68e3      	ldr	r3, [r4, #12]
 800b1d4:	fb08 f206 	mul.w	r2, r8, r6
 800b1d8:	4649      	mov	r1, r9
 800b1da:	fb00 3006 	mla	r0, r0, r6, r3
 800b1de:	f00a f973 	bl	80154c8 <memcpy>
 800b1e2:	6025      	str	r5, [r4, #0]
 800b1e4:	2001      	movs	r0, #1
 800b1e6:	e8bd 83f8 	ldmia.w	sp!, {r3, r4, r5, r6, r7, r8, r9, pc}
 800b1ea:	f7fd f943 	bl	8008474 <__aeabi_ui2d>
 800b1ee:	4b0d      	ldr	r3, [pc, #52]	; (800b224 <vc_vector_append+0x70>)
 800b1f0:	4f0c      	ldr	r7, [pc, #48]	; (800b224 <vc_vector_append+0x70>)
 800b1f2:	2200      	movs	r2, #0
 800b1f4:	f7fd f9b8 	bl	8008568 <__aeabi_dmul>
 800b1f8:	f7fd fc50 	bl	8008a9c <__aeabi_d2uiz>
 800b1fc:	2600      	movs	r6, #0
 800b1fe:	42a8      	cmp	r0, r5
 800b200:	d306      	bcc.n	800b210 <vc_vector_append+0x5c>
 800b202:	4601      	mov	r1, r0
 800b204:	4620      	mov	r0, r4
 800b206:	f7ff ff59 	bl	800b0bc <vc_vector_realloc>
 800b20a:	2800      	cmp	r0, #0
 800b20c:	d1df      	bne.n	800b1ce <vc_vector_append+0x1a>
 800b20e:	e7ea      	b.n	800b1e6 <vc_vector_append+0x32>
 800b210:	f7fd f930 	bl	8008474 <__aeabi_ui2d>
 800b214:	4632      	mov	r2, r6
 800b216:	463b      	mov	r3, r7
 800b218:	f7fd f9a6 	bl	8008568 <__aeabi_dmul>
 800b21c:	f7fd fc3e 	bl	8008a9c <__aeabi_d2uiz>
 800b220:	e7ed      	b.n	800b1fe <vc_vector_append+0x4a>
 800b222:	bf00      	nop
 800b224:	3ff80000 	.word	0x3ff80000

0800b228 <vc_vector_push_back>:
 800b228:	2201      	movs	r2, #1
 800b22a:	f7ff bfc3 	b.w	800b1b4 <vc_vector_append>

0800b22e <vc_vector_replace>:
 800b22e:	6903      	ldr	r3, [r0, #16]
 800b230:	b537      	push	{r0, r1, r2, r4, r5, lr}
 800b232:	460d      	mov	r5, r1
 800b234:	4604      	mov	r4, r0
 800b236:	4611      	mov	r1, r2
 800b238:	b133      	cbz	r3, 800b248 <vc_vector_replace+0x1a>
 800b23a:	6840      	ldr	r0, [r0, #4]
 800b23c:	9201      	str	r2, [sp, #4]
 800b23e:	68e2      	ldr	r2, [r4, #12]
 800b240:	fb00 2005 	mla	r0, r0, r5, r2
 800b244:	4798      	blx	r3
 800b246:	9901      	ldr	r1, [sp, #4]
 800b248:	6862      	ldr	r2, [r4, #4]
 800b24a:	68e0      	ldr	r0, [r4, #12]
 800b24c:	fb02 0005 	mla	r0, r2, r5, r0
 800b250:	f00a f93a 	bl	80154c8 <memcpy>
 800b254:	2001      	movs	r0, #1
 800b256:	b003      	add	sp, #12
 800b258:	bd30      	pop	{r4, r5, pc}

0800b25a <configureTimerForRunTimeStats>:
 800b25a:	4770      	bx	lr

0800b25c <vApplicationGetIdleTaskMemory>:
 800b25c:	4b03      	ldr	r3, [pc, #12]	; (800b26c <vApplicationGetIdleTaskMemory+0x10>)
 800b25e:	6003      	str	r3, [r0, #0]
 800b260:	4b03      	ldr	r3, [pc, #12]	; (800b270 <vApplicationGetIdleTaskMemory+0x14>)
 800b262:	600b      	str	r3, [r1, #0]
 800b264:	2380      	movs	r3, #128	; 0x80
 800b266:	6013      	str	r3, [r2, #0]
 800b268:	4770      	bx	lr
 800b26a:	bf00      	nop
 800b26c:	2000508c 	.word	0x2000508c
 800b270:	20004e8c 	.word	0x20004e8c

0800b274 <vApplicationGetTimerTaskMemory>:
 800b274:	4b03      	ldr	r3, [pc, #12]	; (800b284 <vApplicationGetTimerTaskMemory+0x10>)
 800b276:	6003      	str	r3, [r0, #0]
 800b278:	4b03      	ldr	r3, [pc, #12]	; (800b288 <vApplicationGetTimerTaskMemory+0x14>)
 800b27a:	600b      	str	r3, [r1, #0]
 800b27c:	f44f 7380 	mov.w	r3, #256	; 0x100
 800b280:	6013      	str	r3, [r2, #0]
 800b282:	4770      	bx	lr
 800b284:	20005544 	.word	0x20005544
 800b288:	20005144 	.word	0x20005144

0800b28c <DOTimerCallback>:
 800b28c:	b508      	push	{r3, lr}
 800b28e:	2200      	movs	r2, #0
 800b290:	4804      	ldr	r0, [pc, #16]	; (800b2a4 <DOTimerCallback+0x18>)
 800b292:	f44f 7100 	mov.w	r1, #512	; 0x200
 800b296:	f001 fe7b 	bl	800cf90 <HAL_GPIO_WritePin>
 800b29a:	4b03      	ldr	r3, [pc, #12]	; (800b2a8 <DOTimerCallback+0x1c>)
 800b29c:	2200      	movs	r2, #0
 800b29e:	f883 2037 	strb.w	r2, [r3, #55]	; 0x37
 800b2a2:	bd08      	pop	{r3, pc}
 800b2a4:	40020400 	.word	0x40020400
 800b2a8:	20002dac 	.word	0x20002dac

0800b2ac <StartImuTask>:
 800b2ac:	b5f0      	push	{r4, r5, r6, r7, lr}
 800b2ae:	4d1d      	ldr	r5, [pc, #116]	; (800b324 <StartImuTask+0x78>)
 800b2b0:	4e1d      	ldr	r6, [pc, #116]	; (800b328 <StartImuTask+0x7c>)
 800b2b2:	b085      	sub	sp, #20
 800b2b4:	f1a5 0724 	sub.w	r7, r5, #36	; 0x24
 800b2b8:	f04f 33ff 	mov.w	r3, #4294967295
 800b2bc:	aa03      	add	r2, sp, #12
 800b2be:	4619      	mov	r1, r3
 800b2c0:	2000      	movs	r0, #0
 800b2c2:	f007 ff17 	bl	80130f4 <xTaskNotifyWait>
 800b2c6:	2801      	cmp	r0, #1
 800b2c8:	d11e      	bne.n	800b308 <StartImuTask+0x5c>
 800b2ca:	9803      	ldr	r0, [sp, #12]
 800b2cc:	2102      	movs	r1, #2
 800b2ce:	f7ff fe21 	bl	800af14 <BitCheckW>
 800b2d2:	2801      	cmp	r0, #1
 800b2d4:	d118      	bne.n	800b308 <StartImuTask+0x5c>
 800b2d6:	9001      	str	r0, [sp, #4]
 800b2d8:	4630      	mov	r0, r6
 800b2da:	f7fe ff8d 	bl	800a1f8 <IIM42652_GetFIFOData_DMA>
 800b2de:	4a13      	ldr	r2, [pc, #76]	; (800b32c <StartImuTask+0x80>)
 800b2e0:	4c13      	ldr	r4, [pc, #76]	; (800b330 <StartImuTask+0x84>)
 800b2e2:	6810      	ldr	r0, [r2, #0]
 800b2e4:	2164      	movs	r1, #100	; 0x64
 800b2e6:	f006 fb8f 	bl	8011a08 <osTimerStart>
 800b2ea:	4a12      	ldr	r2, [pc, #72]	; (800b334 <StartImuTask+0x88>)
 800b2ec:	9b01      	ldr	r3, [sp, #4]
 800b2ee:	f892 2035 	ldrb.w	r2, [r2, #53]	; 0x35
 800b2f2:	2a7e      	cmp	r2, #126	; 0x7e
 800b2f4:	d90c      	bls.n	800b310 <StartImuTask+0x64>
 800b2f6:	4810      	ldr	r0, [pc, #64]	; (800b338 <StartImuTask+0x8c>)
 800b2f8:	e890 0006 	ldmia.w	r0, {r1, r2}
 800b2fc:	3818      	subs	r0, #24
 800b2fe:	f7ff f9b7 	bl	800a670 <RGB_SetActColor>
 800b302:	7823      	ldrb	r3, [r4, #0]
 800b304:	3301      	adds	r3, #1
 800b306:	7023      	strb	r3, [r4, #0]
 800b308:	2001      	movs	r0, #1
 800b30a:	f006 fb5c 	bl	80119c6 <osDelay>
 800b30e:	e7d3      	b.n	800b2b8 <StartImuTask+0xc>
 800b310:	7822      	ldrb	r2, [r4, #0]
 800b312:	2a00      	cmp	r2, #0
 800b314:	d0f8      	beq.n	800b308 <StartImuTask+0x5c>
 800b316:	e895 0006 	ldmia.w	r5, {r1, r2}
 800b31a:	4638      	mov	r0, r7
 800b31c:	f7ff f9a8 	bl	800a670 <RGB_SetActColor>
 800b320:	2300      	movs	r3, #0
 800b322:	e7f0      	b.n	800b306 <StartImuTask+0x5a>
 800b324:	20002e50 	.word	0x20002e50
 800b328:	20001dac 	.word	0x20001dac
 800b32c:	2000ae78 	.word	0x2000ae78
 800b330:	20005604 	.word	0x20005604
 800b334:	20002dac 	.word	0x20002dac
 800b338:	20002e44 	.word	0x20002e44

0800b33c <StartSignalElabTask>:
 800b33c:	b5f7      	push	{r0, r1, r2, r4, r5, r6, r7, lr}
 800b33e:	4c47      	ldr	r4, [pc, #284]	; (800b45c <StartSignalElabTask+0x120>)
 800b340:	4d47      	ldr	r5, [pc, #284]	; (800b460 <StartSignalElabTask+0x124>)
 800b342:	4e48      	ldr	r6, [pc, #288]	; (800b464 <StartSignalElabTask+0x128>)
 800b344:	f04f 33ff 	mov.w	r3, #4294967295
 800b348:	aa01      	add	r2, sp, #4
 800b34a:	4619      	mov	r1, r3
 800b34c:	2000      	movs	r0, #0
 800b34e:	f007 fed1 	bl	80130f4 <xTaskNotifyWait>
 800b352:	2801      	cmp	r0, #1
 800b354:	d17e      	bne.n	800b454 <StartSignalElabTask+0x118>
 800b356:	9801      	ldr	r0, [sp, #4]
 800b358:	2102      	movs	r1, #2
 800b35a:	f7ff fddb 	bl	800af14 <BitCheckW>
 800b35e:	8863      	ldrh	r3, [r4, #2]
 800b360:	8822      	ldrh	r2, [r4, #0]
 800b362:	1a9b      	subs	r3, r3, r2
 800b364:	b29b      	uxth	r3, r3
 800b366:	2bff      	cmp	r3, #255	; 0xff
 800b368:	d90d      	bls.n	800b386 <StartSignalElabTask+0x4a>
 800b36a:	2300      	movs	r3, #0
 800b36c:	4a3e      	ldr	r2, [pc, #248]	; (800b468 <StartSignalElabTask+0x12c>)
 800b36e:	493f      	ldr	r1, [pc, #252]	; (800b46c <StartSignalElabTask+0x130>)
 800b370:	483f      	ldr	r0, [pc, #252]	; (800b470 <StartSignalElabTask+0x134>)
 800b372:	f009 f80b 	bl	801438c <arm_rfft_fast_f32>
 800b376:	493f      	ldr	r1, [pc, #252]	; (800b474 <StartSignalElabTask+0x138>)
 800b378:	483b      	ldr	r0, [pc, #236]	; (800b468 <StartSignalElabTask+0x12c>)
 800b37a:	f44f 7280 	mov.w	r2, #256	; 0x100
 800b37e:	f009 fbe3 	bl	8014b48 <arm_cmplx_mag_f32>
 800b382:	2300      	movs	r3, #0
 800b384:	6023      	str	r3, [r4, #0]
 800b386:	886b      	ldrh	r3, [r5, #2]
 800b388:	882a      	ldrh	r2, [r5, #0]
 800b38a:	1a9b      	subs	r3, r3, r2
 800b38c:	b29b      	uxth	r3, r3
 800b38e:	2bff      	cmp	r3, #255	; 0xff
 800b390:	d90d      	bls.n	800b3ae <StartSignalElabTask+0x72>
 800b392:	2300      	movs	r3, #0
 800b394:	4a38      	ldr	r2, [pc, #224]	; (800b478 <StartSignalElabTask+0x13c>)
 800b396:	4939      	ldr	r1, [pc, #228]	; (800b47c <StartSignalElabTask+0x140>)
 800b398:	4835      	ldr	r0, [pc, #212]	; (800b470 <StartSignalElabTask+0x134>)
 800b39a:	f008 fff7 	bl	801438c <arm_rfft_fast_f32>
 800b39e:	4938      	ldr	r1, [pc, #224]	; (800b480 <StartSignalElabTask+0x144>)
 800b3a0:	4835      	ldr	r0, [pc, #212]	; (800b478 <StartSignalElabTask+0x13c>)
 800b3a2:	f44f 7280 	mov.w	r2, #256	; 0x100
 800b3a6:	f009 fbcf 	bl	8014b48 <arm_cmplx_mag_f32>
 800b3aa:	2300      	movs	r3, #0
 800b3ac:	602b      	str	r3, [r5, #0]
 800b3ae:	8873      	ldrh	r3, [r6, #2]
 800b3b0:	8832      	ldrh	r2, [r6, #0]
 800b3b2:	1a9b      	subs	r3, r3, r2
 800b3b4:	b29b      	uxth	r3, r3
 800b3b6:	2bff      	cmp	r3, #255	; 0xff
 800b3b8:	d90d      	bls.n	800b3d6 <StartSignalElabTask+0x9a>
 800b3ba:	2300      	movs	r3, #0
 800b3bc:	4a31      	ldr	r2, [pc, #196]	; (800b484 <StartSignalElabTask+0x148>)
 800b3be:	4932      	ldr	r1, [pc, #200]	; (800b488 <StartSignalElabTask+0x14c>)
 800b3c0:	482b      	ldr	r0, [pc, #172]	; (800b470 <StartSignalElabTask+0x134>)
 800b3c2:	f008 ffe3 	bl	801438c <arm_rfft_fast_f32>
 800b3c6:	4931      	ldr	r1, [pc, #196]	; (800b48c <StartSignalElabTask+0x150>)
 800b3c8:	482e      	ldr	r0, [pc, #184]	; (800b484 <StartSignalElabTask+0x148>)
 800b3ca:	f44f 7280 	mov.w	r2, #256	; 0x100
 800b3ce:	f009 fbbb 	bl	8014b48 <arm_cmplx_mag_f32>
 800b3d2:	2300      	movs	r3, #0
 800b3d4:	6033      	str	r3, [r6, #0]
 800b3d6:	4f2e      	ldr	r7, [pc, #184]	; (800b490 <StartSignalElabTask+0x154>)
 800b3d8:	887b      	ldrh	r3, [r7, #2]
 800b3da:	883a      	ldrh	r2, [r7, #0]
 800b3dc:	1a9b      	subs	r3, r3, r2
 800b3de:	b29b      	uxth	r3, r3
 800b3e0:	2bff      	cmp	r3, #255	; 0xff
 800b3e2:	d90d      	bls.n	800b400 <StartSignalElabTask+0xc4>
 800b3e4:	2300      	movs	r3, #0
 800b3e6:	4a2b      	ldr	r2, [pc, #172]	; (800b494 <StartSignalElabTask+0x158>)
 800b3e8:	4821      	ldr	r0, [pc, #132]	; (800b470 <StartSignalElabTask+0x134>)
 800b3ea:	1d39      	adds	r1, r7, #4
 800b3ec:	f008 ffce 	bl	801438c <arm_rfft_fast_f32>
 800b3f0:	4929      	ldr	r1, [pc, #164]	; (800b498 <StartSignalElabTask+0x15c>)
 800b3f2:	4828      	ldr	r0, [pc, #160]	; (800b494 <StartSignalElabTask+0x158>)
 800b3f4:	f44f 7280 	mov.w	r2, #256	; 0x100
 800b3f8:	f009 fba6 	bl	8014b48 <arm_cmplx_mag_f32>
 800b3fc:	2300      	movs	r3, #0
 800b3fe:	603b      	str	r3, [r7, #0]
 800b400:	4f26      	ldr	r7, [pc, #152]	; (800b49c <StartSignalElabTask+0x160>)
 800b402:	887b      	ldrh	r3, [r7, #2]
 800b404:	883a      	ldrh	r2, [r7, #0]
 800b406:	1a9b      	subs	r3, r3, r2
 800b408:	b29b      	uxth	r3, r3
 800b40a:	2bff      	cmp	r3, #255	; 0xff
 800b40c:	d90d      	bls.n	800b42a <StartSignalElabTask+0xee>
 800b40e:	2300      	movs	r3, #0
 800b410:	4a23      	ldr	r2, [pc, #140]	; (800b4a0 <StartSignalElabTask+0x164>)
 800b412:	4817      	ldr	r0, [pc, #92]	; (800b470 <StartSignalElabTask+0x134>)
 800b414:	1d39      	adds	r1, r7, #4
 800b416:	f008 ffb9 	bl	801438c <arm_rfft_fast_f32>
 800b41a:	4922      	ldr	r1, [pc, #136]	; (800b4a4 <StartSignalElabTask+0x168>)
 800b41c:	4820      	ldr	r0, [pc, #128]	; (800b4a0 <StartSignalElabTask+0x164>)
 800b41e:	f44f 7280 	mov.w	r2, #256	; 0x100
 800b422:	f009 fb91 	bl	8014b48 <arm_cmplx_mag_f32>
 800b426:	2300      	movs	r3, #0
 800b428:	603b      	str	r3, [r7, #0]
 800b42a:	4f1f      	ldr	r7, [pc, #124]	; (800b4a8 <StartSignalElabTask+0x16c>)
 800b42c:	887b      	ldrh	r3, [r7, #2]
 800b42e:	883a      	ldrh	r2, [r7, #0]
 800b430:	1a9b      	subs	r3, r3, r2
 800b432:	b29b      	uxth	r3, r3
 800b434:	2bff      	cmp	r3, #255	; 0xff
 800b436:	d90d      	bls.n	800b454 <StartSignalElabTask+0x118>
 800b438:	2300      	movs	r3, #0
 800b43a:	4a1c      	ldr	r2, [pc, #112]	; (800b4ac <StartSignalElabTask+0x170>)
 800b43c:	480c      	ldr	r0, [pc, #48]	; (800b470 <StartSignalElabTask+0x134>)
 800b43e:	1d39      	adds	r1, r7, #4
 800b440:	f008 ffa4 	bl	801438c <arm_rfft_fast_f32>
 800b444:	491a      	ldr	r1, [pc, #104]	; (800b4b0 <StartSignalElabTask+0x174>)
 800b446:	4819      	ldr	r0, [pc, #100]	; (800b4ac <StartSignalElabTask+0x170>)
 800b448:	f44f 7280 	mov.w	r2, #256	; 0x100
 800b44c:	f009 fb7c 	bl	8014b48 <arm_cmplx_mag_f32>
 800b450:	2300      	movs	r3, #0
 800b452:	603b      	str	r3, [r7, #0]
 800b454:	2001      	movs	r0, #1
 800b456:	f006 fab6 	bl	80119c6 <osDelay>
 800b45a:	e773      	b.n	800b344 <StartSignalElabTask+0x8>
 800b45c:	20000190 	.word	0x20000190
 800b460:	20000594 	.word	0x20000594
 800b464:	20000998 	.word	0x20000998
 800b468:	20009654 	.word	0x20009654
 800b46c:	20000194 	.word	0x20000194
 800b470:	2000ae5c 	.word	0x2000ae5c
 800b474:	20007e54 	.word	0x20007e54
 800b478:	20009a54 	.word	0x20009a54
 800b47c:	20000598 	.word	0x20000598
 800b480:	20008254 	.word	0x20008254
 800b484:	20009e54 	.word	0x20009e54
 800b488:	2000099c 	.word	0x2000099c
 800b48c:	20008654 	.word	0x20008654
 800b490:	200011a0 	.word	0x200011a0
 800b494:	2000a254 	.word	0x2000a254
 800b498:	20008a54 	.word	0x20008a54
 800b49c:	200015a4 	.word	0x200015a4
 800b4a0:	2000a654 	.word	0x2000a654
 800b4a4:	20008e54 	.word	0x20008e54
 800b4a8:	200019a8 	.word	0x200019a8
 800b4ac:	2000aa54 	.word	0x2000aa54
 800b4b0:	20009254 	.word	0x20009254

0800b4b4 <StartUsbTxTask>:
 800b4b4:	e92d 41f0 	stmdb	sp!, {r4, r5, r6, r7, r8, lr}
 800b4b8:	2200      	movs	r2, #0
 800b4ba:	b08e      	sub	sp, #56	; 0x38
 800b4bc:	2101      	movs	r1, #1
 800b4be:	2002      	movs	r0, #2
 800b4c0:	f7ff fe1c 	bl	800b0fc <vc_vector_create>
 800b4c4:	4e27      	ldr	r6, [pc, #156]	; (800b564 <StartUsbTxTask+0xb0>)
 800b4c6:	4f28      	ldr	r7, [pc, #160]	; (800b568 <StartUsbTxTask+0xb4>)
 800b4c8:	f8df 80a0 	ldr.w	r8, [pc, #160]	; 800b56c <StartUsbTxTask+0xb8>
 800b4cc:	4604      	mov	r4, r0
 800b4ce:	f04f 33ff 	mov.w	r3, #4294967295
 800b4d2:	2000      	movs	r0, #0
 800b4d4:	aa04      	add	r2, sp, #16
 800b4d6:	4619      	mov	r1, r3
 800b4d8:	f88d 000f 	strb.w	r0, [sp, #15]
 800b4dc:	f007 fe0a 	bl	80130f4 <xTaskNotifyWait>
 800b4e0:	2801      	cmp	r0, #1
 800b4e2:	d121      	bne.n	800b528 <StartUsbTxTask+0x74>
 800b4e4:	6830      	ldr	r0, [r6, #0]
 800b4e6:	2200      	movs	r2, #0
 800b4e8:	a905      	add	r1, sp, #20
 800b4ea:	f006 fe65 	bl	80121b8 <xQueueReceive>
 800b4ee:	2801      	cmp	r0, #1
 800b4f0:	d01e      	beq.n	800b530 <StartUsbTxTask+0x7c>
 800b4f2:	f8d8 0000 	ldr.w	r0, [r8]
 800b4f6:	2200      	movs	r2, #0
 800b4f8:	f10d 010f 	add.w	r1, sp, #15
 800b4fc:	f006 fe5c 	bl	80121b8 <xQueueReceive>
 800b500:	2801      	cmp	r0, #1
 800b502:	d029      	beq.n	800b558 <StartUsbTxTask+0xa4>
 800b504:	4620      	mov	r0, r4
 800b506:	f7ff fe26 	bl	800b156 <vc_vector_empty>
 800b50a:	b968      	cbnz	r0, 800b528 <StartUsbTxTask+0x74>
 800b50c:	4620      	mov	r0, r4
 800b50e:	f7ff fe1a 	bl	800b146 <vc_vector_begin>
 800b512:	4605      	mov	r5, r0
 800b514:	4620      	mov	r0, r4
 800b516:	f7ff fe23 	bl	800b160 <vc_vector_count>
 800b51a:	b281      	uxth	r1, r0
 800b51c:	4628      	mov	r0, r5
 800b51e:	f008 fbbf 	bl	8013ca0 <CDC_Transmit_FS>
 800b522:	4620      	mov	r0, r4
 800b524:	f7ff fe22 	bl	800b16c <vc_vector_clear>
 800b528:	2001      	movs	r0, #1
 800b52a:	f006 fa4c 	bl	80119c6 <osDelay>
 800b52e:	e7ce      	b.n	800b4ce <StartUsbTxTask+0x1a>
 800b530:	2513      	movs	r5, #19
 800b532:	462a      	mov	r2, r5
 800b534:	2100      	movs	r1, #0
 800b536:	a809      	add	r0, sp, #36	; 0x24
 800b538:	f009 ffee 	bl	8015518 <memset>
 800b53c:	a905      	add	r1, sp, #20
 800b53e:	9500      	str	r5, [sp, #0]
 800b540:	ab09      	add	r3, sp, #36	; 0x24
 800b542:	2210      	movs	r2, #16
 800b544:	4638      	mov	r0, r7
 800b546:	f7ff f839 	bl	800a5bc <imuUsbPacketsCreator>
 800b54a:	4601      	mov	r1, r0
 800b54c:	2800      	cmp	r0, #0
 800b54e:	d0c9      	beq.n	800b4e4 <StartUsbTxTask+0x30>
 800b550:	a809      	add	r0, sp, #36	; 0x24
 800b552:	f7ff fcff 	bl	800af54 <_USB_SEND_OPT>
 800b556:	e7c5      	b.n	800b4e4 <StartUsbTxTask+0x30>
 800b558:	f10d 010f 	add.w	r1, sp, #15
 800b55c:	4620      	mov	r0, r4
 800b55e:	f7ff fe63 	bl	800b228 <vc_vector_push_back>
 800b562:	e7c6      	b.n	800b4f2 <StartUsbTxTask+0x3e>
 800b564:	20005608 	.word	0x20005608
 800b568:	20001dac 	.word	0x20001dac
 800b56c:	2000c27c 	.word	0x2000c27c

0800b570 <StartUsbRx>:
 800b570:	b573      	push	{r0, r1, r4, r5, r6, lr}
 800b572:	2200      	movs	r2, #0
 800b574:	2101      	movs	r1, #1
 800b576:	2003      	movs	r0, #3
 800b578:	f7ff fdc0 	bl	800b0fc <vc_vector_create>
 800b57c:	4d0c      	ldr	r5, [pc, #48]	; (800b5b0 <StartUsbRx+0x40>)
 800b57e:	4e0d      	ldr	r6, [pc, #52]	; (800b5b4 <StartUsbRx+0x44>)
 800b580:	4604      	mov	r4, r0
 800b582:	6828      	ldr	r0, [r5, #0]
 800b584:	f04f 32ff 	mov.w	r2, #4294967295
 800b588:	f10d 0107 	add.w	r1, sp, #7
 800b58c:	f006 fe14 	bl	80121b8 <xQueueReceive>
 800b590:	2801      	cmp	r0, #1
 800b592:	d003      	beq.n	800b59c <StartUsbRx+0x2c>
 800b594:	2001      	movs	r0, #1
 800b596:	f006 fa16 	bl	80119c6 <osDelay>
 800b59a:	e7f2      	b.n	800b582 <StartUsbRx+0x12>
 800b59c:	f10d 0107 	add.w	r1, sp, #7
 800b5a0:	4620      	mov	r0, r4
 800b5a2:	f7ff fe41 	bl	800b228 <vc_vector_push_back>
 800b5a6:	4621      	mov	r1, r4
 800b5a8:	4630      	mov	r0, r6
 800b5aa:	f7ff fbbd 	bl	800ad28 <GiveRxData>
 800b5ae:	e7e8      	b.n	800b582 <StartUsbRx+0x12>
 800b5b0:	2000ba30 	.word	0x2000ba30
 800b5b4:	20002e64 	.word	0x20002e64

0800b5b8 <BlinkTimerCallback>:
 800b5b8:	4801      	ldr	r0, [pc, #4]	; (800b5c0 <BlinkTimerCallback+0x8>)
 800b5ba:	f7ff b875 	b.w	800a6a8 <RGB_Blink>
 800b5be:	bf00      	nop
 800b5c0:	20002e2c 	.word	0x20002e2c

0800b5c4 <SPIReadTimoutTimerCallback>:
 800b5c4:	b508      	push	{r3, lr}
 800b5c6:	4b0a      	ldr	r3, [pc, #40]	; (800b5f0 <SPIReadTimoutTimerCallback+0x2c>)
 800b5c8:	791b      	ldrb	r3, [r3, #4]
 800b5ca:	b183      	cbz	r3, 800b5ee <SPIReadTimoutTimerCallback+0x2a>
 800b5cc:	4809      	ldr	r0, [pc, #36]	; (800b5f4 <SPIReadTimoutTimerCallback+0x30>)
 800b5ce:	2301      	movs	r3, #1
 800b5d0:	e890 0006 	ldmia.w	r0, {r1, r2}
 800b5d4:	3830      	subs	r0, #48	; 0x30
 800b5d6:	f7ff f84b 	bl	800a670 <RGB_SetActColor>
 800b5da:	4807      	ldr	r0, [pc, #28]	; (800b5f8 <SPIReadTimoutTimerCallback+0x34>)
 800b5dc:	f7fe fe0c 	bl	800a1f8 <IIM42652_GetFIFOData_DMA>
 800b5e0:	4b06      	ldr	r3, [pc, #24]	; (800b5fc <SPIReadTimoutTimerCallback+0x38>)
 800b5e2:	2164      	movs	r1, #100	; 0x64
 800b5e4:	6818      	ldr	r0, [r3, #0]
 800b5e6:	e8bd 4008 	ldmia.w	sp!, {r3, lr}
 800b5ea:	f006 ba0d 	b.w	8011a08 <osTimerStart>
 800b5ee:	bd08      	pop	{r3, pc}
 800b5f0:	2000466c 	.word	0x2000466c
 800b5f4:	20002e5c 	.word	0x20002e5c
 800b5f8:	20001dac 	.word	0x20001dac
 800b5fc:	2000ae78 	.word	0x2000ae78

0800b600 <initAll>:
 800b600:	4b52      	ldr	r3, [pc, #328]	; (800b74c <initAll+0x14c>)
 800b602:	b573      	push	{r0, r1, r4, r5, r6, lr}
 800b604:	6818      	ldr	r0, [r3, #0]
 800b606:	4c52      	ldr	r4, [pc, #328]	; (800b750 <initAll+0x150>)
 800b608:	21fa      	movs	r1, #250	; 0xfa
 800b60a:	f006 f9fd 	bl	8011a08 <osTimerStart>
 800b60e:	f44f 7180 	mov.w	r1, #256	; 0x100
 800b612:	4850      	ldr	r0, [pc, #320]	; (800b754 <initAll+0x154>)
 800b614:	f008 fdd6 	bl	80141c4 <arm_rfft_fast_init_f32>
 800b618:	484f      	ldr	r0, [pc, #316]	; (800b758 <initAll+0x158>)
 800b61a:	f7ff f869 	bl	800a6f0 <OMDProtocolInit>
 800b61e:	4b4f      	ldr	r3, [pc, #316]	; (800b75c <initAll+0x15c>)
 800b620:	484f      	ldr	r0, [pc, #316]	; (800b760 <initAll+0x160>)
 800b622:	6819      	ldr	r1, [r3, #0]
 800b624:	f7fd fcc0 	bl	8008fa8 <IIM42652_InitBusGuard>
 800b628:	b118      	cbz	r0, 800b632 <initAll+0x32>
 800b62a:	2300      	movs	r3, #0
 800b62c:	7063      	strb	r3, [r4, #1]
 800b62e:	2301      	movs	r3, #1
 800b630:	7163      	strb	r3, [r4, #5]
 800b632:	4b4c      	ldr	r3, [pc, #304]	; (800b764 <initAll+0x164>)
 800b634:	9300      	str	r3, [sp, #0]
 800b636:	4a4c      	ldr	r2, [pc, #304]	; (800b768 <initAll+0x168>)
 800b638:	494c      	ldr	r1, [pc, #304]	; (800b76c <initAll+0x16c>)
 800b63a:	4849      	ldr	r0, [pc, #292]	; (800b760 <initAll+0x160>)
 800b63c:	2301      	movs	r3, #1
 800b63e:	f7fe fd34 	bl	800a0aa <IIM42652_Init>
 800b642:	2800      	cmp	r0, #0
 800b644:	d14f      	bne.n	800b6e6 <initAll+0xe6>
 800b646:	494a      	ldr	r1, [pc, #296]	; (800b770 <initAll+0x170>)
 800b648:	484a      	ldr	r0, [pc, #296]	; (800b774 <initAll+0x174>)
 800b64a:	2501      	movs	r5, #1
 800b64c:	7065      	strb	r5, [r4, #1]
 800b64e:	f00a f8cd 	bl	80157ec <strcpy>
 800b652:	4849      	ldr	r0, [pc, #292]	; (800b778 <initAll+0x178>)
 800b654:	462b      	mov	r3, r5
 800b656:	e890 0006 	ldmia.w	r0, {r1, r2}
 800b65a:	3830      	subs	r0, #48	; 0x30
 800b65c:	f7ff f808 	bl	800a670 <RGB_SetActColor>
 800b660:	ed9f 0a46 	vldr	s0, [pc, #280]	; 800b77c <initAll+0x17c>
 800b664:	4946      	ldr	r1, [pc, #280]	; (800b780 <initAll+0x180>)
 800b666:	4847      	ldr	r0, [pc, #284]	; (800b784 <initAll+0x184>)
 800b668:	f7fd fc0a 	bl	8008e80 <DAC7571_Init>
 800b66c:	2101      	movs	r1, #1
 800b66e:	4845      	ldr	r0, [pc, #276]	; (800b784 <initAll+0x184>)
 800b670:	f7fd fc3e 	bl	8008ef0 <DAC7571_SetOutEnabling>
 800b674:	ed9f 0a41 	vldr	s0, [pc, #260]	; 800b77c <initAll+0x17c>
 800b678:	4842      	ldr	r0, [pc, #264]	; (800b784 <initAll+0x184>)
 800b67a:	f7fd fc09 	bl	8008e90 <DAC7571_SetOutVoltage>
 800b67e:	4841      	ldr	r0, [pc, #260]	; (800b784 <initAll+0x184>)
 800b680:	f7fd fc40 	bl	8008f04 <DAC7571_WriteDMA>
 800b684:	4605      	mov	r5, r0
 800b686:	2800      	cmp	r0, #0
 800b688:	d132      	bne.n	800b6f0 <initAll+0xf0>
 800b68a:	493f      	ldr	r1, [pc, #252]	; (800b788 <initAll+0x188>)
 800b68c:	4839      	ldr	r0, [pc, #228]	; (800b774 <initAll+0x174>)
 800b68e:	2601      	movs	r6, #1
 800b690:	70a6      	strb	r6, [r4, #2]
 800b692:	f00a f8ab 	bl	80157ec <strcpy>
 800b696:	483d      	ldr	r0, [pc, #244]	; (800b78c <initAll+0x18c>)
 800b698:	8dc3      	ldrh	r3, [r0, #46]	; 0x2e
 800b69a:	f8d0 102a 	ldr.w	r1, [r0, #42]	; 0x2a
 800b69e:	462a      	mov	r2, r5
 800b6a0:	f363 020f 	bfi	r2, r3, #0, #16
 800b6a4:	4633      	mov	r3, r6
 800b6a6:	f7fe ffe3 	bl	800a670 <RGB_SetActColor>
 800b6aa:	7863      	ldrb	r3, [r4, #1]
 800b6ac:	b32b      	cbz	r3, 800b6fa <initAll+0xfa>
 800b6ae:	78a3      	ldrb	r3, [r4, #2]
 800b6b0:	b31b      	cbz	r3, 800b6fa <initAll+0xfa>
 800b6b2:	4837      	ldr	r0, [pc, #220]	; (800b790 <initAll+0x190>)
 800b6b4:	2301      	movs	r3, #1
 800b6b6:	e890 0006 	ldmia.w	r0, {r1, r2}
 800b6ba:	3824      	subs	r0, #36	; 0x24
 800b6bc:	f7fe ffd8 	bl	800a670 <RGB_SetActColor>
 800b6c0:	2201      	movs	r2, #1
 800b6c2:	4829      	ldr	r0, [pc, #164]	; (800b768 <initAll+0x168>)
 800b6c4:	f44f 7100 	mov.w	r1, #512	; 0x200
 800b6c8:	f001 fc62 	bl	800cf90 <HAL_GPIO_WritePin>
 800b6cc:	2501      	movs	r5, #1
 800b6ce:	4931      	ldr	r1, [pc, #196]	; (800b794 <initAll+0x194>)
 800b6d0:	4828      	ldr	r0, [pc, #160]	; (800b774 <initAll+0x174>)
 800b6d2:	70e5      	strb	r5, [r4, #3]
 800b6d4:	f00a f88a 	bl	80157ec <strcpy>
 800b6d8:	4b21      	ldr	r3, [pc, #132]	; (800b760 <initAll+0x160>)
 800b6da:	7125      	strb	r5, [r4, #4]
 800b6dc:	2200      	movs	r2, #0
 800b6de:	f883 2823 	strb.w	r2, [r3, #2083]	; 0x823
 800b6e2:	b002      	add	sp, #8
 800b6e4:	bd70      	pop	{r4, r5, r6, pc}
 800b6e6:	492c      	ldr	r1, [pc, #176]	; (800b798 <initAll+0x198>)
 800b6e8:	4822      	ldr	r0, [pc, #136]	; (800b774 <initAll+0x174>)
 800b6ea:	f00a f87f 	bl	80157ec <strcpy>
 800b6ee:	e7b7      	b.n	800b660 <initAll+0x60>
 800b6f0:	492a      	ldr	r1, [pc, #168]	; (800b79c <initAll+0x19c>)
 800b6f2:	4820      	ldr	r0, [pc, #128]	; (800b774 <initAll+0x174>)
 800b6f4:	f00a f87a 	bl	80157ec <strcpy>
 800b6f8:	e7d7      	b.n	800b6aa <initAll+0xaa>
 800b6fa:	4829      	ldr	r0, [pc, #164]	; (800b7a0 <initAll+0x1a0>)
 800b6fc:	2301      	movs	r3, #1
 800b6fe:	e890 0006 	ldmia.w	r0, {r1, r2}
 800b702:	3818      	subs	r0, #24
 800b704:	f7fe ffb4 	bl	800a670 <RGB_SetActColor>
 800b708:	2200      	movs	r2, #0
 800b70a:	4817      	ldr	r0, [pc, #92]	; (800b768 <initAll+0x168>)
 800b70c:	f44f 7100 	mov.w	r1, #512	; 0x200
 800b710:	f001 fc3e 	bl	800cf90 <HAL_GPIO_WritePin>
 800b714:	4923      	ldr	r1, [pc, #140]	; (800b7a4 <initAll+0x1a4>)
 800b716:	4817      	ldr	r0, [pc, #92]	; (800b774 <initAll+0x174>)
 800b718:	f00a f868 	bl	80157ec <strcpy>
 800b71c:	4815      	ldr	r0, [pc, #84]	; (800b774 <initAll+0x174>)
 800b71e:	f7fc fd5f 	bl	80081e0 <strlen>
 800b722:	b281      	uxth	r1, r0
 800b724:	4813      	ldr	r0, [pc, #76]	; (800b774 <initAll+0x174>)
 800b726:	f008 fabb 	bl	8013ca0 <CDC_Transmit_FS>
 800b72a:	f44f 60fa 	mov.w	r0, #2000	; 0x7d0
 800b72e:	f000 ff97 	bl	800c660 <HAL_Delay>
 800b732:	f3bf 8f4f 	dsb	sy
 800b736:	491c      	ldr	r1, [pc, #112]	; (800b7a8 <initAll+0x1a8>)
 800b738:	4b1c      	ldr	r3, [pc, #112]	; (800b7ac <initAll+0x1ac>)
 800b73a:	68ca      	ldr	r2, [r1, #12]
 800b73c:	f402 62e0 	and.w	r2, r2, #1792	; 0x700
 800b740:	4313      	orrs	r3, r2
 800b742:	60cb      	str	r3, [r1, #12]
 800b744:	f3bf 8f4f 	dsb	sy
 800b748:	bf00      	nop
 800b74a:	e7fd      	b.n	800b748 <initAll+0x148>
 800b74c:	200055fc 	.word	0x200055fc
 800b750:	2000466c 	.word	0x2000466c
 800b754:	2000ae5c 	.word	0x2000ae5c
 800b758:	20002e64 	.word	0x20002e64
 800b75c:	2000ba28 	.word	0x2000ba28
 800b760:	20001dac 	.word	0x20001dac
 800b764:	2000cac8 	.word	0x2000cac8
 800b768:	40020400 	.word	0x40020400
 800b76c:	2000b068 	.word	0x2000b068
 800b770:	08015a5c 	.word	0x08015a5c
 800b774:	2000b1e0 	.word	0x2000b1e0
 800b778:	20002e5c 	.word	0x20002e5c
 800b77c:	405147ae 	.word	0x405147ae
 800b780:	2000aff4 	.word	0x2000aff4
 800b784:	2000017c 	.word	0x2000017c
 800b788:	08015a8d 	.word	0x08015a8d
 800b78c:	20002e2c 	.word	0x20002e2c
 800b790:	20002e50 	.word	0x20002e50
 800b794:	08015abe 	.word	0x08015abe
 800b798:	08015a71 	.word	0x08015a71
 800b79c:	08015aa2 	.word	0x08015aa2
 800b7a0:	20002e44 	.word	0x20002e44
 800b7a4:	08015af6 	.word	0x08015af6
 800b7a8:	e000ed00 	.word	0xe000ed00
 800b7ac:	05fa0004 	.word	0x05fa0004

0800b7b0 <StartMainTask>:
 800b7b0:	e92d 43f7 	stmdb	sp!, {r0, r1, r2, r4, r5, r6, r7, r8, r9, lr}
 800b7b4:	f008 fa04 	bl	8013bc0 <MX_USB_DEVICE_Init>
 800b7b8:	4f45      	ldr	r7, [pc, #276]	; (800b8d0 <StartMainTask+0x120>)
 800b7ba:	2200      	movs	r2, #0
 800b7bc:	2101      	movs	r1, #1
 800b7be:	2003      	movs	r0, #3
 800b7c0:	f7ff fc9c 	bl	800b0fc <vc_vector_create>
 800b7c4:	2300      	movs	r3, #0
 800b7c6:	f88d 3003 	strb.w	r3, [sp, #3]
 800b7ca:	78fb      	ldrb	r3, [r7, #3]
 800b7cc:	4604      	mov	r4, r0
 800b7ce:	b9ab      	cbnz	r3, 800b7fc <StartMainTask+0x4c>
 800b7d0:	4b40      	ldr	r3, [pc, #256]	; (800b8d4 <StartMainTask+0x124>)
 800b7d2:	6818      	ldr	r0, [r3, #0]
 800b7d4:	f006 f9da 	bl	8011b8c <osSemaphoreRelease>
 800b7d8:	4b3f      	ldr	r3, [pc, #252]	; (800b8d8 <StartMainTask+0x128>)
 800b7da:	6818      	ldr	r0, [r3, #0]
 800b7dc:	f006 f9d6 	bl	8011b8c <osSemaphoreRelease>
 800b7e0:	4b3e      	ldr	r3, [pc, #248]	; (800b8dc <StartMainTask+0x12c>)
 800b7e2:	6818      	ldr	r0, [r3, #0]
 800b7e4:	f006 f9d2 	bl	8011b8c <osSemaphoreRelease>
 800b7e8:	f7ff ff0a 	bl	800b600 <initAll>
 800b7ec:	483c      	ldr	r0, [pc, #240]	; (800b8e0 <StartMainTask+0x130>)
 800b7ee:	f7fe fd03 	bl	800a1f8 <IIM42652_GetFIFOData_DMA>
 800b7f2:	4b3c      	ldr	r3, [pc, #240]	; (800b8e4 <StartMainTask+0x134>)
 800b7f4:	2164      	movs	r1, #100	; 0x64
 800b7f6:	6818      	ldr	r0, [r3, #0]
 800b7f8:	f006 f906 	bl	8011a08 <osTimerStart>
 800b7fc:	f8df 80f4 	ldr.w	r8, [pc, #244]	; 800b8f4 <StartMainTask+0x144>
 800b800:	4e39      	ldr	r6, [pc, #228]	; (800b8e8 <StartMainTask+0x138>)
 800b802:	f1a8 0924 	sub.w	r9, r8, #36	; 0x24
 800b806:	f04f 33ff 	mov.w	r3, #4294967295
 800b80a:	aa01      	add	r2, sp, #4
 800b80c:	4619      	mov	r1, r3
 800b80e:	2000      	movs	r0, #0
 800b810:	f007 fc70 	bl	80130f4 <xTaskNotifyWait>
 800b814:	2801      	cmp	r0, #1
 800b816:	d156      	bne.n	800b8c6 <StartMainTask+0x116>
 800b818:	9801      	ldr	r0, [sp, #4]
 800b81a:	2104      	movs	r1, #4
 800b81c:	f7ff fb7a 	bl	800af14 <BitCheckW>
 800b820:	2801      	cmp	r0, #1
 800b822:	4605      	mov	r5, r0
 800b824:	d116      	bne.n	800b854 <StartMainTask+0xa4>
 800b826:	e898 0006 	ldmia.w	r8, {r1, r2}
 800b82a:	4603      	mov	r3, r0
 800b82c:	4648      	mov	r0, r9
 800b82e:	f7fe ff1f 	bl	800a670 <RGB_SetActColor>
 800b832:	482b      	ldr	r0, [pc, #172]	; (800b8e0 <StartMainTask+0x130>)
 800b834:	f7fe f90a 	bl	8009a4c <__IMU_TURN_ON>
 800b838:	23fc      	movs	r3, #252	; 0xfc
 800b83a:	f10d 0103 	add.w	r1, sp, #3
 800b83e:	4620      	mov	r0, r4
 800b840:	713d      	strb	r5, [r7, #4]
 800b842:	f88d 3003 	strb.w	r3, [sp, #3]
 800b846:	f7ff fcef 	bl	800b228 <vc_vector_push_back>
 800b84a:	4828      	ldr	r0, [pc, #160]	; (800b8ec <StartMainTask+0x13c>)
 800b84c:	2210      	movs	r2, #16
 800b84e:	4621      	mov	r1, r4
 800b850:	f7fe ffae 	bl	800a7b0 <ackCommand>
 800b854:	9801      	ldr	r0, [sp, #4]
 800b856:	2105      	movs	r1, #5
 800b858:	f7ff fb5c 	bl	800af14 <BitCheckW>
 800b85c:	2801      	cmp	r0, #1
 800b85e:	4603      	mov	r3, r0
 800b860:	d117      	bne.n	800b892 <StartMainTask+0xe2>
 800b862:	4823      	ldr	r0, [pc, #140]	; (800b8f0 <StartMainTask+0x140>)
 800b864:	8dc2      	ldrh	r2, [r0, #46]	; 0x2e
 800b866:	f8d0 102a 	ldr.w	r1, [r0, #42]	; 0x2a
 800b86a:	f7fe ff01 	bl	800a670 <RGB_SetActColor>
 800b86e:	2300      	movs	r3, #0
 800b870:	481b      	ldr	r0, [pc, #108]	; (800b8e0 <StartMainTask+0x130>)
 800b872:	713b      	strb	r3, [r7, #4]
 800b874:	f7fe f8f9 	bl	8009a6a <__IMU_TURN_OFF>
 800b878:	23fc      	movs	r3, #252	; 0xfc
 800b87a:	f10d 0103 	add.w	r1, sp, #3
 800b87e:	4620      	mov	r0, r4
 800b880:	f88d 3003 	strb.w	r3, [sp, #3]
 800b884:	f7ff fcd0 	bl	800b228 <vc_vector_push_back>
 800b888:	4818      	ldr	r0, [pc, #96]	; (800b8ec <StartMainTask+0x13c>)
 800b88a:	2210      	movs	r2, #16
 800b88c:	4621      	mov	r1, r4
 800b88e:	f7fe ff8f 	bl	800a7b0 <ackCommand>
 800b892:	9801      	ldr	r0, [sp, #4]
 800b894:	2106      	movs	r1, #6
 800b896:	f7ff fb3d 	bl	800af14 <BitCheckW>
 800b89a:	2801      	cmp	r0, #1
 800b89c:	d113      	bne.n	800b8c6 <StartMainTask+0x116>
 800b89e:	6830      	ldr	r0, [r6, #0]
 800b8a0:	6871      	ldr	r1, [r6, #4]
 800b8a2:	68b2      	ldr	r2, [r6, #8]
 800b8a4:	7b33      	ldrb	r3, [r6, #12]
 800b8a6:	f7ff fb3d 	bl	800af24 <_SAVE_AC1_SETTINGS>
 800b8aa:	b960      	cbnz	r0, 800b8c6 <StartMainTask+0x116>
 800b8ac:	23f0      	movs	r3, #240	; 0xf0
 800b8ae:	f10d 0103 	add.w	r1, sp, #3
 800b8b2:	4620      	mov	r0, r4
 800b8b4:	f88d 3003 	strb.w	r3, [sp, #3]
 800b8b8:	f7ff fcb6 	bl	800b228 <vc_vector_push_back>
 800b8bc:	480b      	ldr	r0, [pc, #44]	; (800b8ec <StartMainTask+0x13c>)
 800b8be:	2210      	movs	r2, #16
 800b8c0:	4621      	mov	r1, r4
 800b8c2:	f7fe ff75 	bl	800a7b0 <ackCommand>
 800b8c6:	2001      	movs	r0, #1
 800b8c8:	f006 f87d 	bl	80119c6 <osDelay>
 800b8cc:	e79b      	b.n	800b806 <StartMainTask+0x56>
 800b8ce:	bf00      	nop
 800b8d0:	2000466c 	.word	0x2000466c
 800b8d4:	2000ba28 	.word	0x2000ba28
 800b8d8:	2000ba2c 	.word	0x2000ba2c
 800b8dc:	2000aed0 	.word	0x2000aed0
 800b8e0:	20001dac 	.word	0x20001dac
 800b8e4:	2000ae78 	.word	0x2000ae78
 800b8e8:	2000cac8 	.word	0x2000cac8
 800b8ec:	20002e64 	.word	0x20002e64
 800b8f0:	20002e2c 	.word	0x20002e2c
 800b8f4:	20002e50 	.word	0x20002e50

0800b8f8 <SystemClock_Config>:
 800b8f8:	b510      	push	{r4, lr}
 800b8fa:	2400      	movs	r4, #0
 800b8fc:	b094      	sub	sp, #80	; 0x50
 800b8fe:	4621      	mov	r1, r4
 800b900:	2214      	movs	r2, #20
 800b902:	a803      	add	r0, sp, #12
 800b904:	e9cd 440a 	strd	r4, r4, [sp, #40]	; 0x28
 800b908:	940c      	str	r4, [sp, #48]	; 0x30
 800b90a:	f009 fe05 	bl	8015518 <memset>
 800b90e:	4b20      	ldr	r3, [pc, #128]	; (800b990 <SystemClock_Config+0x98>)
 800b910:	9401      	str	r4, [sp, #4]
 800b912:	6c1a      	ldr	r2, [r3, #64]	; 0x40
 800b914:	f042 5280 	orr.w	r2, r2, #268435456	; 0x10000000
 800b918:	641a      	str	r2, [r3, #64]	; 0x40
 800b91a:	6c1b      	ldr	r3, [r3, #64]	; 0x40
 800b91c:	f003 5380 	and.w	r3, r3, #268435456	; 0x10000000
 800b920:	9301      	str	r3, [sp, #4]
 800b922:	9b01      	ldr	r3, [sp, #4]
 800b924:	4b1b      	ldr	r3, [pc, #108]	; (800b994 <SystemClock_Config+0x9c>)
 800b926:	9402      	str	r4, [sp, #8]
 800b928:	681a      	ldr	r2, [r3, #0]
 800b92a:	f442 4240 	orr.w	r2, r2, #49152	; 0xc000
 800b92e:	601a      	str	r2, [r3, #0]
 800b930:	681b      	ldr	r3, [r3, #0]
 800b932:	f403 4340 	and.w	r3, r3, #49152	; 0xc000
 800b936:	9302      	str	r3, [sp, #8]
 800b938:	9b02      	ldr	r3, [sp, #8]
 800b93a:	2209      	movs	r2, #9
 800b93c:	f44f 3380 	mov.w	r3, #65536	; 0x10000
 800b940:	2402      	movs	r4, #2
 800b942:	e9cd 2308 	strd	r2, r3, [sp, #32]
 800b946:	2301      	movs	r3, #1
 800b948:	e9cd 340d 	strd	r3, r4, [sp, #52]	; 0x34
 800b94c:	f44f 0180 	mov.w	r1, #4194304	; 0x400000
 800b950:	2319      	movs	r3, #25
 800b952:	e9cd 130f 	strd	r1, r3, [sp, #60]	; 0x3c
 800b956:	23c0      	movs	r3, #192	; 0xc0
 800b958:	e9cd 3411 	strd	r3, r4, [sp, #68]	; 0x44
 800b95c:	a808      	add	r0, sp, #32
 800b95e:	2304      	movs	r3, #4
 800b960:	9313      	str	r3, [sp, #76]	; 0x4c
 800b962:	f003 f89f 	bl	800eaa4 <HAL_RCC_OscConfig>
 800b966:	b108      	cbz	r0, 800b96c <SystemClock_Config+0x74>
 800b968:	b672      	cpsid	i
 800b96a:	e7fe      	b.n	800b96a <SystemClock_Config+0x72>
 800b96c:	230f      	movs	r3, #15
 800b96e:	e9cd 3403 	strd	r3, r4, [sp, #12]
 800b972:	f44f 5380 	mov.w	r3, #4096	; 0x1000
 800b976:	e9cd 3006 	strd	r3, r0, [sp, #24]
 800b97a:	9005      	str	r0, [sp, #20]
 800b97c:	2103      	movs	r1, #3
 800b97e:	a803      	add	r0, sp, #12
 800b980:	f003 fa6e 	bl	800ee60 <HAL_RCC_ClockConfig>
 800b984:	b108      	cbz	r0, 800b98a <SystemClock_Config+0x92>
 800b986:	b672      	cpsid	i
 800b988:	e7fe      	b.n	800b988 <SystemClock_Config+0x90>
 800b98a:	b014      	add	sp, #80	; 0x50
 800b98c:	bd10      	pop	{r4, pc}
 800b98e:	bf00      	nop
 800b990:	40023800 	.word	0x40023800
 800b994:	40007000 	.word	0x40007000

0800b998 <main>:
 800b998:	b580      	push	{r7, lr}
 800b99a:	48ae      	ldr	r0, [pc, #696]	; (800bc54 <main+0x2bc>)
 800b99c:	4dae      	ldr	r5, [pc, #696]	; (800bc58 <main+0x2c0>)
 800b99e:	b0ba      	sub	sp, #232	; 0xe8
 800b9a0:	2400      	movs	r4, #0
 800b9a2:	f7ff facd 	bl	800af40 <_LOAD_AC1_SETTINGS>
 800b9a6:	f000 fe2f 	bl	800c608 <HAL_Init>
 800b9aa:	f7ff ffa5 	bl	800b8f8 <SystemClock_Config>
 800b9ae:	2214      	movs	r2, #20
 800b9b0:	2100      	movs	r1, #0
 800b9b2:	a832      	add	r0, sp, #200	; 0xc8
 800b9b4:	f009 fdb0 	bl	8015518 <memset>
 800b9b8:	9405      	str	r4, [sp, #20]
 800b9ba:	6b2b      	ldr	r3, [r5, #48]	; 0x30
 800b9bc:	48a7      	ldr	r0, [pc, #668]	; (800bc5c <main+0x2c4>)
 800b9be:	f043 0380 	orr.w	r3, r3, #128	; 0x80
 800b9c2:	632b      	str	r3, [r5, #48]	; 0x30
 800b9c4:	6b2b      	ldr	r3, [r5, #48]	; 0x30
 800b9c6:	f003 0380 	and.w	r3, r3, #128	; 0x80
 800b9ca:	9305      	str	r3, [sp, #20]
 800b9cc:	9b05      	ldr	r3, [sp, #20]
 800b9ce:	9406      	str	r4, [sp, #24]
 800b9d0:	6b2b      	ldr	r3, [r5, #48]	; 0x30
 800b9d2:	f043 0301 	orr.w	r3, r3, #1
 800b9d6:	632b      	str	r3, [r5, #48]	; 0x30
 800b9d8:	6b2b      	ldr	r3, [r5, #48]	; 0x30
 800b9da:	f003 0301 	and.w	r3, r3, #1
 800b9de:	9306      	str	r3, [sp, #24]
 800b9e0:	9b06      	ldr	r3, [sp, #24]
 800b9e2:	9407      	str	r4, [sp, #28]
 800b9e4:	6b2b      	ldr	r3, [r5, #48]	; 0x30
 800b9e6:	f043 0302 	orr.w	r3, r3, #2
 800b9ea:	632b      	str	r3, [r5, #48]	; 0x30
 800b9ec:	6b2b      	ldr	r3, [r5, #48]	; 0x30
 800b9ee:	f003 0302 	and.w	r3, r3, #2
 800b9f2:	4622      	mov	r2, r4
 800b9f4:	9307      	str	r3, [sp, #28]
 800b9f6:	f240 2101 	movw	r1, #513	; 0x201
 800b9fa:	9b07      	ldr	r3, [sp, #28]
 800b9fc:	f001 fac8 	bl	800cf90 <HAL_GPIO_WritePin>
 800ba00:	f04f 0c18 	mov.w	ip, #24
 800ba04:	f44f 1388 	mov.w	r3, #1114112	; 0x110000
 800ba08:	4895      	ldr	r0, [pc, #596]	; (800bc60 <main+0x2c8>)
 800ba0a:	9434      	str	r4, [sp, #208]	; 0xd0
 800ba0c:	a932      	add	r1, sp, #200	; 0xc8
 800ba0e:	e9cd c332 	strd	ip, r3, [sp, #200]	; 0xc8
 800ba12:	2601      	movs	r6, #1
 800ba14:	f001 f9f4 	bl	800ce00 <HAL_GPIO_Init>
 800ba18:	f04f 0803 	mov.w	r8, #3
 800ba1c:	488f      	ldr	r0, [pc, #572]	; (800bc5c <main+0x2c4>)
 800ba1e:	9634      	str	r6, [sp, #208]	; 0xd0
 800ba20:	a932      	add	r1, sp, #200	; 0xc8
 800ba22:	e9cd 6632 	strd	r6, r6, [sp, #200]	; 0xc8
 800ba26:	f44f 7700 	mov.w	r7, #512	; 0x200
 800ba2a:	f8cd 80d4 	str.w	r8, [sp, #212]	; 0xd4
 800ba2e:	f001 f9e7 	bl	800ce00 <HAL_GPIO_Init>
 800ba32:	2302      	movs	r3, #2
 800ba34:	4889      	ldr	r0, [pc, #548]	; (800bc5c <main+0x2c4>)
 800ba36:	a932      	add	r1, sp, #200	; 0xc8
 800ba38:	e9cd 3834 	strd	r3, r8, [sp, #208]	; 0xd0
 800ba3c:	e9cd 7632 	strd	r7, r6, [sp, #200]	; 0xc8
 800ba40:	f001 f9de 	bl	800ce00 <HAL_GPIO_Init>
 800ba44:	4622      	mov	r2, r4
 800ba46:	2105      	movs	r1, #5
 800ba48:	2009      	movs	r0, #9
 800ba4a:	f000 fe2f 	bl	800c6ac <HAL_NVIC_SetPriority>
 800ba4e:	2009      	movs	r0, #9
 800ba50:	f000 fe5e 	bl	800c710 <HAL_NVIC_EnableIRQ>
 800ba54:	4622      	mov	r2, r4
 800ba56:	2105      	movs	r1, #5
 800ba58:	200a      	movs	r0, #10
 800ba5a:	f000 fe27 	bl	800c6ac <HAL_NVIC_SetPriority>
 800ba5e:	200a      	movs	r0, #10
 800ba60:	f000 fe56 	bl	800c710 <HAL_NVIC_EnableIRQ>
 800ba64:	9403      	str	r4, [sp, #12]
 800ba66:	6b2b      	ldr	r3, [r5, #48]	; 0x30
 800ba68:	f443 0380 	orr.w	r3, r3, #4194304	; 0x400000
 800ba6c:	632b      	str	r3, [r5, #48]	; 0x30
 800ba6e:	6b2b      	ldr	r3, [r5, #48]	; 0x30
 800ba70:	f403 0380 	and.w	r3, r3, #4194304	; 0x400000
 800ba74:	9303      	str	r3, [sp, #12]
 800ba76:	9b03      	ldr	r3, [sp, #12]
 800ba78:	9404      	str	r4, [sp, #16]
 800ba7a:	6b2b      	ldr	r3, [r5, #48]	; 0x30
 800ba7c:	f443 1300 	orr.w	r3, r3, #2097152	; 0x200000
 800ba80:	632b      	str	r3, [r5, #48]	; 0x30
 800ba82:	6b2b      	ldr	r3, [r5, #48]	; 0x30
 800ba84:	f403 1300 	and.w	r3, r3, #2097152	; 0x200000
 800ba88:	4622      	mov	r2, r4
 800ba8a:	2105      	movs	r1, #5
 800ba8c:	9304      	str	r3, [sp, #16]
 800ba8e:	200c      	movs	r0, #12
 800ba90:	9b04      	ldr	r3, [sp, #16]
 800ba92:	f000 fe0b 	bl	800c6ac <HAL_NVIC_SetPriority>
 800ba96:	200c      	movs	r0, #12
 800ba98:	f000 fe3a 	bl	800c710 <HAL_NVIC_EnableIRQ>
 800ba9c:	4622      	mov	r2, r4
 800ba9e:	2105      	movs	r1, #5
 800baa0:	2038      	movs	r0, #56	; 0x38
 800baa2:	f000 fe03 	bl	800c6ac <HAL_NVIC_SetPriority>
 800baa6:	2038      	movs	r0, #56	; 0x38
 800baa8:	f000 fe32 	bl	800c710 <HAL_NVIC_EnableIRQ>
 800baac:	4622      	mov	r2, r4
 800baae:	2105      	movs	r1, #5
 800bab0:	203a      	movs	r0, #58	; 0x3a
 800bab2:	f000 fdfb 	bl	800c6ac <HAL_NVIC_SetPriority>
 800bab6:	203a      	movs	r0, #58	; 0x3a
 800bab8:	f000 fe2a 	bl	800c710 <HAL_NVIC_EnableIRQ>
 800babc:	4869      	ldr	r0, [pc, #420]	; (800bc64 <main+0x2cc>)
 800babe:	f8df e1c4 	ldr.w	lr, [pc, #452]	; 800bc84 <main+0x2ec>
 800bac2:	6187      	str	r7, [r0, #24]
 800bac4:	f44f 7382 	mov.w	r3, #260	; 0x104
 800bac8:	e9c0 e300 	strd	lr, r3, [r0]
 800bacc:	2610      	movs	r6, #16
 800bace:	230a      	movs	r3, #10
 800bad0:	62c3      	str	r3, [r0, #44]	; 0x2c
 800bad2:	e9c0 4402 	strd	r4, r4, [r0, #8]
 800bad6:	e9c0 4404 	strd	r4, r4, [r0, #16]
 800bada:	e9c0 6407 	strd	r6, r4, [r0, #28]
 800bade:	e9c0 4409 	strd	r4, r4, [r0, #36]	; 0x24
 800bae2:	f003 fc77 	bl	800f3d4 <HAL_SPI_Init>
 800bae6:	4603      	mov	r3, r0
 800bae8:	b108      	cbz	r0, 800baee <main+0x156>
 800baea:	b672      	cpsid	i
 800baec:	e7fe      	b.n	800baec <main+0x154>
 800baee:	485e      	ldr	r0, [pc, #376]	; (800bc68 <main+0x2d0>)
 800baf0:	4a5e      	ldr	r2, [pc, #376]	; (800bc6c <main+0x2d4>)
 800baf2:	4f5f      	ldr	r7, [pc, #380]	; (800bc70 <main+0x2d8>)
 800baf4:	6203      	str	r3, [r0, #32]
 800baf6:	e9c0 7200 	strd	r7, r2, [r0]
 800bafa:	f44f 4280 	mov.w	r2, #16384	; 0x4000
 800bafe:	e9c0 3302 	strd	r3, r3, [r0, #8]
 800bb02:	e9c0 2304 	strd	r2, r3, [r0, #16]
 800bb06:	e9c0 3306 	strd	r3, r3, [r0, #24]
 800bb0a:	f001 fa53 	bl	800cfb4 <HAL_I2C_Init>
 800bb0e:	4605      	mov	r5, r0
 800bb10:	b108      	cbz	r0, 800bb16 <main+0x17e>
 800bb12:	b672      	cpsid	i
 800bb14:	e7fe      	b.n	800bb14 <main+0x17c>
 800bb16:	4601      	mov	r1, r0
 800bb18:	4632      	mov	r2, r6
 800bb1a:	a824      	add	r0, sp, #144	; 0x90
 800bb1c:	f009 fcfc 	bl	8015518 <memset>
 800bb20:	221c      	movs	r2, #28
 800bb22:	4629      	mov	r1, r5
 800bb24:	a82b      	add	r0, sp, #172	; 0xac
 800bb26:	e9cd 551d 	strd	r5, r5, [sp, #116]	; 0x74
 800bb2a:	f009 fcf5 	bl	8015518 <memset>
 800bb2e:	2220      	movs	r2, #32
 800bb30:	4629      	mov	r1, r5
 800bb32:	a832      	add	r0, sp, #200	; 0xc8
 800bb34:	f009 fcf0 	bl	8015518 <memset>
 800bb38:	4c4e      	ldr	r4, [pc, #312]	; (800bc74 <main+0x2dc>)
 800bb3a:	4b4f      	ldr	r3, [pc, #316]	; (800bc78 <main+0x2e0>)
 800bb3c:	60a5      	str	r5, [r4, #8]
 800bb3e:	e9c4 3500 	strd	r3, r5, [r4]
 800bb42:	f240 33ff 	movw	r3, #1023	; 0x3ff
 800bb46:	e9c4 3503 	strd	r3, r5, [r4, #12]
 800bb4a:	4620      	mov	r0, r4
 800bb4c:	2380      	movs	r3, #128	; 0x80
 800bb4e:	6165      	str	r5, [r4, #20]
 800bb50:	61a3      	str	r3, [r4, #24]
 800bb52:	f004 f8c3 	bl	800fcdc <HAL_TIM_Base_Init>
 800bb56:	b108      	cbz	r0, 800bb5c <main+0x1c4>
 800bb58:	b672      	cpsid	i
 800bb5a:	e7fe      	b.n	800bb5a <main+0x1c2>
 800bb5c:	f44f 5380 	mov.w	r3, #4096	; 0x1000
 800bb60:	a924      	add	r1, sp, #144	; 0x90
 800bb62:	4620      	mov	r0, r4
 800bb64:	9324      	str	r3, [sp, #144]	; 0x90
 800bb66:	f004 f9a3 	bl	800feb0 <HAL_TIM_ConfigClockSource>
 800bb6a:	b108      	cbz	r0, 800bb70 <main+0x1d8>
 800bb6c:	b672      	cpsid	i
 800bb6e:	e7fe      	b.n	800bb6e <main+0x1d6>
 800bb70:	4620      	mov	r0, r4
 800bb72:	f004 f8df 	bl	800fd34 <HAL_TIM_PWM_Init>
 800bb76:	b108      	cbz	r0, 800bb7c <main+0x1e4>
 800bb78:	b672      	cpsid	i
 800bb7a:	e7fe      	b.n	800bb7a <main+0x1e2>
 800bb7c:	e9cd 001d 	strd	r0, r0, [sp, #116]	; 0x74
 800bb80:	a91d      	add	r1, sp, #116	; 0x74
 800bb82:	4620      	mov	r0, r4
 800bb84:	f004 fa9a 	bl	80100bc <HAL_TIMEx_MasterConfigSynchronization>
 800bb88:	4602      	mov	r2, r0
 800bb8a:	b108      	cbz	r0, 800bb90 <main+0x1f8>
 800bb8c:	b672      	cpsid	i
 800bb8e:	e7fe      	b.n	800bb8e <main+0x1f6>
 800bb90:	2360      	movs	r3, #96	; 0x60
 800bb92:	e9cd 302b 	strd	r3, r0, [sp, #172]	; 0xac
 800bb96:	e9cd 002d 	strd	r0, r0, [sp, #180]	; 0xb4
 800bb9a:	e9cd 002f 	strd	r0, r0, [sp, #188]	; 0xbc
 800bb9e:	9031      	str	r0, [sp, #196]	; 0xc4
 800bba0:	a92b      	add	r1, sp, #172	; 0xac
 800bba2:	4620      	mov	r0, r4
 800bba4:	f004 f91e 	bl	800fde4 <HAL_TIM_PWM_ConfigChannel>
 800bba8:	b108      	cbz	r0, 800bbae <main+0x216>
 800bbaa:	b672      	cpsid	i
 800bbac:	e7fe      	b.n	800bbac <main+0x214>
 800bbae:	2204      	movs	r2, #4
 800bbb0:	a92b      	add	r1, sp, #172	; 0xac
 800bbb2:	4620      	mov	r0, r4
 800bbb4:	f004 f916 	bl	800fde4 <HAL_TIM_PWM_ConfigChannel>
 800bbb8:	b108      	cbz	r0, 800bbbe <main+0x226>
 800bbba:	b672      	cpsid	i
 800bbbc:	e7fe      	b.n	800bbbc <main+0x224>
 800bbbe:	2208      	movs	r2, #8
 800bbc0:	a92b      	add	r1, sp, #172	; 0xac
 800bbc2:	4620      	mov	r0, r4
 800bbc4:	f004 f90e 	bl	800fde4 <HAL_TIM_PWM_ConfigChannel>
 800bbc8:	b108      	cbz	r0, 800bbce <main+0x236>
 800bbca:	b672      	cpsid	i
 800bbcc:	e7fe      	b.n	800bbcc <main+0x234>
 800bbce:	e9cd 0032 	strd	r0, r0, [sp, #200]	; 0xc8
 800bbd2:	e9cd 0034 	strd	r0, r0, [sp, #208]	; 0xd0
 800bbd6:	9036      	str	r0, [sp, #216]	; 0xd8
 800bbd8:	f44f 5300 	mov.w	r3, #8192	; 0x2000
 800bbdc:	9039      	str	r0, [sp, #228]	; 0xe4
 800bbde:	a932      	add	r1, sp, #200	; 0xc8
 800bbe0:	4620      	mov	r0, r4
 800bbe2:	9337      	str	r3, [sp, #220]	; 0xdc
 800bbe4:	f004 faa0 	bl	8010128 <HAL_TIMEx_ConfigBreakDeadTime>
 800bbe8:	b108      	cbz	r0, 800bbee <main+0x256>
 800bbea:	b672      	cpsid	i
 800bbec:	e7fe      	b.n	800bbec <main+0x254>
 800bbee:	4c23      	ldr	r4, [pc, #140]	; (800bc7c <main+0x2e4>)
 800bbf0:	4820      	ldr	r0, [pc, #128]	; (800bc74 <main+0x2dc>)
 800bbf2:	4d23      	ldr	r5, [pc, #140]	; (800bc80 <main+0x2e8>)
 800bbf4:	f000 fbbe 	bl	800c374 <HAL_TIM_MspPostInit>
 800bbf8:	2210      	movs	r2, #16
 800bbfa:	2100      	movs	r1, #0
 800bbfc:	a832      	add	r0, sp, #200	; 0xc8
 800bbfe:	f009 fc8b 	bl	8015518 <memset>
 800bc02:	f44f 5816 	mov.w	r8, #9600	; 0x2580
 800bc06:	2300      	movs	r3, #0
 800bc08:	f242 7210 	movw	r2, #10000	; 0x2710
 800bc0c:	2780      	movs	r7, #128	; 0x80
 800bc0e:	4620      	mov	r0, r4
 800bc10:	e9cd 332b 	strd	r3, r3, [sp, #172]	; 0xac
 800bc14:	e9c4 5200 	strd	r5, r2, [r4]
 800bc18:	e9c4 8303 	strd	r8, r3, [r4, #12]
 800bc1c:	60a3      	str	r3, [r4, #8]
 800bc1e:	61a7      	str	r7, [r4, #24]
 800bc20:	f004 f85c 	bl	800fcdc <HAL_TIM_Base_Init>
 800bc24:	b108      	cbz	r0, 800bc2a <main+0x292>
 800bc26:	b672      	cpsid	i
 800bc28:	e7fe      	b.n	800bc28 <main+0x290>
 800bc2a:	f44f 5680 	mov.w	r6, #4096	; 0x1000
 800bc2e:	a932      	add	r1, sp, #200	; 0xc8
 800bc30:	4620      	mov	r0, r4
 800bc32:	9632      	str	r6, [sp, #200]	; 0xc8
 800bc34:	f004 f93c 	bl	800feb0 <HAL_TIM_ConfigClockSource>
 800bc38:	b108      	cbz	r0, 800bc3e <main+0x2a6>
 800bc3a:	b672      	cpsid	i
 800bc3c:	e7fe      	b.n	800bc3c <main+0x2a4>
 800bc3e:	e9cd 002b 	strd	r0, r0, [sp, #172]	; 0xac
 800bc42:	a92b      	add	r1, sp, #172	; 0xac
 800bc44:	4620      	mov	r0, r4
 800bc46:	f004 fa39 	bl	80100bc <HAL_TIMEx_MasterConfigSynchronization>
 800bc4a:	4605      	mov	r5, r0
 800bc4c:	b1e0      	cbz	r0, 800bc88 <main+0x2f0>
 800bc4e:	b672      	cpsid	i
 800bc50:	e7fe      	b.n	800bc50 <main+0x2b8>
 800bc52:	bf00      	nop
 800bc54:	2000cac8 	.word	0x2000cac8
 800bc58:	40023800 	.word	0x40023800
 800bc5c:	40020400 	.word	0x40020400
 800bc60:	40020000 	.word	0x40020000
 800bc64:	2000b068 	.word	0x2000b068
 800bc68:	2000aff4 	.word	0x2000aff4
 800bc6c:	00061a80 	.word	0x00061a80
 800bc70:	40005400 	.word	0x40005400
 800bc74:	2000b0c0 	.word	0x2000b0c0
 800bc78:	40010000 	.word	0x40010000
 800bc7c:	2000b150 	.word	0x2000b150
 800bc80:	40000400 	.word	0x40000400
 800bc84:	40013000 	.word	0x40013000
 800bc88:	4601      	mov	r1, r0
 800bc8a:	2210      	movs	r2, #16
 800bc8c:	a832      	add	r0, sp, #200	; 0xc8
 800bc8e:	f009 fc43 	bl	8015518 <memset>
 800bc92:	4c91      	ldr	r4, [pc, #580]	; (800bed8 <main+0x540>)
 800bc94:	4891      	ldr	r0, [pc, #580]	; (800bedc <main+0x544>)
 800bc96:	60a5      	str	r5, [r4, #8]
 800bc98:	235f      	movs	r3, #95	; 0x5f
 800bc9a:	e9c4 0300 	strd	r0, r3, [r4]
 800bc9e:	f04f 39ff 	mov.w	r9, #4294967295
 800bca2:	4620      	mov	r0, r4
 800bca4:	e9cd 552b 	strd	r5, r5, [sp, #172]	; 0xac
 800bca8:	e9c4 9503 	strd	r9, r5, [r4, #12]
 800bcac:	61a5      	str	r5, [r4, #24]
 800bcae:	f004 f815 	bl	800fcdc <HAL_TIM_Base_Init>
 800bcb2:	b108      	cbz	r0, 800bcb8 <main+0x320>
 800bcb4:	b672      	cpsid	i
 800bcb6:	e7fe      	b.n	800bcb6 <main+0x31e>
 800bcb8:	a932      	add	r1, sp, #200	; 0xc8
 800bcba:	4620      	mov	r0, r4
 800bcbc:	9632      	str	r6, [sp, #200]	; 0xc8
 800bcbe:	f004 f8f7 	bl	800feb0 <HAL_TIM_ConfigClockSource>
 800bcc2:	b108      	cbz	r0, 800bcc8 <main+0x330>
 800bcc4:	b672      	cpsid	i
 800bcc6:	e7fe      	b.n	800bcc6 <main+0x32e>
 800bcc8:	e9cd 002b 	strd	r0, r0, [sp, #172]	; 0xac
 800bccc:	a92b      	add	r1, sp, #172	; 0xac
 800bcce:	4620      	mov	r0, r4
 800bcd0:	f004 f9f4 	bl	80100bc <HAL_TIMEx_MasterConfigSynchronization>
 800bcd4:	4603      	mov	r3, r0
 800bcd6:	b108      	cbz	r0, 800bcdc <main+0x344>
 800bcd8:	b672      	cpsid	i
 800bcda:	e7fe      	b.n	800bcda <main+0x342>
 800bcdc:	4880      	ldr	r0, [pc, #512]	; (800bee0 <main+0x548>)
 800bcde:	4a81      	ldr	r2, [pc, #516]	; (800bee4 <main+0x54c>)
 800bce0:	6183      	str	r3, [r0, #24]
 800bce2:	e9c0 2300 	strd	r2, r3, [r0]
 800bce6:	217f      	movs	r1, #127	; 0x7f
 800bce8:	22ff      	movs	r2, #255	; 0xff
 800bcea:	e9c0 1202 	strd	r1, r2, [r0, #8]
 800bcee:	e9c0 3304 	strd	r3, r3, [r0, #16]
 800bcf2:	f003 fa84 	bl	800f1fe <HAL_RTC_Init>
 800bcf6:	4605      	mov	r5, r0
 800bcf8:	b108      	cbz	r0, 800bcfe <main+0x366>
 800bcfa:	b672      	cpsid	i
 800bcfc:	e7fe      	b.n	800bcfc <main+0x364>
 800bcfe:	4c7a      	ldr	r4, [pc, #488]	; (800bee8 <main+0x550>)
 800bd00:	4601      	mov	r1, r0
 800bd02:	2210      	movs	r2, #16
 800bd04:	a832      	add	r0, sp, #200	; 0xc8
 800bd06:	f009 fc07 	bl	8015518 <memset>
 800bd0a:	f04f 4380 	mov.w	r3, #1073741824	; 0x40000000
 800bd0e:	4620      	mov	r0, r4
 800bd10:	e9cd 552b 	strd	r5, r5, [sp, #172]	; 0xac
 800bd14:	e9c4 3800 	strd	r3, r8, [r4]
 800bd18:	e9c4 5902 	strd	r5, r9, [r4, #8]
 800bd1c:	6125      	str	r5, [r4, #16]
 800bd1e:	61a7      	str	r7, [r4, #24]
 800bd20:	f003 ffdc 	bl	800fcdc <HAL_TIM_Base_Init>
 800bd24:	b108      	cbz	r0, 800bd2a <main+0x392>
 800bd26:	b672      	cpsid	i
 800bd28:	e7fe      	b.n	800bd28 <main+0x390>
 800bd2a:	a932      	add	r1, sp, #200	; 0xc8
 800bd2c:	4620      	mov	r0, r4
 800bd2e:	9632      	str	r6, [sp, #200]	; 0xc8
 800bd30:	f004 f8be 	bl	800feb0 <HAL_TIM_ConfigClockSource>
 800bd34:	b108      	cbz	r0, 800bd3a <main+0x3a2>
 800bd36:	b672      	cpsid	i
 800bd38:	e7fe      	b.n	800bd38 <main+0x3a0>
 800bd3a:	e9cd 002b 	strd	r0, r0, [sp, #172]	; 0xac
 800bd3e:	a92b      	add	r1, sp, #172	; 0xac
 800bd40:	4620      	mov	r0, r4
 800bd42:	f004 f9bb 	bl	80100bc <HAL_TIMEx_MasterConfigSynchronization>
 800bd46:	b108      	cbz	r0, 800bd4c <main+0x3b4>
 800bd48:	b672      	cpsid	i
 800bd4a:	e7fe      	b.n	800bd4a <main+0x3b2>
 800bd4c:	4d67      	ldr	r5, [pc, #412]	; (800beec <main+0x554>)
 800bd4e:	4b68      	ldr	r3, [pc, #416]	; (800bef0 <main+0x558>)
 800bd50:	4968      	ldr	r1, [pc, #416]	; (800bef4 <main+0x55c>)
 800bd52:	2401      	movs	r4, #1
 800bd54:	4628      	mov	r0, r5
 800bd56:	701c      	strb	r4, [r3, #0]
 800bd58:	f7fe fc5c 	bl	800a614 <RGB_Init>
 800bd5c:	8c6a      	ldrh	r2, [r5, #34]	; 0x22
 800bd5e:	f8d5 101e 	ldr.w	r1, [r5, #30]
 800bd62:	4623      	mov	r3, r4
 800bd64:	4628      	mov	r0, r5
 800bd66:	f7fe fc83 	bl	800a670 <RGB_SetActColor>
 800bd6a:	f44f 70fa 	mov.w	r0, #500	; 0x1f4
 800bd6e:	f000 fc77 	bl	800c660 <HAL_Delay>
 800bd72:	485d      	ldr	r0, [pc, #372]	; (800bee8 <main+0x550>)
 800bd74:	f003 fe8a 	bl	800fa8c <HAL_TIM_Base_Start_IT>
 800bd78:	485f      	ldr	r0, [pc, #380]	; (800bef8 <main+0x560>)
 800bd7a:	f003 fe87 	bl	800fa8c <HAL_TIM_Base_Start_IT>
 800bd7e:	4856      	ldr	r0, [pc, #344]	; (800bed8 <main+0x540>)
 800bd80:	2500      	movs	r5, #0
 800bd82:	f003 fe83 	bl	800fa8c <HAL_TIM_Base_Start_IT>
 800bd86:	a808      	add	r0, sp, #32
 800bd88:	e9cd 5508 	strd	r5, r5, [sp, #32]
 800bd8c:	f005 fe66 	bl	8011a5c <osMutexCreate>
 800bd90:	4b5a      	ldr	r3, [pc, #360]	; (800befc <main+0x564>)
 800bd92:	950a      	str	r5, [sp, #40]	; 0x28
 800bd94:	6018      	str	r0, [r3, #0]
 800bd96:	4621      	mov	r1, r4
 800bd98:	4b59      	ldr	r3, [pc, #356]	; (800bf00 <main+0x568>)
 800bd9a:	930b      	str	r3, [sp, #44]	; 0x2c
 800bd9c:	a80a      	add	r0, sp, #40	; 0x28
 800bd9e:	f005 feac 	bl	8011afa <osSemaphoreCreate>
 800bda2:	4b58      	ldr	r3, [pc, #352]	; (800bf04 <main+0x56c>)
 800bda4:	4621      	mov	r1, r4
 800bda6:	6018      	str	r0, [r3, #0]
 800bda8:	a80c      	add	r0, sp, #48	; 0x30
 800bdaa:	e9cd 550c 	strd	r5, r5, [sp, #48]	; 0x30
 800bdae:	f005 fea4 	bl	8011afa <osSemaphoreCreate>
 800bdb2:	4b55      	ldr	r3, [pc, #340]	; (800bf08 <main+0x570>)
 800bdb4:	950e      	str	r5, [sp, #56]	; 0x38
 800bdb6:	6018      	str	r0, [r3, #0]
 800bdb8:	4621      	mov	r1, r4
 800bdba:	4b54      	ldr	r3, [pc, #336]	; (800bf0c <main+0x574>)
 800bdbc:	930f      	str	r3, [sp, #60]	; 0x3c
 800bdbe:	a80e      	add	r0, sp, #56	; 0x38
 800bdc0:	f005 fe9b 	bl	8011afa <osSemaphoreCreate>
 800bdc4:	4b52      	ldr	r3, [pc, #328]	; (800bf10 <main+0x578>)
 800bdc6:	6018      	str	r0, [r3, #0]
 800bdc8:	4b52      	ldr	r3, [pc, #328]	; (800bf14 <main+0x57c>)
 800bdca:	4621      	mov	r1, r4
 800bdcc:	462a      	mov	r2, r5
 800bdce:	a810      	add	r0, sp, #64	; 0x40
 800bdd0:	e9cd 3510 	strd	r3, r5, [sp, #64]	; 0x40
 800bdd4:	f005 fe00 	bl	80119d8 <osTimerCreate>
 800bdd8:	4b4f      	ldr	r3, [pc, #316]	; (800bf18 <main+0x580>)
 800bdda:	6018      	str	r0, [r3, #0]
 800bddc:	4b4f      	ldr	r3, [pc, #316]	; (800bf1c <main+0x584>)
 800bdde:	462a      	mov	r2, r5
 800bde0:	4629      	mov	r1, r5
 800bde2:	a812      	add	r0, sp, #72	; 0x48
 800bde4:	e9cd 3512 	strd	r3, r5, [sp, #72]	; 0x48
 800bde8:	f005 fdf6 	bl	80119d8 <osTimerCreate>
 800bdec:	4b4c      	ldr	r3, [pc, #304]	; (800bf20 <main+0x588>)
 800bdee:	6018      	str	r0, [r3, #0]
 800bdf0:	4b4c      	ldr	r3, [pc, #304]	; (800bf24 <main+0x58c>)
 800bdf2:	462a      	mov	r2, r5
 800bdf4:	4629      	mov	r1, r5
 800bdf6:	a814      	add	r0, sp, #80	; 0x50
 800bdf8:	e9cd 3514 	strd	r3, r5, [sp, #80]	; 0x50
 800bdfc:	f005 fdec 	bl	80119d8 <osTimerCreate>
 800be00:	4b49      	ldr	r3, [pc, #292]	; (800bf28 <main+0x590>)
 800be02:	4a4a      	ldr	r2, [pc, #296]	; (800bf2c <main+0x594>)
 800be04:	6018      	str	r0, [r3, #0]
 800be06:	4621      	mov	r1, r4
 800be08:	4b49      	ldr	r3, [pc, #292]	; (800bf30 <main+0x598>)
 800be0a:	9500      	str	r5, [sp, #0]
 800be0c:	f44f 6000 	mov.w	r0, #2048	; 0x800
 800be10:	f005 ffcc 	bl	8011dac <xQueueGenericCreateStatic>
 800be14:	4b47      	ldr	r3, [pc, #284]	; (800bf34 <main+0x59c>)
 800be16:	4a48      	ldr	r2, [pc, #288]	; (800bf38 <main+0x5a0>)
 800be18:	6018      	str	r0, [r3, #0]
 800be1a:	4621      	mov	r1, r4
 800be1c:	4b47      	ldr	r3, [pc, #284]	; (800bf3c <main+0x5a4>)
 800be1e:	9500      	str	r5, [sp, #0]
 800be20:	f44f 6000 	mov.w	r0, #2048	; 0x800
 800be24:	f005 ffc2 	bl	8011dac <xQueueGenericCreateStatic>
 800be28:	4b45      	ldr	r3, [pc, #276]	; (800bf40 <main+0x5a8>)
 800be2a:	4a46      	ldr	r2, [pc, #280]	; (800bf44 <main+0x5ac>)
 800be2c:	6018      	str	r0, [r3, #0]
 800be2e:	2110      	movs	r1, #16
 800be30:	4b45      	ldr	r3, [pc, #276]	; (800bf48 <main+0x5b0>)
 800be32:	9500      	str	r5, [sp, #0]
 800be34:	f44f 7020 	mov.w	r0, #640	; 0x280
 800be38:	f005 ffb8 	bl	8011dac <xQueueGenericCreateStatic>
 800be3c:	4c43      	ldr	r4, [pc, #268]	; (800bf4c <main+0x5b4>)
 800be3e:	4b44      	ldr	r3, [pc, #272]	; (800bf50 <main+0x5b8>)
 800be40:	6018      	str	r0, [r3, #0]
 800be42:	cc0f      	ldmia	r4!, {r0, r1, r2, r3}
 800be44:	ae16      	add	r6, sp, #88	; 0x58
 800be46:	c60f      	stmia	r6!, {r0, r1, r2, r3}
 800be48:	e894 0007 	ldmia.w	r4, {r0, r1, r2}
 800be4c:	e886 0007 	stmia.w	r6, {r0, r1, r2}
 800be50:	4629      	mov	r1, r5
 800be52:	a816      	add	r0, sp, #88	; 0x58
 800be54:	f005 fd8f 	bl	8011976 <osThreadCreate>
 800be58:	4b3e      	ldr	r3, [pc, #248]	; (800bf54 <main+0x5bc>)
 800be5a:	f104 070c 	add.w	r7, r4, #12
 800be5e:	6018      	str	r0, [r3, #0]
 800be60:	cf0f      	ldmia	r7!, {r0, r1, r2, r3}
 800be62:	ae1d      	add	r6, sp, #116	; 0x74
 800be64:	c60f      	stmia	r6!, {r0, r1, r2, r3}
 800be66:	e897 0007 	ldmia.w	r7, {r0, r1, r2}
 800be6a:	e886 0007 	stmia.w	r6, {r0, r1, r2}
 800be6e:	4629      	mov	r1, r5
 800be70:	a81d      	add	r0, sp, #116	; 0x74
 800be72:	f005 fd80 	bl	8011976 <osThreadCreate>
 800be76:	4b38      	ldr	r3, [pc, #224]	; (800bf58 <main+0x5c0>)
 800be78:	f104 0728 	add.w	r7, r4, #40	; 0x28
 800be7c:	6018      	str	r0, [r3, #0]
 800be7e:	cf0f      	ldmia	r7!, {r0, r1, r2, r3}
 800be80:	ae24      	add	r6, sp, #144	; 0x90
 800be82:	c60f      	stmia	r6!, {r0, r1, r2, r3}
 800be84:	e897 0007 	ldmia.w	r7, {r0, r1, r2}
 800be88:	e886 0007 	stmia.w	r6, {r0, r1, r2}
 800be8c:	4629      	mov	r1, r5
 800be8e:	a824      	add	r0, sp, #144	; 0x90
 800be90:	f005 fd71 	bl	8011976 <osThreadCreate>
 800be94:	4b31      	ldr	r3, [pc, #196]	; (800bf5c <main+0x5c4>)
 800be96:	f104 0744 	add.w	r7, r4, #68	; 0x44
 800be9a:	6018      	str	r0, [r3, #0]
 800be9c:	cf0f      	ldmia	r7!, {r0, r1, r2, r3}
 800be9e:	ae2b      	add	r6, sp, #172	; 0xac
 800bea0:	c60f      	stmia	r6!, {r0, r1, r2, r3}
 800bea2:	e897 0007 	ldmia.w	r7, {r0, r1, r2}
 800bea6:	e886 0007 	stmia.w	r6, {r0, r1, r2}
 800beaa:	4629      	mov	r1, r5
 800beac:	a82b      	add	r0, sp, #172	; 0xac
 800beae:	f005 fd62 	bl	8011976 <osThreadCreate>
 800beb2:	4b2b      	ldr	r3, [pc, #172]	; (800bf60 <main+0x5c8>)
 800beb4:	3460      	adds	r4, #96	; 0x60
 800beb6:	6018      	str	r0, [r3, #0]
 800beb8:	cc0f      	ldmia	r4!, {r0, r1, r2, r3}
 800beba:	ae32      	add	r6, sp, #200	; 0xc8
 800bebc:	c60f      	stmia	r6!, {r0, r1, r2, r3}
 800bebe:	e894 0007 	ldmia.w	r4, {r0, r1, r2}
 800bec2:	e886 0007 	stmia.w	r6, {r0, r1, r2}
 800bec6:	4629      	mov	r1, r5
 800bec8:	a832      	add	r0, sp, #200	; 0xc8
 800beca:	f005 fd54 	bl	8011976 <osThreadCreate>
 800bece:	4b25      	ldr	r3, [pc, #148]	; (800bf64 <main+0x5cc>)
 800bed0:	6018      	str	r0, [r3, #0]
 800bed2:	f005 fd44 	bl	801195e <osKernelStart>
 800bed6:	e7fe      	b.n	800bed6 <main+0x53e>
 800bed8:	2000b198 	.word	0x2000b198
 800bedc:	40000c00 	.word	0x40000c00
 800bee0:	2000b048 	.word	0x2000b048
 800bee4:	40002800 	.word	0x40002800
 800bee8:	2000b108 	.word	0x2000b108
 800beec:	20002e2c 	.word	0x20002e2c
 800bef0:	2000466c 	.word	0x2000466c
 800bef4:	2000b0c0 	.word	0x2000b0c0
 800bef8:	2000b150 	.word	0x2000b150
 800befc:	2000ae74 	.word	0x2000ae74
 800bf00:	2000b9e0 	.word	0x2000b9e0
 800bf04:	2000ba28 	.word	0x2000ba28
 800bf08:	2000ba2c 	.word	0x2000ba2c
 800bf0c:	2000ae88 	.word	0x2000ae88
 800bf10:	2000aed0 	.word	0x2000aed0
 800bf14:	0800b5b9 	.word	0x0800b5b9
 800bf18:	200055fc 	.word	0x200055fc
 800bf1c:	0800b28d 	.word	0x0800b28d
 800bf20:	20005600 	.word	0x20005600
 800bf24:	0800b5c5 	.word	0x0800b5c5
 800bf28:	2000ae78 	.word	0x2000ae78
 800bf2c:	2000ba34 	.word	0x2000ba34
 800bf30:	2000c234 	.word	0x2000c234
 800bf34:	2000ba30 	.word	0x2000ba30
 800bf38:	2000c280 	.word	0x2000c280
 800bf3c:	2000ca80 	.word	0x2000ca80
 800bf40:	2000c27c 	.word	0x2000c27c
 800bf44:	2000560c 	.word	0x2000560c
 800bf48:	20007e0c 	.word	0x20007e0c
 800bf4c:	0801589c 	.word	0x0801589c
 800bf50:	20005608 	.word	0x20005608
 800bf54:	2000ae58 	.word	0x2000ae58
 800bf58:	2000ae7c 	.word	0x2000ae7c
 800bf5c:	2000ae84 	.word	0x2000ae84
 800bf60:	2000ae80 	.word	0x2000ae80
 800bf64:	2000ae54 	.word	0x2000ae54

0800bf68 <getRunTimeCounterValue>:
 800bf68:	f04f 4380 	mov.w	r3, #1073741824	; 0x40000000
 800bf6c:	6a58      	ldr	r0, [r3, #36]	; 0x24
 800bf6e:	4770      	bx	lr

0800bf70 <HAL_SPI_TxRxCpltCallback>:
 800bf70:	b51f      	push	{r0, r1, r2, r3, r4, lr}
 800bf72:	6802      	ldr	r2, [r0, #0]
 800bf74:	4b0f      	ldr	r3, [pc, #60]	; (800bfb4 <HAL_SPI_TxRxCpltCallback+0x44>)
 800bf76:	2400      	movs	r4, #0
 800bf78:	429a      	cmp	r2, r3
 800bf7a:	9403      	str	r4, [sp, #12]
 800bf7c:	d117      	bne.n	800bfae <HAL_SPI_TxRxCpltCallback+0x3e>
 800bf7e:	480e      	ldr	r0, [pc, #56]	; (800bfb8 <HAL_SPI_TxRxCpltCallback+0x48>)
 800bf80:	f7fe f998 	bl	800a2b4 <IIM42652_GetFIFOData_DMA_Complete>
 800bf84:	ab03      	add	r3, sp, #12
 800bf86:	480d      	ldr	r0, [pc, #52]	; (800bfbc <HAL_SPI_TxRxCpltCallback+0x4c>)
 800bf88:	9300      	str	r3, [sp, #0]
 800bf8a:	6800      	ldr	r0, [r0, #0]
 800bf8c:	4623      	mov	r3, r4
 800bf8e:	2201      	movs	r2, #1
 800bf90:	2104      	movs	r1, #4
 800bf92:	f007 f975 	bl	8013280 <xTaskGenericNotifyFromISR>
 800bf96:	9b03      	ldr	r3, [sp, #12]
 800bf98:	b14b      	cbz	r3, 800bfae <HAL_SPI_TxRxCpltCallback+0x3e>
 800bf9a:	f04f 23e0 	mov.w	r3, #3758153728	; 0xe000e000
 800bf9e:	f04f 5280 	mov.w	r2, #268435456	; 0x10000000
 800bfa2:	f8c3 2d04 	str.w	r2, [r3, #3332]	; 0xd04
 800bfa6:	f3bf 8f4f 	dsb	sy
 800bfaa:	f3bf 8f6f 	isb	sy
 800bfae:	b004      	add	sp, #16
 800bfb0:	bd10      	pop	{r4, pc}
 800bfb2:	bf00      	nop
 800bfb4:	40013000 	.word	0x40013000
 800bfb8:	20001dac 	.word	0x20001dac
 800bfbc:	2000ae7c 	.word	0x2000ae7c

0800bfc0 <HAL_I2C_MasterTxCpltCallback>:
 800bfc0:	b508      	push	{r3, lr}
 800bfc2:	6802      	ldr	r2, [r0, #0]
 800bfc4:	4b05      	ldr	r3, [pc, #20]	; (800bfdc <HAL_I2C_MasterTxCpltCallback+0x1c>)
 800bfc6:	429a      	cmp	r2, r3
 800bfc8:	d107      	bne.n	800bfda <HAL_I2C_MasterTxCpltCallback+0x1a>
 800bfca:	4805      	ldr	r0, [pc, #20]	; (800bfe0 <HAL_I2C_MasterTxCpltCallback+0x20>)
 800bfcc:	f7fc ffab 	bl	8008f26 <DAC7571_WriteDMA_Complete>
 800bfd0:	e8bd 4008 	ldmia.w	sp!, {r3, lr}
 800bfd4:	4802      	ldr	r0, [pc, #8]	; (800bfe0 <HAL_I2C_MasterTxCpltCallback+0x20>)
 800bfd6:	f7fc bfaf 	b.w	8008f38 <DAC7571_TestOutput>
 800bfda:	bd08      	pop	{r3, pc}
 800bfdc:	40005400 	.word	0x40005400
 800bfe0:	2000017c 	.word	0x2000017c

0800bfe4 <HAL_GPIO_EXTI_Callback>:
 800bfe4:	2810      	cmp	r0, #16
 800bfe6:	b508      	push	{r3, lr}
 800bfe8:	d10f      	bne.n	800c00a <HAL_GPIO_EXTI_Callback+0x26>
 800bfea:	4b11      	ldr	r3, [pc, #68]	; (800c030 <HAL_GPIO_EXTI_Callback+0x4c>)
 800bfec:	791b      	ldrb	r3, [r3, #4]
 800bfee:	b1eb      	cbz	r3, 800c02c <HAL_GPIO_EXTI_Callback+0x48>
 800bff0:	4810      	ldr	r0, [pc, #64]	; (800c034 <HAL_GPIO_EXTI_Callback+0x50>)
 800bff2:	f890 3824 	ldrb.w	r3, [r0, #2084]	; 0x824
 800bff6:	b9cb      	cbnz	r3, 800c02c <HAL_GPIO_EXTI_Callback+0x48>
 800bff8:	f7fe f8fe 	bl	800a1f8 <IIM42652_GetFIFOData_DMA>
 800bffc:	4b0e      	ldr	r3, [pc, #56]	; (800c038 <HAL_GPIO_EXTI_Callback+0x54>)
 800bffe:	2164      	movs	r1, #100	; 0x64
 800c000:	6818      	ldr	r0, [r3, #0]
 800c002:	e8bd 4008 	ldmia.w	sp!, {r3, lr}
 800c006:	f005 bcff 	b.w	8011a08 <osTimerStart>
 800c00a:	2808      	cmp	r0, #8
 800c00c:	d10e      	bne.n	800c02c <HAL_GPIO_EXTI_Callback+0x48>
 800c00e:	4b08      	ldr	r3, [pc, #32]	; (800c030 <HAL_GPIO_EXTI_Callback+0x4c>)
 800c010:	791b      	ldrb	r3, [r3, #4]
 800c012:	b15b      	cbz	r3, 800c02c <HAL_GPIO_EXTI_Callback+0x48>
 800c014:	4b09      	ldr	r3, [pc, #36]	; (800c03c <HAL_GPIO_EXTI_Callback+0x58>)
 800c016:	480a      	ldr	r0, [pc, #40]	; (800c040 <HAL_GPIO_EXTI_Callback+0x5c>)
 800c018:	2201      	movs	r2, #1
 800c01a:	f44f 7100 	mov.w	r1, #512	; 0x200
 800c01e:	f883 2037 	strb.w	r2, [r3, #55]	; 0x37
 800c022:	f000 ffb5 	bl	800cf90 <HAL_GPIO_WritePin>
 800c026:	4b07      	ldr	r3, [pc, #28]	; (800c044 <HAL_GPIO_EXTI_Callback+0x60>)
 800c028:	2114      	movs	r1, #20
 800c02a:	e7e9      	b.n	800c000 <HAL_GPIO_EXTI_Callback+0x1c>
 800c02c:	bd08      	pop	{r3, pc}
 800c02e:	bf00      	nop
 800c030:	2000466c 	.word	0x2000466c
 800c034:	20001dac 	.word	0x20001dac
 800c038:	2000ae78 	.word	0x2000ae78
 800c03c:	20002dac 	.word	0x20002dac
 800c040:	40020400 	.word	0x40020400
 800c044:	20005600 	.word	0x20005600

0800c048 <HAL_TIM_PeriodElapsedCallback>:
 800c048:	6802      	ldr	r2, [r0, #0]
 800c04a:	4b03      	ldr	r3, [pc, #12]	; (800c058 <HAL_TIM_PeriodElapsedCallback+0x10>)
 800c04c:	429a      	cmp	r2, r3
 800c04e:	d101      	bne.n	800c054 <HAL_TIM_PeriodElapsedCallback+0xc>
 800c050:	f000 baf4 	b.w	800c63c <HAL_IncTick>
 800c054:	4770      	bx	lr
 800c056:	bf00      	nop
 800c058:	40014400 	.word	0x40014400

0800c05c <Error_Handler>:
 800c05c:	b672      	cpsid	i
 800c05e:	e7fe      	b.n	800c05e <Error_Handler+0x2>

0800c060 <HAL_MspInit>:
 800c060:	b082      	sub	sp, #8
 800c062:	4b0e      	ldr	r3, [pc, #56]	; (800c09c <HAL_MspInit+0x3c>)
 800c064:	2200      	movs	r2, #0
 800c066:	9200      	str	r2, [sp, #0]
 800c068:	6c59      	ldr	r1, [r3, #68]	; 0x44
 800c06a:	f441 4180 	orr.w	r1, r1, #16384	; 0x4000
 800c06e:	6459      	str	r1, [r3, #68]	; 0x44
 800c070:	6c59      	ldr	r1, [r3, #68]	; 0x44
 800c072:	f401 4180 	and.w	r1, r1, #16384	; 0x4000
 800c076:	9100      	str	r1, [sp, #0]
 800c078:	9900      	ldr	r1, [sp, #0]
 800c07a:	9201      	str	r2, [sp, #4]
 800c07c:	6c19      	ldr	r1, [r3, #64]	; 0x40
 800c07e:	f041 5180 	orr.w	r1, r1, #268435456	; 0x10000000
 800c082:	6419      	str	r1, [r3, #64]	; 0x40
 800c084:	6c1b      	ldr	r3, [r3, #64]	; 0x40
 800c086:	f003 5380 	and.w	r3, r3, #268435456	; 0x10000000
 800c08a:	9301      	str	r3, [sp, #4]
 800c08c:	9b01      	ldr	r3, [sp, #4]
 800c08e:	210f      	movs	r1, #15
 800c090:	f06f 0001 	mvn.w	r0, #1
 800c094:	b002      	add	sp, #8
 800c096:	f000 bb09 	b.w	800c6ac <HAL_NVIC_SetPriority>
 800c09a:	bf00      	nop
 800c09c:	40023800 	.word	0x40023800

0800c0a0 <HAL_I2C_MspInit>:
 800c0a0:	b570      	push	{r4, r5, r6, lr}
 800c0a2:	4606      	mov	r6, r0
 800c0a4:	b088      	sub	sp, #32
 800c0a6:	2214      	movs	r2, #20
 800c0a8:	2100      	movs	r1, #0
 800c0aa:	a803      	add	r0, sp, #12
 800c0ac:	f009 fa34 	bl	8015518 <memset>
 800c0b0:	6832      	ldr	r2, [r6, #0]
 800c0b2:	4b29      	ldr	r3, [pc, #164]	; (800c158 <HAL_I2C_MspInit+0xb8>)
 800c0b4:	429a      	cmp	r2, r3
 800c0b6:	d14c      	bne.n	800c152 <HAL_I2C_MspInit+0xb2>
 800c0b8:	4c28      	ldr	r4, [pc, #160]	; (800c15c <HAL_I2C_MspInit+0xbc>)
 800c0ba:	4829      	ldr	r0, [pc, #164]	; (800c160 <HAL_I2C_MspInit+0xc0>)
 800c0bc:	2500      	movs	r5, #0
 800c0be:	9501      	str	r5, [sp, #4]
 800c0c0:	6b23      	ldr	r3, [r4, #48]	; 0x30
 800c0c2:	f043 0302 	orr.w	r3, r3, #2
 800c0c6:	6323      	str	r3, [r4, #48]	; 0x30
 800c0c8:	6b23      	ldr	r3, [r4, #48]	; 0x30
 800c0ca:	f003 0302 	and.w	r3, r3, #2
 800c0ce:	9301      	str	r3, [sp, #4]
 800c0d0:	9b01      	ldr	r3, [sp, #4]
 800c0d2:	22c0      	movs	r2, #192	; 0xc0
 800c0d4:	2312      	movs	r3, #18
 800c0d6:	e9cd 2303 	strd	r2, r3, [sp, #12]
 800c0da:	2101      	movs	r1, #1
 800c0dc:	2303      	movs	r3, #3
 800c0de:	e9cd 1305 	strd	r1, r3, [sp, #20]
 800c0e2:	2304      	movs	r3, #4
 800c0e4:	a903      	add	r1, sp, #12
 800c0e6:	9307      	str	r3, [sp, #28]
 800c0e8:	f000 fe8a 	bl	800ce00 <HAL_GPIO_Init>
 800c0ec:	9502      	str	r5, [sp, #8]
 800c0ee:	6c23      	ldr	r3, [r4, #64]	; 0x40
 800c0f0:	f443 1300 	orr.w	r3, r3, #2097152	; 0x200000
 800c0f4:	6423      	str	r3, [r4, #64]	; 0x40
 800c0f6:	6c23      	ldr	r3, [r4, #64]	; 0x40
 800c0f8:	4c1a      	ldr	r4, [pc, #104]	; (800c164 <HAL_I2C_MspInit+0xc4>)
 800c0fa:	f403 1300 	and.w	r3, r3, #2097152	; 0x200000
 800c0fe:	9302      	str	r3, [sp, #8]
 800c100:	9b02      	ldr	r3, [sp, #8]
 800c102:	4b19      	ldr	r3, [pc, #100]	; (800c168 <HAL_I2C_MspInit+0xc8>)
 800c104:	e9c4 3500 	strd	r3, r5, [r4]
 800c108:	2340      	movs	r3, #64	; 0x40
 800c10a:	e9c4 3502 	strd	r3, r5, [r4, #8]
 800c10e:	f44f 6380 	mov.w	r3, #1024	; 0x400
 800c112:	e9c4 3504 	strd	r3, r5, [r4, #16]
 800c116:	4620      	mov	r0, r4
 800c118:	f44f 3380 	mov.w	r3, #65536	; 0x10000
 800c11c:	e9c4 5506 	strd	r5, r5, [r4, #24]
 800c120:	e9c4 3508 	strd	r3, r5, [r4, #32]
 800c124:	f000 fb18 	bl	800c758 <HAL_DMA_Init>
 800c128:	b108      	cbz	r0, 800c12e <HAL_I2C_MspInit+0x8e>
 800c12a:	f7ff ff97 	bl	800c05c <Error_Handler>
 800c12e:	2200      	movs	r2, #0
 800c130:	2105      	movs	r1, #5
 800c132:	6374      	str	r4, [r6, #52]	; 0x34
 800c134:	201f      	movs	r0, #31
 800c136:	63a6      	str	r6, [r4, #56]	; 0x38
 800c138:	f000 fab8 	bl	800c6ac <HAL_NVIC_SetPriority>
 800c13c:	201f      	movs	r0, #31
 800c13e:	f000 fae7 	bl	800c710 <HAL_NVIC_EnableIRQ>
 800c142:	2020      	movs	r0, #32
 800c144:	2200      	movs	r2, #0
 800c146:	2105      	movs	r1, #5
 800c148:	f000 fab0 	bl	800c6ac <HAL_NVIC_SetPriority>
 800c14c:	2020      	movs	r0, #32
 800c14e:	f000 fadf 	bl	800c710 <HAL_NVIC_EnableIRQ>
 800c152:	b008      	add	sp, #32
 800c154:	bd70      	pop	{r4, r5, r6, pc}
 800c156:	bf00      	nop
 800c158:	40005400 	.word	0x40005400
 800c15c:	40023800 	.word	0x40023800
 800c160:	40020400 	.word	0x40020400
 800c164:	2000aed4 	.word	0x2000aed4
 800c168:	40026028 	.word	0x40026028

0800c16c <HAL_RTC_MspInit>:
 800c16c:	b510      	push	{r4, lr}
 800c16e:	4604      	mov	r4, r0
 800c170:	b086      	sub	sp, #24
 800c172:	2218      	movs	r2, #24
 800c174:	2100      	movs	r1, #0
 800c176:	4668      	mov	r0, sp
 800c178:	f009 f9ce 	bl	8015518 <memset>
 800c17c:	6822      	ldr	r2, [r4, #0]
 800c17e:	4b0a      	ldr	r3, [pc, #40]	; (800c1a8 <HAL_RTC_MspInit+0x3c>)
 800c180:	429a      	cmp	r2, r3
 800c182:	d10e      	bne.n	800c1a2 <HAL_RTC_MspInit+0x36>
 800c184:	2302      	movs	r3, #2
 800c186:	9300      	str	r3, [sp, #0]
 800c188:	4668      	mov	r0, sp
 800c18a:	f44f 7300 	mov.w	r3, #512	; 0x200
 800c18e:	9304      	str	r3, [sp, #16]
 800c190:	f002 ff46 	bl	800f020 <HAL_RCCEx_PeriphCLKConfig>
 800c194:	b108      	cbz	r0, 800c19a <HAL_RTC_MspInit+0x2e>
 800c196:	f7ff ff61 	bl	800c05c <Error_Handler>
 800c19a:	4b04      	ldr	r3, [pc, #16]	; (800c1ac <HAL_RTC_MspInit+0x40>)
 800c19c:	2201      	movs	r2, #1
 800c19e:	f8c3 2e3c 	str.w	r2, [r3, #3644]	; 0xe3c
 800c1a2:	b006      	add	sp, #24
 800c1a4:	bd10      	pop	{r4, pc}
 800c1a6:	bf00      	nop
 800c1a8:	40002800 	.word	0x40002800
 800c1ac:	42470000 	.word	0x42470000

0800c1b0 <HAL_SPI_MspInit>:
 800c1b0:	b570      	push	{r4, r5, r6, lr}
 800c1b2:	4606      	mov	r6, r0
 800c1b4:	b088      	sub	sp, #32
 800c1b6:	2214      	movs	r2, #20
 800c1b8:	2100      	movs	r1, #0
 800c1ba:	a803      	add	r0, sp, #12
 800c1bc:	f009 f9ac 	bl	8015518 <memset>
 800c1c0:	6832      	ldr	r2, [r6, #0]
 800c1c2:	4b33      	ldr	r3, [pc, #204]	; (800c290 <HAL_SPI_MspInit+0xe0>)
 800c1c4:	429a      	cmp	r2, r3
 800c1c6:	d161      	bne.n	800c28c <HAL_SPI_MspInit+0xdc>
 800c1c8:	2500      	movs	r5, #0
 800c1ca:	f503 3384 	add.w	r3, r3, #67584	; 0x10800
 800c1ce:	9501      	str	r5, [sp, #4]
 800c1d0:	6c5a      	ldr	r2, [r3, #68]	; 0x44
 800c1d2:	f442 5280 	orr.w	r2, r2, #4096	; 0x1000
 800c1d6:	645a      	str	r2, [r3, #68]	; 0x44
 800c1d8:	6c5a      	ldr	r2, [r3, #68]	; 0x44
 800c1da:	f402 5280 	and.w	r2, r2, #4096	; 0x1000
 800c1de:	9201      	str	r2, [sp, #4]
 800c1e0:	9a01      	ldr	r2, [sp, #4]
 800c1e2:	9502      	str	r5, [sp, #8]
 800c1e4:	6b1a      	ldr	r2, [r3, #48]	; 0x30
 800c1e6:	f042 0201 	orr.w	r2, r2, #1
 800c1ea:	631a      	str	r2, [r3, #48]	; 0x30
 800c1ec:	6b1b      	ldr	r3, [r3, #48]	; 0x30
 800c1ee:	f003 0301 	and.w	r3, r3, #1
 800c1f2:	9302      	str	r3, [sp, #8]
 800c1f4:	9b02      	ldr	r3, [sp, #8]
 800c1f6:	20e0      	movs	r0, #224	; 0xe0
 800c1f8:	2302      	movs	r3, #2
 800c1fa:	e9cd 0303 	strd	r0, r3, [sp, #12]
 800c1fe:	2403      	movs	r4, #3
 800c200:	2305      	movs	r3, #5
 800c202:	4824      	ldr	r0, [pc, #144]	; (800c294 <HAL_SPI_MspInit+0xe4>)
 800c204:	a903      	add	r1, sp, #12
 800c206:	e9cd 4306 	strd	r4, r3, [sp, #24]
 800c20a:	f000 fdf9 	bl	800ce00 <HAL_GPIO_Init>
 800c20e:	4c22      	ldr	r4, [pc, #136]	; (800c298 <HAL_SPI_MspInit+0xe8>)
 800c210:	f8df c090 	ldr.w	ip, [pc, #144]	; 800c2a4 <HAL_SPI_MspInit+0xf4>
 800c214:	f04f 63c0 	mov.w	r3, #100663296	; 0x6000000
 800c218:	e9c4 c300 	strd	ip, r3, [r4]
 800c21c:	f44f 6380 	mov.w	r3, #1024	; 0x400
 800c220:	e9c4 3504 	strd	r3, r5, [r4, #16]
 800c224:	4620      	mov	r0, r4
 800c226:	f44f 3340 	mov.w	r3, #196608	; 0x30000
 800c22a:	e9c4 5502 	strd	r5, r5, [r4, #8]
 800c22e:	e9c4 5506 	strd	r5, r5, [r4, #24]
 800c232:	e9c4 3508 	strd	r3, r5, [r4, #32]
 800c236:	f000 fa8f 	bl	800c758 <HAL_DMA_Init>
 800c23a:	b108      	cbz	r0, 800c240 <HAL_SPI_MspInit+0x90>
 800c23c:	f7ff ff0e 	bl	800c05c <Error_Handler>
 800c240:	4a16      	ldr	r2, [pc, #88]	; (800c29c <HAL_SPI_MspInit+0xec>)
 800c242:	64f4      	str	r4, [r6, #76]	; 0x4c
 800c244:	63a6      	str	r6, [r4, #56]	; 0x38
 800c246:	4c16      	ldr	r4, [pc, #88]	; (800c2a0 <HAL_SPI_MspInit+0xf0>)
 800c248:	f04f 6380 	mov.w	r3, #67108864	; 0x4000000
 800c24c:	e9c4 2300 	strd	r2, r3, [r4]
 800c250:	2300      	movs	r3, #0
 800c252:	f44f 6280 	mov.w	r2, #1024	; 0x400
 800c256:	e9c4 2304 	strd	r2, r3, [r4, #16]
 800c25a:	2140      	movs	r1, #64	; 0x40
 800c25c:	f44f 3240 	mov.w	r2, #196608	; 0x30000
 800c260:	4620      	mov	r0, r4
 800c262:	e9c4 1302 	strd	r1, r3, [r4, #8]
 800c266:	e9c4 3306 	strd	r3, r3, [r4, #24]
 800c26a:	e9c4 2308 	strd	r2, r3, [r4, #32]
 800c26e:	f000 fa73 	bl	800c758 <HAL_DMA_Init>
 800c272:	b108      	cbz	r0, 800c278 <HAL_SPI_MspInit+0xc8>
 800c274:	f7ff fef2 	bl	800c05c <Error_Handler>
 800c278:	2023      	movs	r0, #35	; 0x23
 800c27a:	64b4      	str	r4, [r6, #72]	; 0x48
 800c27c:	2200      	movs	r2, #0
 800c27e:	2105      	movs	r1, #5
 800c280:	63a6      	str	r6, [r4, #56]	; 0x38
 800c282:	f000 fa13 	bl	800c6ac <HAL_NVIC_SetPriority>
 800c286:	2023      	movs	r0, #35	; 0x23
 800c288:	f000 fa42 	bl	800c710 <HAL_NVIC_EnableIRQ>
 800c28c:	b008      	add	sp, #32
 800c28e:	bd70      	pop	{r4, r5, r6, pc}
 800c290:	40013000 	.word	0x40013000
 800c294:	40020000 	.word	0x40020000
 800c298:	2000af34 	.word	0x2000af34
 800c29c:	40026440 	.word	0x40026440
 800c2a0:	2000af94 	.word	0x2000af94
 800c2a4:	40026410 	.word	0x40026410

0800c2a8 <HAL_TIM_Base_MspInit>:
 800c2a8:	b51f      	push	{r0, r1, r2, r3, r4, lr}
 800c2aa:	6803      	ldr	r3, [r0, #0]
 800c2ac:	4a2d      	ldr	r2, [pc, #180]	; (800c364 <HAL_TIM_Base_MspInit+0xbc>)
 800c2ae:	4293      	cmp	r3, r2
 800c2b0:	d125      	bne.n	800c2fe <HAL_TIM_Base_MspInit+0x56>
 800c2b2:	2200      	movs	r2, #0
 800c2b4:	4b2c      	ldr	r3, [pc, #176]	; (800c368 <HAL_TIM_Base_MspInit+0xc0>)
 800c2b6:	9200      	str	r2, [sp, #0]
 800c2b8:	6c59      	ldr	r1, [r3, #68]	; 0x44
 800c2ba:	f041 0101 	orr.w	r1, r1, #1
 800c2be:	6459      	str	r1, [r3, #68]	; 0x44
 800c2c0:	6c5b      	ldr	r3, [r3, #68]	; 0x44
 800c2c2:	f003 0301 	and.w	r3, r3, #1
 800c2c6:	9300      	str	r3, [sp, #0]
 800c2c8:	2105      	movs	r1, #5
 800c2ca:	2018      	movs	r0, #24
 800c2cc:	9b00      	ldr	r3, [sp, #0]
 800c2ce:	f000 f9ed 	bl	800c6ac <HAL_NVIC_SetPriority>
 800c2d2:	2018      	movs	r0, #24
 800c2d4:	f000 fa1c 	bl	800c710 <HAL_NVIC_EnableIRQ>
 800c2d8:	2200      	movs	r2, #0
 800c2da:	210f      	movs	r1, #15
 800c2dc:	2019      	movs	r0, #25
 800c2de:	f000 f9e5 	bl	800c6ac <HAL_NVIC_SetPriority>
 800c2e2:	2019      	movs	r0, #25
 800c2e4:	f000 fa14 	bl	800c710 <HAL_NVIC_EnableIRQ>
 800c2e8:	2200      	movs	r2, #0
 800c2ea:	2105      	movs	r1, #5
 800c2ec:	201a      	movs	r0, #26
 800c2ee:	f000 f9dd 	bl	800c6ac <HAL_NVIC_SetPriority>
 800c2f2:	201a      	movs	r0, #26
 800c2f4:	b005      	add	sp, #20
 800c2f6:	f85d eb04 	ldr.w	lr, [sp], #4
 800c2fa:	f000 ba09 	b.w	800c710 <HAL_NVIC_EnableIRQ>
 800c2fe:	f1b3 4f80 	cmp.w	r3, #1073741824	; 0x40000000
 800c302:	d10e      	bne.n	800c322 <HAL_TIM_Base_MspInit+0x7a>
 800c304:	2300      	movs	r3, #0
 800c306:	9301      	str	r3, [sp, #4]
 800c308:	4b17      	ldr	r3, [pc, #92]	; (800c368 <HAL_TIM_Base_MspInit+0xc0>)
 800c30a:	6c1a      	ldr	r2, [r3, #64]	; 0x40
 800c30c:	f042 0201 	orr.w	r2, r2, #1
 800c310:	641a      	str	r2, [r3, #64]	; 0x40
 800c312:	6c1b      	ldr	r3, [r3, #64]	; 0x40
 800c314:	f003 0301 	and.w	r3, r3, #1
 800c318:	9301      	str	r3, [sp, #4]
 800c31a:	9b01      	ldr	r3, [sp, #4]
 800c31c:	b005      	add	sp, #20
 800c31e:	f85d fb04 	ldr.w	pc, [sp], #4
 800c322:	4a12      	ldr	r2, [pc, #72]	; (800c36c <HAL_TIM_Base_MspInit+0xc4>)
 800c324:	4293      	cmp	r3, r2
 800c326:	d10c      	bne.n	800c342 <HAL_TIM_Base_MspInit+0x9a>
 800c328:	2300      	movs	r3, #0
 800c32a:	9302      	str	r3, [sp, #8]
 800c32c:	4b0e      	ldr	r3, [pc, #56]	; (800c368 <HAL_TIM_Base_MspInit+0xc0>)
 800c32e:	6c1a      	ldr	r2, [r3, #64]	; 0x40
 800c330:	f042 0202 	orr.w	r2, r2, #2
 800c334:	641a      	str	r2, [r3, #64]	; 0x40
 800c336:	6c1b      	ldr	r3, [r3, #64]	; 0x40
 800c338:	f003 0302 	and.w	r3, r3, #2
 800c33c:	9302      	str	r3, [sp, #8]
 800c33e:	9b02      	ldr	r3, [sp, #8]
 800c340:	e7ec      	b.n	800c31c <HAL_TIM_Base_MspInit+0x74>
 800c342:	4a0b      	ldr	r2, [pc, #44]	; (800c370 <HAL_TIM_Base_MspInit+0xc8>)
 800c344:	4293      	cmp	r3, r2
 800c346:	d1e9      	bne.n	800c31c <HAL_TIM_Base_MspInit+0x74>
 800c348:	2300      	movs	r3, #0
 800c34a:	9303      	str	r3, [sp, #12]
 800c34c:	4b06      	ldr	r3, [pc, #24]	; (800c368 <HAL_TIM_Base_MspInit+0xc0>)
 800c34e:	6c1a      	ldr	r2, [r3, #64]	; 0x40
 800c350:	f042 0208 	orr.w	r2, r2, #8
 800c354:	641a      	str	r2, [r3, #64]	; 0x40
 800c356:	6c1b      	ldr	r3, [r3, #64]	; 0x40
 800c358:	f003 0308 	and.w	r3, r3, #8
 800c35c:	9303      	str	r3, [sp, #12]
 800c35e:	9b03      	ldr	r3, [sp, #12]
 800c360:	e7dc      	b.n	800c31c <HAL_TIM_Base_MspInit+0x74>
 800c362:	bf00      	nop
 800c364:	40010000 	.word	0x40010000
 800c368:	40023800 	.word	0x40023800
 800c36c:	40000400 	.word	0x40000400
 800c370:	40000c00 	.word	0x40000c00

0800c374 <HAL_TIM_MspPostInit>:
 800c374:	b510      	push	{r4, lr}
 800c376:	4604      	mov	r4, r0
 800c378:	b086      	sub	sp, #24
 800c37a:	2214      	movs	r2, #20
 800c37c:	2100      	movs	r1, #0
 800c37e:	a801      	add	r0, sp, #4
 800c380:	f009 f8ca 	bl	8015518 <memset>
 800c384:	6822      	ldr	r2, [r4, #0]
 800c386:	4b0e      	ldr	r3, [pc, #56]	; (800c3c0 <HAL_TIM_MspPostInit+0x4c>)
 800c388:	429a      	cmp	r2, r3
 800c38a:	d116      	bne.n	800c3ba <HAL_TIM_MspPostInit+0x46>
 800c38c:	2300      	movs	r3, #0
 800c38e:	9300      	str	r3, [sp, #0]
 800c390:	4b0c      	ldr	r3, [pc, #48]	; (800c3c4 <HAL_TIM_MspPostInit+0x50>)
 800c392:	480d      	ldr	r0, [pc, #52]	; (800c3c8 <HAL_TIM_MspPostInit+0x54>)
 800c394:	6b1a      	ldr	r2, [r3, #48]	; 0x30
 800c396:	f042 0201 	orr.w	r2, r2, #1
 800c39a:	631a      	str	r2, [r3, #48]	; 0x30
 800c39c:	6b1b      	ldr	r3, [r3, #48]	; 0x30
 800c39e:	f003 0301 	and.w	r3, r3, #1
 800c3a2:	9300      	str	r3, [sp, #0]
 800c3a4:	9b00      	ldr	r3, [sp, #0]
 800c3a6:	f44f 62e0 	mov.w	r2, #1792	; 0x700
 800c3aa:	2302      	movs	r3, #2
 800c3ac:	e9cd 2301 	strd	r2, r3, [sp, #4]
 800c3b0:	a901      	add	r1, sp, #4
 800c3b2:	2301      	movs	r3, #1
 800c3b4:	9305      	str	r3, [sp, #20]
 800c3b6:	f000 fd23 	bl	800ce00 <HAL_GPIO_Init>
 800c3ba:	b006      	add	sp, #24
 800c3bc:	bd10      	pop	{r4, pc}
 800c3be:	bf00      	nop
 800c3c0:	40010000 	.word	0x40010000
 800c3c4:	40023800 	.word	0x40023800
 800c3c8:	40020000 	.word	0x40020000

0800c3cc <HAL_InitTick>:
 800c3cc:	b530      	push	{r4, r5, lr}
 800c3ce:	4601      	mov	r1, r0
 800c3d0:	b089      	sub	sp, #36	; 0x24
 800c3d2:	2200      	movs	r2, #0
 800c3d4:	2019      	movs	r0, #25
 800c3d6:	f000 f969 	bl	800c6ac <HAL_NVIC_SetPriority>
 800c3da:	2019      	movs	r0, #25
 800c3dc:	f000 f998 	bl	800c710 <HAL_NVIC_EnableIRQ>
 800c3e0:	2500      	movs	r5, #0
 800c3e2:	4b14      	ldr	r3, [pc, #80]	; (800c434 <HAL_InitTick+0x68>)
 800c3e4:	9502      	str	r5, [sp, #8]
 800c3e6:	6c5a      	ldr	r2, [r3, #68]	; 0x44
 800c3e8:	4c13      	ldr	r4, [pc, #76]	; (800c438 <HAL_InitTick+0x6c>)
 800c3ea:	f442 3200 	orr.w	r2, r2, #131072	; 0x20000
 800c3ee:	645a      	str	r2, [r3, #68]	; 0x44
 800c3f0:	6c5b      	ldr	r3, [r3, #68]	; 0x44
 800c3f2:	f403 3300 	and.w	r3, r3, #131072	; 0x20000
 800c3f6:	9302      	str	r3, [sp, #8]
 800c3f8:	a901      	add	r1, sp, #4
 800c3fa:	a803      	add	r0, sp, #12
 800c3fc:	9b02      	ldr	r3, [sp, #8]
 800c3fe:	f002 fdf1 	bl	800efe4 <HAL_RCC_GetClockConfig>
 800c402:	f002 fddf 	bl	800efc4 <HAL_RCC_GetPCLK2Freq>
 800c406:	4b0d      	ldr	r3, [pc, #52]	; (800c43c <HAL_InitTick+0x70>)
 800c408:	6023      	str	r3, [r4, #0]
 800c40a:	f240 33e7 	movw	r3, #999	; 0x3e7
 800c40e:	60e3      	str	r3, [r4, #12]
 800c410:	4b0b      	ldr	r3, [pc, #44]	; (800c440 <HAL_InitTick+0x74>)
 800c412:	fbb0 f0f3 	udiv	r0, r0, r3
 800c416:	3801      	subs	r0, #1
 800c418:	6060      	str	r0, [r4, #4]
 800c41a:	4620      	mov	r0, r4
 800c41c:	6125      	str	r5, [r4, #16]
 800c41e:	60a5      	str	r5, [r4, #8]
 800c420:	f003 fc5c 	bl	800fcdc <HAL_TIM_Base_Init>
 800c424:	b920      	cbnz	r0, 800c430 <HAL_InitTick+0x64>
 800c426:	4620      	mov	r0, r4
 800c428:	f003 fb30 	bl	800fa8c <HAL_TIM_Base_Start_IT>
 800c42c:	b009      	add	sp, #36	; 0x24
 800c42e:	bd30      	pop	{r4, r5, pc}
 800c430:	2001      	movs	r0, #1
 800c432:	e7fb      	b.n	800c42c <HAL_InitTick+0x60>
 800c434:	40023800 	.word	0x40023800
 800c438:	2000cad8 	.word	0x2000cad8
 800c43c:	40014400 	.word	0x40014400
 800c440:	000f4240 	.word	0x000f4240

0800c444 <NMI_Handler>:
 800c444:	e7fe      	b.n	800c444 <NMI_Handler>

0800c446 <HardFault_Handler>:
 800c446:	e7fe      	b.n	800c446 <HardFault_Handler>

0800c448 <MemManage_Handler>:
 800c448:	e7fe      	b.n	800c448 <MemManage_Handler>

0800c44a <BusFault_Handler>:
 800c44a:	e7fe      	b.n	800c44a <BusFault_Handler>

0800c44c <UsageFault_Handler>:
 800c44c:	e7fe      	b.n	800c44c <UsageFault_Handler>

0800c44e <DebugMon_Handler>:
 800c44e:	4770      	bx	lr

0800c450 <EXTI3_IRQHandler>:
 800c450:	2008      	movs	r0, #8
 800c452:	f000 bda3 	b.w	800cf9c <HAL_GPIO_EXTI_IRQHandler>

0800c456 <EXTI4_IRQHandler>:
 800c456:	2010      	movs	r0, #16
 800c458:	f000 bda0 	b.w	800cf9c <HAL_GPIO_EXTI_IRQHandler>

0800c45c <DMA1_Stream1_IRQHandler>:
 800c45c:	4801      	ldr	r0, [pc, #4]	; (800c464 <DMA1_Stream1_IRQHandler+0x8>)
 800c45e:	f000 ba47 	b.w	800c8f0 <HAL_DMA_IRQHandler>
 800c462:	bf00      	nop
 800c464:	2000aed4 	.word	0x2000aed4

0800c468 <TIM1_BRK_TIM9_IRQHandler>:
 800c468:	4801      	ldr	r0, [pc, #4]	; (800c470 <TIM1_BRK_TIM9_IRQHandler+0x8>)
 800c46a:	f003 bb46 	b.w	800fafa <HAL_TIM_IRQHandler>
 800c46e:	bf00      	nop
 800c470:	2000b0c0 	.word	0x2000b0c0

0800c474 <TIM1_UP_TIM10_IRQHandler>:
 800c474:	b508      	push	{r3, lr}
 800c476:	4804      	ldr	r0, [pc, #16]	; (800c488 <TIM1_UP_TIM10_IRQHandler+0x14>)
 800c478:	f003 fb3f 	bl	800fafa <HAL_TIM_IRQHandler>
 800c47c:	e8bd 4008 	ldmia.w	sp!, {r3, lr}
 800c480:	4802      	ldr	r0, [pc, #8]	; (800c48c <TIM1_UP_TIM10_IRQHandler+0x18>)
 800c482:	f003 bb3a 	b.w	800fafa <HAL_TIM_IRQHandler>
 800c486:	bf00      	nop
 800c488:	2000b0c0 	.word	0x2000b0c0
 800c48c:	2000cad8 	.word	0x2000cad8

0800c490 <TIM1_TRG_COM_TIM11_IRQHandler>:
 800c490:	f7ff bfea 	b.w	800c468 <TIM1_BRK_TIM9_IRQHandler>

0800c494 <I2C1_EV_IRQHandler>:
 800c494:	4801      	ldr	r0, [pc, #4]	; (800c49c <I2C1_EV_IRQHandler+0x8>)
 800c496:	f001 b8e1 	b.w	800d65c <HAL_I2C_EV_IRQHandler>
 800c49a:	bf00      	nop
 800c49c:	2000aff4 	.word	0x2000aff4

0800c4a0 <I2C1_ER_IRQHandler>:
 800c4a0:	4801      	ldr	r0, [pc, #4]	; (800c4a8 <I2C1_ER_IRQHandler+0x8>)
 800c4a2:	f001 bd0f 	b.w	800dec4 <HAL_I2C_ER_IRQHandler>
 800c4a6:	bf00      	nop
 800c4a8:	2000aff4 	.word	0x2000aff4

0800c4ac <SPI1_IRQHandler>:
 800c4ac:	4801      	ldr	r0, [pc, #4]	; (800c4b4 <SPI1_IRQHandler+0x8>)
 800c4ae:	f003 b9e7 	b.w	800f880 <HAL_SPI_IRQHandler>
 800c4b2:	bf00      	nop
 800c4b4:	2000b068 	.word	0x2000b068

0800c4b8 <DMA2_Stream0_IRQHandler>:
 800c4b8:	4801      	ldr	r0, [pc, #4]	; (800c4c0 <DMA2_Stream0_IRQHandler+0x8>)
 800c4ba:	f000 ba19 	b.w	800c8f0 <HAL_DMA_IRQHandler>
 800c4be:	bf00      	nop
 800c4c0:	2000af34 	.word	0x2000af34

0800c4c4 <DMA2_Stream2_IRQHandler>:
 800c4c4:	4801      	ldr	r0, [pc, #4]	; (800c4cc <DMA2_Stream2_IRQHandler+0x8>)
 800c4c6:	f000 ba13 	b.w	800c8f0 <HAL_DMA_IRQHandler>
 800c4ca:	bf00      	nop
 800c4cc:	2000af94 	.word	0x2000af94

0800c4d0 <OTG_FS_IRQHandler>:
 800c4d0:	4801      	ldr	r0, [pc, #4]	; (800c4d8 <OTG_FS_IRQHandler+0x8>)
 800c4d2:	f001 bf7b 	b.w	800e3cc <HAL_PCD_IRQHandler>
 800c4d6:	bf00      	nop
 800c4d8:	2000e2a4 	.word	0x2000e2a4

0800c4dc <_sbrk>:
 800c4dc:	4a0b      	ldr	r2, [pc, #44]	; (800c50c <_sbrk+0x30>)
 800c4de:	6811      	ldr	r1, [r2, #0]
 800c4e0:	b510      	push	{r4, lr}
 800c4e2:	4603      	mov	r3, r0
 800c4e4:	b909      	cbnz	r1, 800c4ea <_sbrk+0xe>
 800c4e6:	490a      	ldr	r1, [pc, #40]	; (800c510 <_sbrk+0x34>)
 800c4e8:	6011      	str	r1, [r2, #0]
 800c4ea:	6810      	ldr	r0, [r2, #0]
 800c4ec:	4909      	ldr	r1, [pc, #36]	; (800c514 <_sbrk+0x38>)
 800c4ee:	4c0a      	ldr	r4, [pc, #40]	; (800c518 <_sbrk+0x3c>)
 800c4f0:	4403      	add	r3, r0
 800c4f2:	1b09      	subs	r1, r1, r4
 800c4f4:	428b      	cmp	r3, r1
 800c4f6:	d906      	bls.n	800c506 <_sbrk+0x2a>
 800c4f8:	f008 ffac 	bl	8015454 <__errno>
 800c4fc:	230c      	movs	r3, #12
 800c4fe:	6003      	str	r3, [r0, #0]
 800c500:	f04f 30ff 	mov.w	r0, #4294967295
 800c504:	bd10      	pop	{r4, pc}
 800c506:	6013      	str	r3, [r2, #0]
 800c508:	e7fc      	b.n	800c504 <_sbrk+0x28>
 800c50a:	bf00      	nop
 800c50c:	2000cb20 	.word	0x2000cb20
 800c510:	2000e9e0 	.word	0x2000e9e0
 800c514:	20020000 	.word	0x20020000
 800c518:	00000800 	.word	0x00000800

0800c51c <SystemInit>:
 800c51c:	4b04      	ldr	r3, [pc, #16]	; (800c530 <SystemInit+0x14>)
 800c51e:	f8d3 2088 	ldr.w	r2, [r3, #136]	; 0x88
 800c522:	f442 0270 	orr.w	r2, r2, #15728640	; 0xf00000
 800c526:	f8c3 2088 	str.w	r2, [r3, #136]	; 0x88
 800c52a:	4a02      	ldr	r2, [pc, #8]	; (800c534 <SystemInit+0x18>)
 800c52c:	609a      	str	r2, [r3, #8]
 800c52e:	4770      	bx	lr
 800c530:	e000ed00 	.word	0xe000ed00
 800c534:	08008000 	.word	0x08008000

0800c538 <Reset_Handler>:
 800c538:	f8df d034 	ldr.w	sp, [pc, #52]	; 800c570 <LoopFillZerobss+0x12>
 800c53c:	480d      	ldr	r0, [pc, #52]	; (800c574 <LoopFillZerobss+0x16>)
 800c53e:	490e      	ldr	r1, [pc, #56]	; (800c578 <LoopFillZerobss+0x1a>)
 800c540:	4a0e      	ldr	r2, [pc, #56]	; (800c57c <LoopFillZerobss+0x1e>)
 800c542:	2300      	movs	r3, #0
 800c544:	e002      	b.n	800c54c <LoopCopyDataInit>

0800c546 <CopyDataInit>:
 800c546:	58d4      	ldr	r4, [r2, r3]
 800c548:	50c4      	str	r4, [r0, r3]
 800c54a:	3304      	adds	r3, #4

0800c54c <LoopCopyDataInit>:
 800c54c:	18c4      	adds	r4, r0, r3
 800c54e:	428c      	cmp	r4, r1
 800c550:	d3f9      	bcc.n	800c546 <CopyDataInit>
 800c552:	4a0b      	ldr	r2, [pc, #44]	; (800c580 <LoopFillZerobss+0x22>)
 800c554:	4c0b      	ldr	r4, [pc, #44]	; (800c584 <LoopFillZerobss+0x26>)
 800c556:	2300      	movs	r3, #0
 800c558:	e001      	b.n	800c55e <LoopFillZerobss>

0800c55a <FillZerobss>:
 800c55a:	6013      	str	r3, [r2, #0]
 800c55c:	3204      	adds	r2, #4

0800c55e <LoopFillZerobss>:
 800c55e:	42a2      	cmp	r2, r4
 800c560:	d3fb      	bcc.n	800c55a <FillZerobss>
 800c562:	f7ff ffdb 	bl	800c51c <SystemInit>
 800c566:	f008 ff7b 	bl	8015460 <__libc_init_array>
 800c56a:	f7ff fa15 	bl	800b998 <main>
 800c56e:	4770      	bx	lr
 800c570:	20020000 	.word	0x20020000
 800c574:	20000000 	.word	0x20000000
 800c578:	20000160 	.word	0x20000160
 800c57c:	08028bfc 	.word	0x08028bfc
 800c580:	20000160 	.word	0x20000160
 800c584:	2000e9dc 	.word	0x2000e9dc

0800c588 <ADC_IRQHandler>:
 800c588:	e7fe      	b.n	800c588 <ADC_IRQHandler>

0800c58a <stm32_lock_acquire>:
 800c58a:	b508      	push	{r3, lr}
 800c58c:	7a03      	ldrb	r3, [r0, #8]
 800c58e:	2b01      	cmp	r3, #1
 800c590:	d903      	bls.n	800c59a <stm32_lock_acquire+0x10>
 800c592:	b672      	cpsid	i
 800c594:	f7ff fd62 	bl	800c05c <Error_Handler>
 800c598:	e7fe      	b.n	800c598 <stm32_lock_acquire+0xe>
 800c59a:	1c5a      	adds	r2, r3, #1
 800c59c:	7202      	strb	r2, [r0, #8]
 800c59e:	f3ef 8211 	mrs	r2, BASEPRI
 800c5a2:	f04f 0150 	mov.w	r1, #80	; 0x50
 800c5a6:	f381 8811 	msr	BASEPRI, r1
 800c5aa:	f3bf 8f6f 	isb	sy
 800c5ae:	f3bf 8f4f 	dsb	sy
 800c5b2:	f840 2023 	str.w	r2, [r0, r3, lsl #2]
 800c5b6:	bd08      	pop	{r3, pc}

0800c5b8 <stm32_lock_release>:
 800c5b8:	b508      	push	{r3, lr}
 800c5ba:	7a03      	ldrb	r3, [r0, #8]
 800c5bc:	3b01      	subs	r3, #1
 800c5be:	b2db      	uxtb	r3, r3
 800c5c0:	2b01      	cmp	r3, #1
 800c5c2:	7203      	strb	r3, [r0, #8]
 800c5c4:	d903      	bls.n	800c5ce <stm32_lock_release+0x16>
 800c5c6:	b672      	cpsid	i
 800c5c8:	f7ff fd48 	bl	800c05c <Error_Handler>
 800c5cc:	e7fe      	b.n	800c5cc <stm32_lock_release+0x14>
 800c5ce:	f850 3023 	ldr.w	r3, [r0, r3, lsl #2]
 800c5d2:	f383 8811 	msr	BASEPRI, r3
 800c5d6:	bd08      	pop	{r3, pc}

0800c5d8 <__retarget_lock_acquire>:
 800c5d8:	b508      	push	{r3, lr}
 800c5da:	b918      	cbnz	r0, 800c5e4 <__retarget_lock_acquire+0xc>
 800c5dc:	b672      	cpsid	i
 800c5de:	f7ff fd3d 	bl	800c05c <Error_Handler>
 800c5e2:	e7fe      	b.n	800c5e2 <__retarget_lock_acquire+0xa>
 800c5e4:	e8bd 4008 	ldmia.w	sp!, {r3, lr}
 800c5e8:	f7ff bfcf 	b.w	800c58a <stm32_lock_acquire>

0800c5ec <__retarget_lock_acquire_recursive>:
 800c5ec:	f7ff bff4 	b.w	800c5d8 <__retarget_lock_acquire>

0800c5f0 <__retarget_lock_release>:
 800c5f0:	b508      	push	{r3, lr}
 800c5f2:	b918      	cbnz	r0, 800c5fc <__retarget_lock_release+0xc>
 800c5f4:	b672      	cpsid	i
 800c5f6:	f7ff fd31 	bl	800c05c <Error_Handler>
 800c5fa:	e7fe      	b.n	800c5fa <__retarget_lock_release+0xa>
 800c5fc:	e8bd 4008 	ldmia.w	sp!, {r3, lr}
 800c600:	f7ff bfda 	b.w	800c5b8 <stm32_lock_release>

0800c604 <__retarget_lock_release_recursive>:
 800c604:	f7ff bff4 	b.w	800c5f0 <__retarget_lock_release>

0800c608 <HAL_Init>:
 800c608:	b508      	push	{r3, lr}
 800c60a:	4b0b      	ldr	r3, [pc, #44]	; (800c638 <HAL_Init+0x30>)
 800c60c:	681a      	ldr	r2, [r3, #0]
 800c60e:	f442 7200 	orr.w	r2, r2, #512	; 0x200
 800c612:	601a      	str	r2, [r3, #0]
 800c614:	681a      	ldr	r2, [r3, #0]
 800c616:	f442 6280 	orr.w	r2, r2, #1024	; 0x400
 800c61a:	601a      	str	r2, [r3, #0]
 800c61c:	681a      	ldr	r2, [r3, #0]
 800c61e:	f442 7280 	orr.w	r2, r2, #256	; 0x100
 800c622:	601a      	str	r2, [r3, #0]
 800c624:	2003      	movs	r0, #3
 800c626:	f000 f82f 	bl	800c688 <HAL_NVIC_SetPriorityGrouping>
 800c62a:	200f      	movs	r0, #15
 800c62c:	f7ff fece 	bl	800c3cc <HAL_InitTick>
 800c630:	f7ff fd16 	bl	800c060 <HAL_MspInit>
 800c634:	2000      	movs	r0, #0
 800c636:	bd08      	pop	{r3, pc}
 800c638:	40023c00 	.word	0x40023c00

0800c63c <HAL_IncTick>:
 800c63c:	4a03      	ldr	r2, [pc, #12]	; (800c64c <HAL_IncTick+0x10>)
 800c63e:	4b04      	ldr	r3, [pc, #16]	; (800c650 <HAL_IncTick+0x14>)
 800c640:	6811      	ldr	r1, [r2, #0]
 800c642:	781b      	ldrb	r3, [r3, #0]
 800c644:	440b      	add	r3, r1
 800c646:	6013      	str	r3, [r2, #0]
 800c648:	4770      	bx	lr
 800c64a:	bf00      	nop
 800c64c:	2000cb30 	.word	0x2000cb30
 800c650:	20000004 	.word	0x20000004

0800c654 <HAL_GetTick>:
 800c654:	4b01      	ldr	r3, [pc, #4]	; (800c65c <HAL_GetTick+0x8>)
 800c656:	6818      	ldr	r0, [r3, #0]
 800c658:	4770      	bx	lr
 800c65a:	bf00      	nop
 800c65c:	2000cb30 	.word	0x2000cb30

0800c660 <HAL_Delay>:
 800c660:	b538      	push	{r3, r4, r5, lr}
 800c662:	4604      	mov	r4, r0
 800c664:	f7ff fff6 	bl	800c654 <HAL_GetTick>
 800c668:	1c63      	adds	r3, r4, #1
 800c66a:	bf1c      	itt	ne
 800c66c:	4b05      	ldrne	r3, [pc, #20]	; (800c684 <HAL_Delay+0x24>)
 800c66e:	781b      	ldrbne	r3, [r3, #0]
 800c670:	4605      	mov	r5, r0
 800c672:	bf18      	it	ne
 800c674:	18e4      	addne	r4, r4, r3
 800c676:	f7ff ffed 	bl	800c654 <HAL_GetTick>
 800c67a:	1b43      	subs	r3, r0, r5
 800c67c:	42a3      	cmp	r3, r4
 800c67e:	d3fa      	bcc.n	800c676 <HAL_Delay+0x16>
 800c680:	bd38      	pop	{r3, r4, r5, pc}
 800c682:	bf00      	nop
 800c684:	20000004 	.word	0x20000004

0800c688 <HAL_NVIC_SetPriorityGrouping>:
 800c688:	4907      	ldr	r1, [pc, #28]	; (800c6a8 <HAL_NVIC_SetPriorityGrouping+0x20>)
 800c68a:	68ca      	ldr	r2, [r1, #12]
 800c68c:	f422 62e0 	bic.w	r2, r2, #1792	; 0x700
 800c690:	0203      	lsls	r3, r0, #8
 800c692:	0412      	lsls	r2, r2, #16
 800c694:	f403 63e0 	and.w	r3, r3, #1792	; 0x700
 800c698:	0c12      	lsrs	r2, r2, #16
 800c69a:	4313      	orrs	r3, r2
 800c69c:	f043 63bf 	orr.w	r3, r3, #100139008	; 0x5f80000
 800c6a0:	f443 3300 	orr.w	r3, r3, #131072	; 0x20000
 800c6a4:	60cb      	str	r3, [r1, #12]
 800c6a6:	4770      	bx	lr
 800c6a8:	e000ed00 	.word	0xe000ed00

0800c6ac <HAL_NVIC_SetPriority>:
 800c6ac:	4b16      	ldr	r3, [pc, #88]	; (800c708 <HAL_NVIC_SetPriority+0x5c>)
 800c6ae:	b530      	push	{r4, r5, lr}
 800c6b0:	68dc      	ldr	r4, [r3, #12]
 800c6b2:	f3c4 2402 	ubfx	r4, r4, #8, #3
 800c6b6:	f1c4 0507 	rsb	r5, r4, #7
 800c6ba:	1d23      	adds	r3, r4, #4
 800c6bc:	2d04      	cmp	r5, #4
 800c6be:	bf28      	it	cs
 800c6c0:	2504      	movcs	r5, #4
 800c6c2:	2b06      	cmp	r3, #6
 800c6c4:	f04f 33ff 	mov.w	r3, #4294967295
 800c6c8:	bf8c      	ite	hi
 800c6ca:	3c03      	subhi	r4, #3
 800c6cc:	2400      	movls	r4, #0
 800c6ce:	fa03 f505 	lsl.w	r5, r3, r5
 800c6d2:	ea21 0105 	bic.w	r1, r1, r5
 800c6d6:	40a3      	lsls	r3, r4
 800c6d8:	ea22 0203 	bic.w	r2, r2, r3
 800c6dc:	40a1      	lsls	r1, r4
 800c6de:	2800      	cmp	r0, #0
 800c6e0:	ea41 0302 	orr.w	r3, r1, r2
 800c6e4:	bfac      	ite	ge
 800c6e6:	f100 4060 	addge.w	r0, r0, #3758096384	; 0xe0000000
 800c6ea:	4a08      	ldrlt	r2, [pc, #32]	; (800c70c <HAL_NVIC_SetPriority+0x60>)
 800c6ec:	ea4f 1303 	mov.w	r3, r3, lsl #4
 800c6f0:	bfb8      	it	lt
 800c6f2:	f000 000f 	andlt.w	r0, r0, #15
 800c6f6:	b2db      	uxtb	r3, r3
 800c6f8:	bfaa      	itet	ge
 800c6fa:	f500 4061 	addge.w	r0, r0, #57600	; 0xe100
 800c6fe:	5413      	strblt	r3, [r2, r0]
 800c700:	f880 3300 	strbge.w	r3, [r0, #768]	; 0x300
 800c704:	bd30      	pop	{r4, r5, pc}
 800c706:	bf00      	nop
 800c708:	e000ed00 	.word	0xe000ed00
 800c70c:	e000ed14 	.word	0xe000ed14

0800c710 <HAL_NVIC_EnableIRQ>:
 800c710:	2800      	cmp	r0, #0
 800c712:	db08      	blt.n	800c726 <HAL_NVIC_EnableIRQ+0x16>
 800c714:	0942      	lsrs	r2, r0, #5
 800c716:	2301      	movs	r3, #1
 800c718:	f000 001f 	and.w	r0, r0, #31
 800c71c:	fa03 f000 	lsl.w	r0, r3, r0
 800c720:	4b01      	ldr	r3, [pc, #4]	; (800c728 <HAL_NVIC_EnableIRQ+0x18>)
 800c722:	f843 0022 	str.w	r0, [r3, r2, lsl #2]
 800c726:	4770      	bx	lr
 800c728:	e000e100 	.word	0xe000e100

0800c72c <DMA_CalcBaseAndBitshift>:
 800c72c:	6803      	ldr	r3, [r0, #0]
 800c72e:	b510      	push	{r4, lr}
 800c730:	4c08      	ldr	r4, [pc, #32]	; (800c754 <DMA_CalcBaseAndBitshift+0x28>)
 800c732:	4602      	mov	r2, r0
 800c734:	b2d9      	uxtb	r1, r3
 800c736:	3910      	subs	r1, #16
 800c738:	2018      	movs	r0, #24
 800c73a:	fbb1 f0f0 	udiv	r0, r1, r0
 800c73e:	5c20      	ldrb	r0, [r4, r0]
 800c740:	65d0      	str	r0, [r2, #92]	; 0x5c
 800c742:	f423 707f 	bic.w	r0, r3, #1020	; 0x3fc
 800c746:	f020 0003 	bic.w	r0, r0, #3
 800c74a:	295f      	cmp	r1, #95	; 0x5f
 800c74c:	bf88      	it	hi
 800c74e:	3004      	addhi	r0, #4
 800c750:	6590      	str	r0, [r2, #88]	; 0x58
 800c752:	bd10      	pop	{r4, pc}
 800c754:	08015b44 	.word	0x08015b44

0800c758 <HAL_DMA_Init>:
 800c758:	b570      	push	{r4, r5, r6, lr}
 800c75a:	4604      	mov	r4, r0
 800c75c:	f7ff ff7a 	bl	800c654 <HAL_GetTick>
 800c760:	4605      	mov	r5, r0
 800c762:	2c00      	cmp	r4, #0
 800c764:	d073      	beq.n	800c84e <HAL_DMA_Init+0xf6>
 800c766:	2302      	movs	r3, #2
 800c768:	f884 3035 	strb.w	r3, [r4, #53]	; 0x35
 800c76c:	6822      	ldr	r2, [r4, #0]
 800c76e:	2300      	movs	r3, #0
 800c770:	f884 3034 	strb.w	r3, [r4, #52]	; 0x34
 800c774:	6813      	ldr	r3, [r2, #0]
 800c776:	f023 0301 	bic.w	r3, r3, #1
 800c77a:	6013      	str	r3, [r2, #0]
 800c77c:	6821      	ldr	r1, [r4, #0]
 800c77e:	680b      	ldr	r3, [r1, #0]
 800c780:	07d8      	lsls	r0, r3, #31
 800c782:	d42f      	bmi.n	800c7e4 <HAL_DMA_Init+0x8c>
 800c784:	680b      	ldr	r3, [r1, #0]
 800c786:	4d33      	ldr	r5, [pc, #204]	; (800c854 <HAL_DMA_Init+0xfc>)
 800c788:	69a0      	ldr	r0, [r4, #24]
 800c78a:	401d      	ands	r5, r3
 800c78c:	e9d4 2301 	ldrd	r2, r3, [r4, #4]
 800c790:	4313      	orrs	r3, r2
 800c792:	68e2      	ldr	r2, [r4, #12]
 800c794:	4313      	orrs	r3, r2
 800c796:	6922      	ldr	r2, [r4, #16]
 800c798:	4313      	orrs	r3, r2
 800c79a:	6962      	ldr	r2, [r4, #20]
 800c79c:	4313      	orrs	r3, r2
 800c79e:	69e2      	ldr	r2, [r4, #28]
 800c7a0:	4303      	orrs	r3, r0
 800c7a2:	4313      	orrs	r3, r2
 800c7a4:	6a22      	ldr	r2, [r4, #32]
 800c7a6:	4313      	orrs	r3, r2
 800c7a8:	6a62      	ldr	r2, [r4, #36]	; 0x24
 800c7aa:	2a04      	cmp	r2, #4
 800c7ac:	ea43 0305 	orr.w	r3, r3, r5
 800c7b0:	bf02      	ittt	eq
 800c7b2:	e9d4 560b 	ldrdeq	r5, r6, [r4, #44]	; 0x2c
 800c7b6:	4335      	orreq	r5, r6
 800c7b8:	432b      	orreq	r3, r5
 800c7ba:	600b      	str	r3, [r1, #0]
 800c7bc:	694b      	ldr	r3, [r1, #20]
 800c7be:	2a04      	cmp	r2, #4
 800c7c0:	f023 0307 	bic.w	r3, r3, #7
 800c7c4:	ea43 0302 	orr.w	r3, r3, r2
 800c7c8:	d133      	bne.n	800c832 <HAL_DMA_Init+0xda>
 800c7ca:	6aa2      	ldr	r2, [r4, #40]	; 0x28
 800c7cc:	6ae5      	ldr	r5, [r4, #44]	; 0x2c
 800c7ce:	4313      	orrs	r3, r2
 800c7d0:	b37d      	cbz	r5, 800c832 <HAL_DMA_Init+0xda>
 800c7d2:	b990      	cbnz	r0, 800c7fa <HAL_DMA_Init+0xa2>
 800c7d4:	2a01      	cmp	r2, #1
 800c7d6:	d021      	beq.n	800c81c <HAL_DMA_Init+0xc4>
 800c7d8:	f032 0202 	bics.w	r2, r2, #2
 800c7dc:	d129      	bne.n	800c832 <HAL_DMA_Init+0xda>
 800c7de:	01ea      	lsls	r2, r5, #7
 800c7e0:	d527      	bpl.n	800c832 <HAL_DMA_Init+0xda>
 800c7e2:	e01e      	b.n	800c822 <HAL_DMA_Init+0xca>
 800c7e4:	f7ff ff36 	bl	800c654 <HAL_GetTick>
 800c7e8:	1b40      	subs	r0, r0, r5
 800c7ea:	2805      	cmp	r0, #5
 800c7ec:	d9c6      	bls.n	800c77c <HAL_DMA_Init+0x24>
 800c7ee:	2320      	movs	r3, #32
 800c7f0:	6563      	str	r3, [r4, #84]	; 0x54
 800c7f2:	2003      	movs	r0, #3
 800c7f4:	f884 0035 	strb.w	r0, [r4, #53]	; 0x35
 800c7f8:	bd70      	pop	{r4, r5, r6, pc}
 800c7fa:	f5b0 5f00 	cmp.w	r0, #8192	; 0x2000
 800c7fe:	d114      	bne.n	800c82a <HAL_DMA_Init+0xd2>
 800c800:	2a03      	cmp	r2, #3
 800c802:	d816      	bhi.n	800c832 <HAL_DMA_Init+0xda>
 800c804:	a001      	add	r0, pc, #4	; (adr r0, 800c80c <HAL_DMA_Init+0xb4>)
 800c806:	f850 f022 	ldr.w	pc, [r0, r2, lsl #2]
 800c80a:	bf00      	nop
 800c80c:	0800c823 	.word	0x0800c823
 800c810:	0800c7df 	.word	0x0800c7df
 800c814:	0800c823 	.word	0x0800c823
 800c818:	0800c81d 	.word	0x0800c81d
 800c81c:	f1b5 7fc0 	cmp.w	r5, #25165824	; 0x1800000
 800c820:	d107      	bne.n	800c832 <HAL_DMA_Init+0xda>
 800c822:	2340      	movs	r3, #64	; 0x40
 800c824:	6563      	str	r3, [r4, #84]	; 0x54
 800c826:	2001      	movs	r0, #1
 800c828:	e7e4      	b.n	800c7f4 <HAL_DMA_Init+0x9c>
 800c82a:	2a02      	cmp	r2, #2
 800c82c:	d9f9      	bls.n	800c822 <HAL_DMA_Init+0xca>
 800c82e:	2a03      	cmp	r2, #3
 800c830:	d0d5      	beq.n	800c7de <HAL_DMA_Init+0x86>
 800c832:	614b      	str	r3, [r1, #20]
 800c834:	4620      	mov	r0, r4
 800c836:	f7ff ff79 	bl	800c72c <DMA_CalcBaseAndBitshift>
 800c83a:	6de2      	ldr	r2, [r4, #92]	; 0x5c
 800c83c:	233f      	movs	r3, #63	; 0x3f
 800c83e:	4093      	lsls	r3, r2
 800c840:	6083      	str	r3, [r0, #8]
 800c842:	2000      	movs	r0, #0
 800c844:	2301      	movs	r3, #1
 800c846:	6560      	str	r0, [r4, #84]	; 0x54
 800c848:	f884 3035 	strb.w	r3, [r4, #53]	; 0x35
 800c84c:	e7d4      	b.n	800c7f8 <HAL_DMA_Init+0xa0>
 800c84e:	2001      	movs	r0, #1
 800c850:	e7d2      	b.n	800c7f8 <HAL_DMA_Init+0xa0>
 800c852:	bf00      	nop
 800c854:	f010803f 	.word	0xf010803f

0800c858 <HAL_DMA_Start_IT>:
 800c858:	b570      	push	{r4, r5, r6, lr}
 800c85a:	f890 4034 	ldrb.w	r4, [r0, #52]	; 0x34
 800c85e:	6d86      	ldr	r6, [r0, #88]	; 0x58
 800c860:	2c01      	cmp	r4, #1
 800c862:	d031      	beq.n	800c8c8 <HAL_DMA_Start_IT+0x70>
 800c864:	2401      	movs	r4, #1
 800c866:	f880 4034 	strb.w	r4, [r0, #52]	; 0x34
 800c86a:	f890 4035 	ldrb.w	r4, [r0, #53]	; 0x35
 800c86e:	2c01      	cmp	r4, #1
 800c870:	f04f 0500 	mov.w	r5, #0
 800c874:	f04f 0402 	mov.w	r4, #2
 800c878:	d124      	bne.n	800c8c4 <HAL_DMA_Start_IT+0x6c>
 800c87a:	f880 4035 	strb.w	r4, [r0, #53]	; 0x35
 800c87e:	6804      	ldr	r4, [r0, #0]
 800c880:	6545      	str	r5, [r0, #84]	; 0x54
 800c882:	6825      	ldr	r5, [r4, #0]
 800c884:	f425 2580 	bic.w	r5, r5, #262144	; 0x40000
 800c888:	6025      	str	r5, [r4, #0]
 800c88a:	6063      	str	r3, [r4, #4]
 800c88c:	6883      	ldr	r3, [r0, #8]
 800c88e:	2b40      	cmp	r3, #64	; 0x40
 800c890:	bf0e      	itee	eq
 800c892:	60a2      	streq	r2, [r4, #8]
 800c894:	60a1      	strne	r1, [r4, #8]
 800c896:	60e2      	strne	r2, [r4, #12]
 800c898:	6dc2      	ldr	r2, [r0, #92]	; 0x5c
 800c89a:	bf08      	it	eq
 800c89c:	60e1      	streq	r1, [r4, #12]
 800c89e:	233f      	movs	r3, #63	; 0x3f
 800c8a0:	4093      	lsls	r3, r2
 800c8a2:	60b3      	str	r3, [r6, #8]
 800c8a4:	6823      	ldr	r3, [r4, #0]
 800c8a6:	f043 0316 	orr.w	r3, r3, #22
 800c8aa:	6023      	str	r3, [r4, #0]
 800c8ac:	6c03      	ldr	r3, [r0, #64]	; 0x40
 800c8ae:	b11b      	cbz	r3, 800c8b8 <HAL_DMA_Start_IT+0x60>
 800c8b0:	6823      	ldr	r3, [r4, #0]
 800c8b2:	f043 0308 	orr.w	r3, r3, #8
 800c8b6:	6023      	str	r3, [r4, #0]
 800c8b8:	6823      	ldr	r3, [r4, #0]
 800c8ba:	f043 0301 	orr.w	r3, r3, #1
 800c8be:	6023      	str	r3, [r4, #0]
 800c8c0:	2000      	movs	r0, #0
 800c8c2:	bd70      	pop	{r4, r5, r6, pc}
 800c8c4:	f880 5034 	strb.w	r5, [r0, #52]	; 0x34
 800c8c8:	2002      	movs	r0, #2
 800c8ca:	e7fa      	b.n	800c8c2 <HAL_DMA_Start_IT+0x6a>

0800c8cc <HAL_DMA_Abort_IT>:
 800c8cc:	f890 3035 	ldrb.w	r3, [r0, #53]	; 0x35
 800c8d0:	2b02      	cmp	r3, #2
 800c8d2:	d003      	beq.n	800c8dc <HAL_DMA_Abort_IT+0x10>
 800c8d4:	2380      	movs	r3, #128	; 0x80
 800c8d6:	6543      	str	r3, [r0, #84]	; 0x54
 800c8d8:	2001      	movs	r0, #1
 800c8da:	4770      	bx	lr
 800c8dc:	6802      	ldr	r2, [r0, #0]
 800c8de:	2305      	movs	r3, #5
 800c8e0:	f880 3035 	strb.w	r3, [r0, #53]	; 0x35
 800c8e4:	6813      	ldr	r3, [r2, #0]
 800c8e6:	f023 0301 	bic.w	r3, r3, #1
 800c8ea:	6013      	str	r3, [r2, #0]
 800c8ec:	2000      	movs	r0, #0
 800c8ee:	4770      	bx	lr

0800c8f0 <HAL_DMA_IRQHandler>:
 800c8f0:	b5f7      	push	{r0, r1, r2, r4, r5, r6, r7, lr}
 800c8f2:	2300      	movs	r3, #0
 800c8f4:	9301      	str	r3, [sp, #4]
 800c8f6:	4b5c      	ldr	r3, [pc, #368]	; (800ca68 <HAL_DMA_IRQHandler+0x178>)
 800c8f8:	6d85      	ldr	r5, [r0, #88]	; 0x58
 800c8fa:	681f      	ldr	r7, [r3, #0]
 800c8fc:	6dc3      	ldr	r3, [r0, #92]	; 0x5c
 800c8fe:	682e      	ldr	r6, [r5, #0]
 800c900:	2208      	movs	r2, #8
 800c902:	409a      	lsls	r2, r3
 800c904:	4232      	tst	r2, r6
 800c906:	4604      	mov	r4, r0
 800c908:	d00c      	beq.n	800c924 <HAL_DMA_IRQHandler+0x34>
 800c90a:	6801      	ldr	r1, [r0, #0]
 800c90c:	6808      	ldr	r0, [r1, #0]
 800c90e:	0740      	lsls	r0, r0, #29
 800c910:	d508      	bpl.n	800c924 <HAL_DMA_IRQHandler+0x34>
 800c912:	6808      	ldr	r0, [r1, #0]
 800c914:	f020 0004 	bic.w	r0, r0, #4
 800c918:	6008      	str	r0, [r1, #0]
 800c91a:	60aa      	str	r2, [r5, #8]
 800c91c:	6d62      	ldr	r2, [r4, #84]	; 0x54
 800c91e:	f042 0201 	orr.w	r2, r2, #1
 800c922:	6562      	str	r2, [r4, #84]	; 0x54
 800c924:	2201      	movs	r2, #1
 800c926:	409a      	lsls	r2, r3
 800c928:	4232      	tst	r2, r6
 800c92a:	d008      	beq.n	800c93e <HAL_DMA_IRQHandler+0x4e>
 800c92c:	6821      	ldr	r1, [r4, #0]
 800c92e:	6949      	ldr	r1, [r1, #20]
 800c930:	0609      	lsls	r1, r1, #24
 800c932:	bf41      	itttt	mi
 800c934:	60aa      	strmi	r2, [r5, #8]
 800c936:	6d62      	ldrmi	r2, [r4, #84]	; 0x54
 800c938:	f042 0202 	orrmi.w	r2, r2, #2
 800c93c:	6562      	strmi	r2, [r4, #84]	; 0x54
 800c93e:	2204      	movs	r2, #4
 800c940:	409a      	lsls	r2, r3
 800c942:	4232      	tst	r2, r6
 800c944:	d008      	beq.n	800c958 <HAL_DMA_IRQHandler+0x68>
 800c946:	6821      	ldr	r1, [r4, #0]
 800c948:	6809      	ldr	r1, [r1, #0]
 800c94a:	0788      	lsls	r0, r1, #30
 800c94c:	bf41      	itttt	mi
 800c94e:	60aa      	strmi	r2, [r5, #8]
 800c950:	6d62      	ldrmi	r2, [r4, #84]	; 0x54
 800c952:	f042 0204 	orrmi.w	r2, r2, #4
 800c956:	6562      	strmi	r2, [r4, #84]	; 0x54
 800c958:	2210      	movs	r2, #16
 800c95a:	409a      	lsls	r2, r3
 800c95c:	4232      	tst	r2, r6
 800c95e:	d010      	beq.n	800c982 <HAL_DMA_IRQHandler+0x92>
 800c960:	6823      	ldr	r3, [r4, #0]
 800c962:	6819      	ldr	r1, [r3, #0]
 800c964:	0709      	lsls	r1, r1, #28
 800c966:	d50c      	bpl.n	800c982 <HAL_DMA_IRQHandler+0x92>
 800c968:	60aa      	str	r2, [r5, #8]
 800c96a:	681a      	ldr	r2, [r3, #0]
 800c96c:	0350      	lsls	r0, r2, #13
 800c96e:	d537      	bpl.n	800c9e0 <HAL_DMA_IRQHandler+0xf0>
 800c970:	681b      	ldr	r3, [r3, #0]
 800c972:	0319      	lsls	r1, r3, #12
 800c974:	d401      	bmi.n	800c97a <HAL_DMA_IRQHandler+0x8a>
 800c976:	6c23      	ldr	r3, [r4, #64]	; 0x40
 800c978:	e000      	b.n	800c97c <HAL_DMA_IRQHandler+0x8c>
 800c97a:	6ca3      	ldr	r3, [r4, #72]	; 0x48
 800c97c:	b10b      	cbz	r3, 800c982 <HAL_DMA_IRQHandler+0x92>
 800c97e:	4620      	mov	r0, r4
 800c980:	4798      	blx	r3
 800c982:	6de1      	ldr	r1, [r4, #92]	; 0x5c
 800c984:	2220      	movs	r2, #32
 800c986:	408a      	lsls	r2, r1
 800c988:	4232      	tst	r2, r6
 800c98a:	d03a      	beq.n	800ca02 <HAL_DMA_IRQHandler+0x112>
 800c98c:	6823      	ldr	r3, [r4, #0]
 800c98e:	6818      	ldr	r0, [r3, #0]
 800c990:	06c6      	lsls	r6, r0, #27
 800c992:	d536      	bpl.n	800ca02 <HAL_DMA_IRQHandler+0x112>
 800c994:	60aa      	str	r2, [r5, #8]
 800c996:	f894 2035 	ldrb.w	r2, [r4, #53]	; 0x35
 800c99a:	2a05      	cmp	r2, #5
 800c99c:	681a      	ldr	r2, [r3, #0]
 800c99e:	d127      	bne.n	800c9f0 <HAL_DMA_IRQHandler+0x100>
 800c9a0:	f022 0216 	bic.w	r2, r2, #22
 800c9a4:	601a      	str	r2, [r3, #0]
 800c9a6:	695a      	ldr	r2, [r3, #20]
 800c9a8:	f022 0280 	bic.w	r2, r2, #128	; 0x80
 800c9ac:	615a      	str	r2, [r3, #20]
 800c9ae:	6c22      	ldr	r2, [r4, #64]	; 0x40
 800c9b0:	b90a      	cbnz	r2, 800c9b6 <HAL_DMA_IRQHandler+0xc6>
 800c9b2:	6ca2      	ldr	r2, [r4, #72]	; 0x48
 800c9b4:	b11a      	cbz	r2, 800c9be <HAL_DMA_IRQHandler+0xce>
 800c9b6:	681a      	ldr	r2, [r3, #0]
 800c9b8:	f022 0208 	bic.w	r2, r2, #8
 800c9bc:	601a      	str	r2, [r3, #0]
 800c9be:	233f      	movs	r3, #63	; 0x3f
 800c9c0:	408b      	lsls	r3, r1
 800c9c2:	60ab      	str	r3, [r5, #8]
 800c9c4:	2301      	movs	r3, #1
 800c9c6:	f884 3035 	strb.w	r3, [r4, #53]	; 0x35
 800c9ca:	2300      	movs	r3, #0
 800c9cc:	f884 3034 	strb.w	r3, [r4, #52]	; 0x34
 800c9d0:	6d23      	ldr	r3, [r4, #80]	; 0x50
 800c9d2:	2b00      	cmp	r3, #0
 800c9d4:	d045      	beq.n	800ca62 <HAL_DMA_IRQHandler+0x172>
 800c9d6:	4620      	mov	r0, r4
 800c9d8:	b003      	add	sp, #12
 800c9da:	e8bd 40f0 	ldmia.w	sp!, {r4, r5, r6, r7, lr}
 800c9de:	4718      	bx	r3
 800c9e0:	681a      	ldr	r2, [r3, #0]
 800c9e2:	05d2      	lsls	r2, r2, #23
 800c9e4:	bf5e      	ittt	pl
 800c9e6:	681a      	ldrpl	r2, [r3, #0]
 800c9e8:	f022 0208 	bicpl.w	r2, r2, #8
 800c9ec:	601a      	strpl	r2, [r3, #0]
 800c9ee:	e7c2      	b.n	800c976 <HAL_DMA_IRQHandler+0x86>
 800c9f0:	0350      	lsls	r0, r2, #13
 800c9f2:	d527      	bpl.n	800ca44 <HAL_DMA_IRQHandler+0x154>
 800c9f4:	681b      	ldr	r3, [r3, #0]
 800c9f6:	0319      	lsls	r1, r3, #12
 800c9f8:	d431      	bmi.n	800ca5e <HAL_DMA_IRQHandler+0x16e>
 800c9fa:	6c63      	ldr	r3, [r4, #68]	; 0x44
 800c9fc:	b10b      	cbz	r3, 800ca02 <HAL_DMA_IRQHandler+0x112>
 800c9fe:	4620      	mov	r0, r4
 800ca00:	4798      	blx	r3
 800ca02:	6d63      	ldr	r3, [r4, #84]	; 0x54
 800ca04:	b36b      	cbz	r3, 800ca62 <HAL_DMA_IRQHandler+0x172>
 800ca06:	6d63      	ldr	r3, [r4, #84]	; 0x54
 800ca08:	07da      	lsls	r2, r3, #31
 800ca0a:	d519      	bpl.n	800ca40 <HAL_DMA_IRQHandler+0x150>
 800ca0c:	6822      	ldr	r2, [r4, #0]
 800ca0e:	f44f 5316 	mov.w	r3, #9600	; 0x2580
 800ca12:	fbb7 f7f3 	udiv	r7, r7, r3
 800ca16:	2305      	movs	r3, #5
 800ca18:	f884 3035 	strb.w	r3, [r4, #53]	; 0x35
 800ca1c:	6813      	ldr	r3, [r2, #0]
 800ca1e:	f023 0301 	bic.w	r3, r3, #1
 800ca22:	6013      	str	r3, [r2, #0]
 800ca24:	9b01      	ldr	r3, [sp, #4]
 800ca26:	3301      	adds	r3, #1
 800ca28:	42bb      	cmp	r3, r7
 800ca2a:	9301      	str	r3, [sp, #4]
 800ca2c:	d802      	bhi.n	800ca34 <HAL_DMA_IRQHandler+0x144>
 800ca2e:	6813      	ldr	r3, [r2, #0]
 800ca30:	07db      	lsls	r3, r3, #31
 800ca32:	d4f7      	bmi.n	800ca24 <HAL_DMA_IRQHandler+0x134>
 800ca34:	2301      	movs	r3, #1
 800ca36:	f884 3035 	strb.w	r3, [r4, #53]	; 0x35
 800ca3a:	2300      	movs	r3, #0
 800ca3c:	f884 3034 	strb.w	r3, [r4, #52]	; 0x34
 800ca40:	6ce3      	ldr	r3, [r4, #76]	; 0x4c
 800ca42:	e7c6      	b.n	800c9d2 <HAL_DMA_IRQHandler+0xe2>
 800ca44:	681a      	ldr	r2, [r3, #0]
 800ca46:	f412 7280 	ands.w	r2, r2, #256	; 0x100
 800ca4a:	d108      	bne.n	800ca5e <HAL_DMA_IRQHandler+0x16e>
 800ca4c:	6819      	ldr	r1, [r3, #0]
 800ca4e:	f021 0110 	bic.w	r1, r1, #16
 800ca52:	6019      	str	r1, [r3, #0]
 800ca54:	2301      	movs	r3, #1
 800ca56:	f884 3035 	strb.w	r3, [r4, #53]	; 0x35
 800ca5a:	f884 2034 	strb.w	r2, [r4, #52]	; 0x34
 800ca5e:	6be3      	ldr	r3, [r4, #60]	; 0x3c
 800ca60:	e7cc      	b.n	800c9fc <HAL_DMA_IRQHandler+0x10c>
 800ca62:	b003      	add	sp, #12
 800ca64:	bdf0      	pop	{r4, r5, r6, r7, pc}
 800ca66:	bf00      	nop
 800ca68:	20000000 	.word	0x20000000

0800ca6c <HAL_DMA_GetState>:
 800ca6c:	f890 0035 	ldrb.w	r0, [r0, #53]	; 0x35
 800ca70:	4770      	bx	lr

0800ca72 <HAL_DMA_GetError>:
 800ca72:	6d40      	ldr	r0, [r0, #84]	; 0x54
 800ca74:	4770      	bx	lr
	...

0800ca78 <FLASH_Program_DoubleWord>:
 800ca78:	4909      	ldr	r1, [pc, #36]	; (800caa0 <FLASH_Program_DoubleWord+0x28>)
 800ca7a:	b510      	push	{r4, lr}
 800ca7c:	690c      	ldr	r4, [r1, #16]
 800ca7e:	f424 7440 	bic.w	r4, r4, #768	; 0x300
 800ca82:	610c      	str	r4, [r1, #16]
 800ca84:	690c      	ldr	r4, [r1, #16]
 800ca86:	f444 7440 	orr.w	r4, r4, #768	; 0x300
 800ca8a:	610c      	str	r4, [r1, #16]
 800ca8c:	690c      	ldr	r4, [r1, #16]
 800ca8e:	f044 0401 	orr.w	r4, r4, #1
 800ca92:	610c      	str	r4, [r1, #16]
 800ca94:	6002      	str	r2, [r0, #0]
 800ca96:	f3bf 8f6f 	isb	sy
 800ca9a:	6043      	str	r3, [r0, #4]
 800ca9c:	bd10      	pop	{r4, pc}
 800ca9e:	bf00      	nop
 800caa0:	40023c00 	.word	0x40023c00

0800caa4 <FLASH_Program_Word>:
 800caa4:	4b07      	ldr	r3, [pc, #28]	; (800cac4 <FLASH_Program_Word+0x20>)
 800caa6:	691a      	ldr	r2, [r3, #16]
 800caa8:	f422 7240 	bic.w	r2, r2, #768	; 0x300
 800caac:	611a      	str	r2, [r3, #16]
 800caae:	691a      	ldr	r2, [r3, #16]
 800cab0:	f442 7200 	orr.w	r2, r2, #512	; 0x200
 800cab4:	611a      	str	r2, [r3, #16]
 800cab6:	691a      	ldr	r2, [r3, #16]
 800cab8:	f042 0201 	orr.w	r2, r2, #1
 800cabc:	611a      	str	r2, [r3, #16]
 800cabe:	6001      	str	r1, [r0, #0]
 800cac0:	4770      	bx	lr
 800cac2:	bf00      	nop
 800cac4:	40023c00 	.word	0x40023c00

0800cac8 <FLASH_Program_HalfWord>:
 800cac8:	4b07      	ldr	r3, [pc, #28]	; (800cae8 <FLASH_Program_HalfWord+0x20>)
 800caca:	691a      	ldr	r2, [r3, #16]
 800cacc:	f422 7240 	bic.w	r2, r2, #768	; 0x300
 800cad0:	611a      	str	r2, [r3, #16]
 800cad2:	691a      	ldr	r2, [r3, #16]
 800cad4:	f442 7280 	orr.w	r2, r2, #256	; 0x100
 800cad8:	611a      	str	r2, [r3, #16]
 800cada:	691a      	ldr	r2, [r3, #16]
 800cadc:	f042 0201 	orr.w	r2, r2, #1
 800cae0:	611a      	str	r2, [r3, #16]
 800cae2:	8001      	strh	r1, [r0, #0]
 800cae4:	4770      	bx	lr
 800cae6:	bf00      	nop
 800cae8:	40023c00 	.word	0x40023c00

0800caec <FLASH_SetErrorCode>:
 800caec:	4b20      	ldr	r3, [pc, #128]	; (800cb70 <FLASH_SetErrorCode+0x84>)
 800caee:	68da      	ldr	r2, [r3, #12]
 800caf0:	06d0      	lsls	r0, r2, #27
 800caf2:	d506      	bpl.n	800cb02 <FLASH_SetErrorCode+0x16>
 800caf4:	491f      	ldr	r1, [pc, #124]	; (800cb74 <FLASH_SetErrorCode+0x88>)
 800caf6:	69ca      	ldr	r2, [r1, #28]
 800caf8:	f042 0210 	orr.w	r2, r2, #16
 800cafc:	61ca      	str	r2, [r1, #28]
 800cafe:	2210      	movs	r2, #16
 800cb00:	60da      	str	r2, [r3, #12]
 800cb02:	68da      	ldr	r2, [r3, #12]
 800cb04:	0691      	lsls	r1, r2, #26
 800cb06:	d506      	bpl.n	800cb16 <FLASH_SetErrorCode+0x2a>
 800cb08:	491a      	ldr	r1, [pc, #104]	; (800cb74 <FLASH_SetErrorCode+0x88>)
 800cb0a:	69ca      	ldr	r2, [r1, #28]
 800cb0c:	f042 0208 	orr.w	r2, r2, #8
 800cb10:	61ca      	str	r2, [r1, #28]
 800cb12:	2220      	movs	r2, #32
 800cb14:	60da      	str	r2, [r3, #12]
 800cb16:	4b16      	ldr	r3, [pc, #88]	; (800cb70 <FLASH_SetErrorCode+0x84>)
 800cb18:	68da      	ldr	r2, [r3, #12]
 800cb1a:	0652      	lsls	r2, r2, #25
 800cb1c:	d506      	bpl.n	800cb2c <FLASH_SetErrorCode+0x40>
 800cb1e:	4915      	ldr	r1, [pc, #84]	; (800cb74 <FLASH_SetErrorCode+0x88>)
 800cb20:	69ca      	ldr	r2, [r1, #28]
 800cb22:	f042 0204 	orr.w	r2, r2, #4
 800cb26:	61ca      	str	r2, [r1, #28]
 800cb28:	2240      	movs	r2, #64	; 0x40
 800cb2a:	60da      	str	r2, [r3, #12]
 800cb2c:	68da      	ldr	r2, [r3, #12]
 800cb2e:	0610      	lsls	r0, r2, #24
 800cb30:	d506      	bpl.n	800cb40 <FLASH_SetErrorCode+0x54>
 800cb32:	4910      	ldr	r1, [pc, #64]	; (800cb74 <FLASH_SetErrorCode+0x88>)
 800cb34:	69ca      	ldr	r2, [r1, #28]
 800cb36:	f042 0202 	orr.w	r2, r2, #2
 800cb3a:	61ca      	str	r2, [r1, #28]
 800cb3c:	2280      	movs	r2, #128	; 0x80
 800cb3e:	60da      	str	r2, [r3, #12]
 800cb40:	4b0b      	ldr	r3, [pc, #44]	; (800cb70 <FLASH_SetErrorCode+0x84>)
 800cb42:	68da      	ldr	r2, [r3, #12]
 800cb44:	05d1      	lsls	r1, r2, #23
 800cb46:	d507      	bpl.n	800cb58 <FLASH_SetErrorCode+0x6c>
 800cb48:	490a      	ldr	r1, [pc, #40]	; (800cb74 <FLASH_SetErrorCode+0x88>)
 800cb4a:	69ca      	ldr	r2, [r1, #28]
 800cb4c:	f042 0201 	orr.w	r2, r2, #1
 800cb50:	61ca      	str	r2, [r1, #28]
 800cb52:	f44f 7280 	mov.w	r2, #256	; 0x100
 800cb56:	60da      	str	r2, [r3, #12]
 800cb58:	68da      	ldr	r2, [r3, #12]
 800cb5a:	0792      	lsls	r2, r2, #30
 800cb5c:	d506      	bpl.n	800cb6c <FLASH_SetErrorCode+0x80>
 800cb5e:	4905      	ldr	r1, [pc, #20]	; (800cb74 <FLASH_SetErrorCode+0x88>)
 800cb60:	69ca      	ldr	r2, [r1, #28]
 800cb62:	f042 0220 	orr.w	r2, r2, #32
 800cb66:	61ca      	str	r2, [r1, #28]
 800cb68:	2202      	movs	r2, #2
 800cb6a:	60da      	str	r2, [r3, #12]
 800cb6c:	4770      	bx	lr
 800cb6e:	bf00      	nop
 800cb70:	40023c00 	.word	0x40023c00
 800cb74:	2000cb34 	.word	0x2000cb34

0800cb78 <HAL_FLASH_Unlock>:
 800cb78:	4b06      	ldr	r3, [pc, #24]	; (800cb94 <HAL_FLASH_Unlock+0x1c>)
 800cb7a:	691a      	ldr	r2, [r3, #16]
 800cb7c:	2a00      	cmp	r2, #0
 800cb7e:	bfbf      	itttt	lt
 800cb80:	4a05      	ldrlt	r2, [pc, #20]	; (800cb98 <HAL_FLASH_Unlock+0x20>)
 800cb82:	605a      	strlt	r2, [r3, #4]
 800cb84:	f102 3288 	addlt.w	r2, r2, #2290649224	; 0x88888888
 800cb88:	605a      	strlt	r2, [r3, #4]
 800cb8a:	bfba      	itte	lt
 800cb8c:	6918      	ldrlt	r0, [r3, #16]
 800cb8e:	0fc0      	lsrlt	r0, r0, #31
 800cb90:	2000      	movge	r0, #0
 800cb92:	4770      	bx	lr
 800cb94:	40023c00 	.word	0x40023c00
 800cb98:	45670123 	.word	0x45670123

0800cb9c <HAL_FLASH_Lock>:
 800cb9c:	4a03      	ldr	r2, [pc, #12]	; (800cbac <HAL_FLASH_Lock+0x10>)
 800cb9e:	6913      	ldr	r3, [r2, #16]
 800cba0:	f043 4300 	orr.w	r3, r3, #2147483648	; 0x80000000
 800cba4:	6113      	str	r3, [r2, #16]
 800cba6:	2000      	movs	r0, #0
 800cba8:	4770      	bx	lr
 800cbaa:	bf00      	nop
 800cbac:	40023c00 	.word	0x40023c00

0800cbb0 <HAL_FLASH_GetError>:
 800cbb0:	4b01      	ldr	r3, [pc, #4]	; (800cbb8 <HAL_FLASH_GetError+0x8>)
 800cbb2:	69d8      	ldr	r0, [r3, #28]
 800cbb4:	4770      	bx	lr
 800cbb6:	bf00      	nop
 800cbb8:	2000cb34 	.word	0x2000cb34

0800cbbc <FLASH_WaitForLastOperation>:
 800cbbc:	4b11      	ldr	r3, [pc, #68]	; (800cc04 <FLASH_WaitForLastOperation+0x48>)
 800cbbe:	b570      	push	{r4, r5, r6, lr}
 800cbc0:	2200      	movs	r2, #0
 800cbc2:	4604      	mov	r4, r0
 800cbc4:	61da      	str	r2, [r3, #28]
 800cbc6:	f7ff fd45 	bl	800c654 <HAL_GetTick>
 800cbca:	4d0f      	ldr	r5, [pc, #60]	; (800cc08 <FLASH_WaitForLastOperation+0x4c>)
 800cbcc:	4606      	mov	r6, r0
 800cbce:	68eb      	ldr	r3, [r5, #12]
 800cbd0:	03da      	lsls	r2, r3, #15
 800cbd2:	d40c      	bmi.n	800cbee <FLASH_WaitForLastOperation+0x32>
 800cbd4:	68eb      	ldr	r3, [r5, #12]
 800cbd6:	07db      	lsls	r3, r3, #31
 800cbd8:	bf44      	itt	mi
 800cbda:	2301      	movmi	r3, #1
 800cbdc:	60eb      	strmi	r3, [r5, #12]
 800cbde:	68e8      	ldr	r0, [r5, #12]
 800cbe0:	f410 70f9 	ands.w	r0, r0, #498	; 0x1f2
 800cbe4:	d007      	beq.n	800cbf6 <FLASH_WaitForLastOperation+0x3a>
 800cbe6:	f7ff ff81 	bl	800caec <FLASH_SetErrorCode>
 800cbea:	2001      	movs	r0, #1
 800cbec:	e003      	b.n	800cbf6 <FLASH_WaitForLastOperation+0x3a>
 800cbee:	1c61      	adds	r1, r4, #1
 800cbf0:	d0ed      	beq.n	800cbce <FLASH_WaitForLastOperation+0x12>
 800cbf2:	b90c      	cbnz	r4, 800cbf8 <FLASH_WaitForLastOperation+0x3c>
 800cbf4:	2003      	movs	r0, #3
 800cbf6:	bd70      	pop	{r4, r5, r6, pc}
 800cbf8:	f7ff fd2c 	bl	800c654 <HAL_GetTick>
 800cbfc:	1b80      	subs	r0, r0, r6
 800cbfe:	42a0      	cmp	r0, r4
 800cc00:	d9e5      	bls.n	800cbce <FLASH_WaitForLastOperation+0x12>
 800cc02:	e7f7      	b.n	800cbf4 <FLASH_WaitForLastOperation+0x38>
 800cc04:	2000cb34 	.word	0x2000cb34
 800cc08:	40023c00 	.word	0x40023c00

0800cc0c <HAL_FLASH_Program>:
 800cc0c:	b5f7      	push	{r0, r1, r2, r4, r5, r6, r7, lr}
 800cc0e:	4e20      	ldr	r6, [pc, #128]	; (800cc90 <HAL_FLASH_Program+0x84>)
 800cc10:	9301      	str	r3, [sp, #4]
 800cc12:	4614      	mov	r4, r2
 800cc14:	7e32      	ldrb	r2, [r6, #24]
 800cc16:	2a01      	cmp	r2, #1
 800cc18:	4607      	mov	r7, r0
 800cc1a:	460d      	mov	r5, r1
 800cc1c:	d035      	beq.n	800cc8a <HAL_FLASH_Program+0x7e>
 800cc1e:	2201      	movs	r2, #1
 800cc20:	f24c 3050 	movw	r0, #50000	; 0xc350
 800cc24:	7632      	strb	r2, [r6, #24]
 800cc26:	f7ff ffc9 	bl	800cbbc <FLASH_WaitForLastOperation>
 800cc2a:	b9b8      	cbnz	r0, 800cc5c <HAL_FLASH_Program+0x50>
 800cc2c:	9b01      	ldr	r3, [sp, #4]
 800cc2e:	b9cf      	cbnz	r7, 800cc64 <HAL_FLASH_Program+0x58>
 800cc30:	4b18      	ldr	r3, [pc, #96]	; (800cc94 <HAL_FLASH_Program+0x88>)
 800cc32:	691a      	ldr	r2, [r3, #16]
 800cc34:	f422 7240 	bic.w	r2, r2, #768	; 0x300
 800cc38:	611a      	str	r2, [r3, #16]
 800cc3a:	691a      	ldr	r2, [r3, #16]
 800cc3c:	611a      	str	r2, [r3, #16]
 800cc3e:	691a      	ldr	r2, [r3, #16]
 800cc40:	b2e4      	uxtb	r4, r4
 800cc42:	f042 0201 	orr.w	r2, r2, #1
 800cc46:	611a      	str	r2, [r3, #16]
 800cc48:	702c      	strb	r4, [r5, #0]
 800cc4a:	f24c 3050 	movw	r0, #50000	; 0xc350
 800cc4e:	f7ff ffb5 	bl	800cbbc <FLASH_WaitForLastOperation>
 800cc52:	4a10      	ldr	r2, [pc, #64]	; (800cc94 <HAL_FLASH_Program+0x88>)
 800cc54:	6913      	ldr	r3, [r2, #16]
 800cc56:	f023 0301 	bic.w	r3, r3, #1
 800cc5a:	6113      	str	r3, [r2, #16]
 800cc5c:	2300      	movs	r3, #0
 800cc5e:	7633      	strb	r3, [r6, #24]
 800cc60:	b003      	add	sp, #12
 800cc62:	bdf0      	pop	{r4, r5, r6, r7, pc}
 800cc64:	2f01      	cmp	r7, #1
 800cc66:	d104      	bne.n	800cc72 <HAL_FLASH_Program+0x66>
 800cc68:	b2a1      	uxth	r1, r4
 800cc6a:	4628      	mov	r0, r5
 800cc6c:	f7ff ff2c 	bl	800cac8 <FLASH_Program_HalfWord>
 800cc70:	e7eb      	b.n	800cc4a <HAL_FLASH_Program+0x3e>
 800cc72:	2f02      	cmp	r7, #2
 800cc74:	d104      	bne.n	800cc80 <HAL_FLASH_Program+0x74>
 800cc76:	4621      	mov	r1, r4
 800cc78:	4628      	mov	r0, r5
 800cc7a:	f7ff ff13 	bl	800caa4 <FLASH_Program_Word>
 800cc7e:	e7e4      	b.n	800cc4a <HAL_FLASH_Program+0x3e>
 800cc80:	4622      	mov	r2, r4
 800cc82:	4628      	mov	r0, r5
 800cc84:	f7ff fef8 	bl	800ca78 <FLASH_Program_DoubleWord>
 800cc88:	e7df      	b.n	800cc4a <HAL_FLASH_Program+0x3e>
 800cc8a:	2002      	movs	r0, #2
 800cc8c:	e7e8      	b.n	800cc60 <HAL_FLASH_Program+0x54>
 800cc8e:	bf00      	nop
 800cc90:	2000cb34 	.word	0x2000cb34
 800cc94:	40023c00 	.word	0x40023c00

0800cc98 <FLASH_MassErase.constprop.0>:
 800cc98:	4b07      	ldr	r3, [pc, #28]	; (800ccb8 <FLASH_MassErase.constprop.0+0x20>)
 800cc9a:	6919      	ldr	r1, [r3, #16]
 800cc9c:	f421 7140 	bic.w	r1, r1, #768	; 0x300
 800cca0:	6119      	str	r1, [r3, #16]
 800cca2:	6919      	ldr	r1, [r3, #16]
 800cca4:	f041 0104 	orr.w	r1, r1, #4
 800cca8:	6119      	str	r1, [r3, #16]
 800ccaa:	691a      	ldr	r2, [r3, #16]
 800ccac:	ea42 2000 	orr.w	r0, r2, r0, lsl #8
 800ccb0:	f440 3080 	orr.w	r0, r0, #65536	; 0x10000
 800ccb4:	6118      	str	r0, [r3, #16]
 800ccb6:	4770      	bx	lr
 800ccb8:	40023c00 	.word	0x40023c00

0800ccbc <FLASH_Erase_Sector>:
 800ccbc:	b139      	cbz	r1, 800ccce <FLASH_Erase_Sector+0x12>
 800ccbe:	2901      	cmp	r1, #1
 800ccc0:	d01c      	beq.n	800ccfc <FLASH_Erase_Sector+0x40>
 800ccc2:	2902      	cmp	r1, #2
 800ccc4:	bf0c      	ite	eq
 800ccc6:	f44f 7100 	moveq.w	r1, #512	; 0x200
 800ccca:	f44f 7140 	movne.w	r1, #768	; 0x300
 800ccce:	4b0d      	ldr	r3, [pc, #52]	; (800cd04 <FLASH_Erase_Sector+0x48>)
 800ccd0:	691a      	ldr	r2, [r3, #16]
 800ccd2:	f422 7240 	bic.w	r2, r2, #768	; 0x300
 800ccd6:	611a      	str	r2, [r3, #16]
 800ccd8:	691a      	ldr	r2, [r3, #16]
 800ccda:	4311      	orrs	r1, r2
 800ccdc:	6119      	str	r1, [r3, #16]
 800ccde:	691a      	ldr	r2, [r3, #16]
 800cce0:	f022 02f8 	bic.w	r2, r2, #248	; 0xf8
 800cce4:	611a      	str	r2, [r3, #16]
 800cce6:	691a      	ldr	r2, [r3, #16]
 800cce8:	ea42 00c0 	orr.w	r0, r2, r0, lsl #3
 800ccec:	f040 0002 	orr.w	r0, r0, #2
 800ccf0:	6118      	str	r0, [r3, #16]
 800ccf2:	691a      	ldr	r2, [r3, #16]
 800ccf4:	f442 3280 	orr.w	r2, r2, #65536	; 0x10000
 800ccf8:	611a      	str	r2, [r3, #16]
 800ccfa:	4770      	bx	lr
 800ccfc:	f44f 7180 	mov.w	r1, #256	; 0x100
 800cd00:	e7e5      	b.n	800ccce <FLASH_Erase_Sector+0x12>
 800cd02:	bf00      	nop
 800cd04:	40023c00 	.word	0x40023c00

0800cd08 <FLASH_FlushCaches>:
 800cd08:	4b14      	ldr	r3, [pc, #80]	; (800cd5c <FLASH_FlushCaches+0x54>)
 800cd0a:	681a      	ldr	r2, [r3, #0]
 800cd0c:	0591      	lsls	r1, r2, #22
 800cd0e:	d50f      	bpl.n	800cd30 <FLASH_FlushCaches+0x28>
 800cd10:	681a      	ldr	r2, [r3, #0]
 800cd12:	f422 7200 	bic.w	r2, r2, #512	; 0x200
 800cd16:	601a      	str	r2, [r3, #0]
 800cd18:	681a      	ldr	r2, [r3, #0]
 800cd1a:	f442 6200 	orr.w	r2, r2, #2048	; 0x800
 800cd1e:	601a      	str	r2, [r3, #0]
 800cd20:	681a      	ldr	r2, [r3, #0]
 800cd22:	f422 6200 	bic.w	r2, r2, #2048	; 0x800
 800cd26:	601a      	str	r2, [r3, #0]
 800cd28:	681a      	ldr	r2, [r3, #0]
 800cd2a:	f442 7200 	orr.w	r2, r2, #512	; 0x200
 800cd2e:	601a      	str	r2, [r3, #0]
 800cd30:	4b0a      	ldr	r3, [pc, #40]	; (800cd5c <FLASH_FlushCaches+0x54>)
 800cd32:	681a      	ldr	r2, [r3, #0]
 800cd34:	0552      	lsls	r2, r2, #21
 800cd36:	d50f      	bpl.n	800cd58 <FLASH_FlushCaches+0x50>
 800cd38:	681a      	ldr	r2, [r3, #0]
 800cd3a:	f422 6280 	bic.w	r2, r2, #1024	; 0x400
 800cd3e:	601a      	str	r2, [r3, #0]
 800cd40:	681a      	ldr	r2, [r3, #0]
 800cd42:	f442 5280 	orr.w	r2, r2, #4096	; 0x1000
 800cd46:	601a      	str	r2, [r3, #0]
 800cd48:	681a      	ldr	r2, [r3, #0]
 800cd4a:	f422 5280 	bic.w	r2, r2, #4096	; 0x1000
 800cd4e:	601a      	str	r2, [r3, #0]
 800cd50:	681a      	ldr	r2, [r3, #0]
 800cd52:	f442 6280 	orr.w	r2, r2, #1024	; 0x400
 800cd56:	601a      	str	r2, [r3, #0]
 800cd58:	4770      	bx	lr
 800cd5a:	bf00      	nop
 800cd5c:	40023c00 	.word	0x40023c00

0800cd60 <HAL_FLASHEx_Erase>:
 800cd60:	e92d 43f8 	stmdb	sp!, {r3, r4, r5, r6, r7, r8, r9, lr}
 800cd64:	f8df 8094 	ldr.w	r8, [pc, #148]	; 800cdfc <HAL_FLASHEx_Erase+0x9c>
 800cd68:	f898 3018 	ldrb.w	r3, [r8, #24]
 800cd6c:	2b01      	cmp	r3, #1
 800cd6e:	4605      	mov	r5, r0
 800cd70:	460f      	mov	r7, r1
 800cd72:	d03f      	beq.n	800cdf4 <HAL_FLASHEx_Erase+0x94>
 800cd74:	2301      	movs	r3, #1
 800cd76:	f24c 3050 	movw	r0, #50000	; 0xc350
 800cd7a:	f888 3018 	strb.w	r3, [r8, #24]
 800cd7e:	f7ff ff1d 	bl	800cbbc <FLASH_WaitForLastOperation>
 800cd82:	4604      	mov	r4, r0
 800cd84:	b9a0      	cbnz	r0, 800cdb0 <HAL_FLASHEx_Erase+0x50>
 800cd86:	f04f 33ff 	mov.w	r3, #4294967295
 800cd8a:	603b      	str	r3, [r7, #0]
 800cd8c:	682b      	ldr	r3, [r5, #0]
 800cd8e:	2b01      	cmp	r3, #1
 800cd90:	d114      	bne.n	800cdbc <HAL_FLASHEx_Erase+0x5c>
 800cd92:	7c28      	ldrb	r0, [r5, #16]
 800cd94:	f7ff ff80 	bl	800cc98 <FLASH_MassErase.constprop.0>
 800cd98:	f24c 3050 	movw	r0, #50000	; 0xc350
 800cd9c:	f7ff ff0e 	bl	800cbbc <FLASH_WaitForLastOperation>
 800cda0:	4a15      	ldr	r2, [pc, #84]	; (800cdf8 <HAL_FLASHEx_Erase+0x98>)
 800cda2:	6913      	ldr	r3, [r2, #16]
 800cda4:	f023 0304 	bic.w	r3, r3, #4
 800cda8:	4604      	mov	r4, r0
 800cdaa:	6113      	str	r3, [r2, #16]
 800cdac:	f7ff ffac 	bl	800cd08 <FLASH_FlushCaches>
 800cdb0:	2300      	movs	r3, #0
 800cdb2:	f888 3018 	strb.w	r3, [r8, #24]
 800cdb6:	4620      	mov	r0, r4
 800cdb8:	e8bd 83f8 	ldmia.w	sp!, {r3, r4, r5, r6, r7, r8, r9, pc}
 800cdbc:	68ae      	ldr	r6, [r5, #8]
 800cdbe:	f8df 9038 	ldr.w	r9, [pc, #56]	; 800cdf8 <HAL_FLASHEx_Erase+0x98>
 800cdc2:	e9d5 2302 	ldrd	r2, r3, [r5, #8]
 800cdc6:	4413      	add	r3, r2
 800cdc8:	42b3      	cmp	r3, r6
 800cdca:	d9ef      	bls.n	800cdac <HAL_FLASHEx_Erase+0x4c>
 800cdcc:	7c29      	ldrb	r1, [r5, #16]
 800cdce:	4630      	mov	r0, r6
 800cdd0:	f7ff ff74 	bl	800ccbc <FLASH_Erase_Sector>
 800cdd4:	f24c 3050 	movw	r0, #50000	; 0xc350
 800cdd8:	f7ff fef0 	bl	800cbbc <FLASH_WaitForLastOperation>
 800cddc:	f8d9 3010 	ldr.w	r3, [r9, #16]
 800cde0:	f023 03fa 	bic.w	r3, r3, #250	; 0xfa
 800cde4:	f8c9 3010 	str.w	r3, [r9, #16]
 800cde8:	b110      	cbz	r0, 800cdf0 <HAL_FLASHEx_Erase+0x90>
 800cdea:	603e      	str	r6, [r7, #0]
 800cdec:	4604      	mov	r4, r0
 800cdee:	e7dd      	b.n	800cdac <HAL_FLASHEx_Erase+0x4c>
 800cdf0:	3601      	adds	r6, #1
 800cdf2:	e7e6      	b.n	800cdc2 <HAL_FLASHEx_Erase+0x62>
 800cdf4:	2402      	movs	r4, #2
 800cdf6:	e7de      	b.n	800cdb6 <HAL_FLASHEx_Erase+0x56>
 800cdf8:	40023c00 	.word	0x40023c00
 800cdfc:	2000cb34 	.word	0x2000cb34

0800ce00 <HAL_GPIO_Init>:
 800ce00:	e92d 4ff7 	stmdb	sp!, {r0, r1, r2, r4, r5, r6, r7, r8, r9, sl, fp, lr}
 800ce04:	f8df 9184 	ldr.w	r9, [pc, #388]	; 800cf8c <HAL_GPIO_Init+0x18c>
 800ce08:	4a5e      	ldr	r2, [pc, #376]	; (800cf84 <HAL_GPIO_Init+0x184>)
 800ce0a:	2300      	movs	r3, #0
 800ce0c:	680d      	ldr	r5, [r1, #0]
 800ce0e:	2401      	movs	r4, #1
 800ce10:	409c      	lsls	r4, r3
 800ce12:	ea04 0c05 	and.w	ip, r4, r5
 800ce16:	43ac      	bics	r4, r5
 800ce18:	f040 80a5 	bne.w	800cf66 <HAL_GPIO_Init+0x166>
 800ce1c:	684d      	ldr	r5, [r1, #4]
 800ce1e:	f005 0403 	and.w	r4, r5, #3
 800ce22:	ea4f 0843 	mov.w	r8, r3, lsl #1
 800ce26:	2603      	movs	r6, #3
 800ce28:	1e67      	subs	r7, r4, #1
 800ce2a:	fa06 f608 	lsl.w	r6, r6, r8
 800ce2e:	2f01      	cmp	r7, #1
 800ce30:	ea6f 0606 	mvn.w	r6, r6
 800ce34:	d834      	bhi.n	800cea0 <HAL_GPIO_Init+0xa0>
 800ce36:	6887      	ldr	r7, [r0, #8]
 800ce38:	ea07 0e06 	and.w	lr, r7, r6
 800ce3c:	68cf      	ldr	r7, [r1, #12]
 800ce3e:	fa07 f708 	lsl.w	r7, r7, r8
 800ce42:	ea47 070e 	orr.w	r7, r7, lr
 800ce46:	6087      	str	r7, [r0, #8]
 800ce48:	6847      	ldr	r7, [r0, #4]
 800ce4a:	ea27 0e0c 	bic.w	lr, r7, ip
 800ce4e:	f3c5 1700 	ubfx	r7, r5, #4, #1
 800ce52:	409f      	lsls	r7, r3
 800ce54:	ea47 070e 	orr.w	r7, r7, lr
 800ce58:	6047      	str	r7, [r0, #4]
 800ce5a:	68c7      	ldr	r7, [r0, #12]
 800ce5c:	ea07 0e06 	and.w	lr, r7, r6
 800ce60:	688f      	ldr	r7, [r1, #8]
 800ce62:	fa07 f708 	lsl.w	r7, r7, r8
 800ce66:	ea47 070e 	orr.w	r7, r7, lr
 800ce6a:	2c02      	cmp	r4, #2
 800ce6c:	60c7      	str	r7, [r0, #12]
 800ce6e:	d119      	bne.n	800cea4 <HAL_GPIO_Init+0xa4>
 800ce70:	ea4f 0ad3 	mov.w	sl, r3, lsr #3
 800ce74:	eb00 0a8a 	add.w	sl, r0, sl, lsl #2
 800ce78:	f003 0b07 	and.w	fp, r3, #7
 800ce7c:	f8da 7020 	ldr.w	r7, [sl, #32]
 800ce80:	ea4f 0b8b 	mov.w	fp, fp, lsl #2
 800ce84:	f04f 0e0f 	mov.w	lr, #15
 800ce88:	fa0e fe0b 	lsl.w	lr, lr, fp
 800ce8c:	ea27 0e0e 	bic.w	lr, r7, lr
 800ce90:	690f      	ldr	r7, [r1, #16]
 800ce92:	fa07 f70b 	lsl.w	r7, r7, fp
 800ce96:	ea47 070e 	orr.w	r7, r7, lr
 800ce9a:	f8ca 7020 	str.w	r7, [sl, #32]
 800ce9e:	e001      	b.n	800cea4 <HAL_GPIO_Init+0xa4>
 800cea0:	2c03      	cmp	r4, #3
 800cea2:	d1da      	bne.n	800ce5a <HAL_GPIO_Init+0x5a>
 800cea4:	6807      	ldr	r7, [r0, #0]
 800cea6:	fa04 f408 	lsl.w	r4, r4, r8
 800ceaa:	403e      	ands	r6, r7
 800ceac:	4326      	orrs	r6, r4
 800ceae:	f415 3f40 	tst.w	r5, #196608	; 0x30000
 800ceb2:	6006      	str	r6, [r0, #0]
 800ceb4:	d057      	beq.n	800cf66 <HAL_GPIO_Init+0x166>
 800ceb6:	f04f 0a00 	mov.w	sl, #0
 800ceba:	f8cd a004 	str.w	sl, [sp, #4]
 800cebe:	f8d9 6044 	ldr.w	r6, [r9, #68]	; 0x44
 800cec2:	4c31      	ldr	r4, [pc, #196]	; (800cf88 <HAL_GPIO_Init+0x188>)
 800cec4:	f446 4680 	orr.w	r6, r6, #16384	; 0x4000
 800cec8:	f8c9 6044 	str.w	r6, [r9, #68]	; 0x44
 800cecc:	f8d9 6044 	ldr.w	r6, [r9, #68]	; 0x44
 800ced0:	f406 4680 	and.w	r6, r6, #16384	; 0x4000
 800ced4:	9601      	str	r6, [sp, #4]
 800ced6:	9e01      	ldr	r6, [sp, #4]
 800ced8:	f023 0603 	bic.w	r6, r3, #3
 800cedc:	f106 4680 	add.w	r6, r6, #1073741824	; 0x40000000
 800cee0:	f506 369c 	add.w	r6, r6, #79872	; 0x13800
 800cee4:	f003 0e03 	and.w	lr, r3, #3
 800cee8:	f8d6 8008 	ldr.w	r8, [r6, #8]
 800ceec:	ea4f 0e8e 	mov.w	lr, lr, lsl #2
 800cef0:	270f      	movs	r7, #15
 800cef2:	fa07 f70e 	lsl.w	r7, r7, lr
 800cef6:	42a0      	cmp	r0, r4
 800cef8:	ea28 0707 	bic.w	r7, r8, r7
 800cefc:	d03a      	beq.n	800cf74 <HAL_GPIO_Init+0x174>
 800cefe:	f504 6480 	add.w	r4, r4, #1024	; 0x400
 800cf02:	42a0      	cmp	r0, r4
 800cf04:	d038      	beq.n	800cf78 <HAL_GPIO_Init+0x178>
 800cf06:	f504 6480 	add.w	r4, r4, #1024	; 0x400
 800cf0a:	42a0      	cmp	r0, r4
 800cf0c:	d036      	beq.n	800cf7c <HAL_GPIO_Init+0x17c>
 800cf0e:	f504 6480 	add.w	r4, r4, #1024	; 0x400
 800cf12:	42a0      	cmp	r0, r4
 800cf14:	d034      	beq.n	800cf80 <HAL_GPIO_Init+0x180>
 800cf16:	f504 6480 	add.w	r4, r4, #1024	; 0x400
 800cf1a:	42a0      	cmp	r0, r4
 800cf1c:	bf0c      	ite	eq
 800cf1e:	2404      	moveq	r4, #4
 800cf20:	2407      	movne	r4, #7
 800cf22:	fa04 f40e 	lsl.w	r4, r4, lr
 800cf26:	433c      	orrs	r4, r7
 800cf28:	60b4      	str	r4, [r6, #8]
 800cf2a:	6894      	ldr	r4, [r2, #8]
 800cf2c:	ea6f 060c 	mvn.w	r6, ip
 800cf30:	02ef      	lsls	r7, r5, #11
 800cf32:	bf54      	ite	pl
 800cf34:	4034      	andpl	r4, r6
 800cf36:	ea4c 0404 	orrmi.w	r4, ip, r4
 800cf3a:	6094      	str	r4, [r2, #8]
 800cf3c:	68d4      	ldr	r4, [r2, #12]
 800cf3e:	02af      	lsls	r7, r5, #10
 800cf40:	bf54      	ite	pl
 800cf42:	4034      	andpl	r4, r6
 800cf44:	ea4c 0404 	orrmi.w	r4, ip, r4
 800cf48:	60d4      	str	r4, [r2, #12]
 800cf4a:	6854      	ldr	r4, [r2, #4]
 800cf4c:	03af      	lsls	r7, r5, #14
 800cf4e:	bf54      	ite	pl
 800cf50:	4034      	andpl	r4, r6
 800cf52:	ea4c 0404 	orrmi.w	r4, ip, r4
 800cf56:	6054      	str	r4, [r2, #4]
 800cf58:	6814      	ldr	r4, [r2, #0]
 800cf5a:	03ed      	lsls	r5, r5, #15
 800cf5c:	bf54      	ite	pl
 800cf5e:	4034      	andpl	r4, r6
 800cf60:	ea4c 0404 	orrmi.w	r4, ip, r4
 800cf64:	6014      	str	r4, [r2, #0]
 800cf66:	3301      	adds	r3, #1
 800cf68:	2b10      	cmp	r3, #16
 800cf6a:	f47f af4f 	bne.w	800ce0c <HAL_GPIO_Init+0xc>
 800cf6e:	b003      	add	sp, #12
 800cf70:	e8bd 8ff0 	ldmia.w	sp!, {r4, r5, r6, r7, r8, r9, sl, fp, pc}
 800cf74:	4654      	mov	r4, sl
 800cf76:	e7d4      	b.n	800cf22 <HAL_GPIO_Init+0x122>
 800cf78:	2401      	movs	r4, #1
 800cf7a:	e7d2      	b.n	800cf22 <HAL_GPIO_Init+0x122>
 800cf7c:	2402      	movs	r4, #2
 800cf7e:	e7d0      	b.n	800cf22 <HAL_GPIO_Init+0x122>
 800cf80:	2403      	movs	r4, #3
 800cf82:	e7ce      	b.n	800cf22 <HAL_GPIO_Init+0x122>
 800cf84:	40013c00 	.word	0x40013c00
 800cf88:	40020000 	.word	0x40020000
 800cf8c:	40023800 	.word	0x40023800

0800cf90 <HAL_GPIO_WritePin>:
 800cf90:	b10a      	cbz	r2, 800cf96 <HAL_GPIO_WritePin+0x6>
 800cf92:	6181      	str	r1, [r0, #24]
 800cf94:	4770      	bx	lr
 800cf96:	0409      	lsls	r1, r1, #16
 800cf98:	e7fb      	b.n	800cf92 <HAL_GPIO_WritePin+0x2>
	...

0800cf9c <HAL_GPIO_EXTI_IRQHandler>:
 800cf9c:	4a04      	ldr	r2, [pc, #16]	; (800cfb0 <HAL_GPIO_EXTI_IRQHandler+0x14>)
 800cf9e:	6951      	ldr	r1, [r2, #20]
 800cfa0:	4201      	tst	r1, r0
 800cfa2:	b508      	push	{r3, lr}
 800cfa4:	d002      	beq.n	800cfac <HAL_GPIO_EXTI_IRQHandler+0x10>
 800cfa6:	6150      	str	r0, [r2, #20]
 800cfa8:	f7ff f81c 	bl	800bfe4 <HAL_GPIO_EXTI_Callback>
 800cfac:	bd08      	pop	{r3, pc}
 800cfae:	bf00      	nop
 800cfb0:	40013c00 	.word	0x40013c00

0800cfb4 <HAL_I2C_Init>:
 800cfb4:	b570      	push	{r4, r5, r6, lr}
 800cfb6:	4604      	mov	r4, r0
 800cfb8:	b908      	cbnz	r0, 800cfbe <HAL_I2C_Init+0xa>
 800cfba:	2001      	movs	r0, #1
 800cfbc:	bd70      	pop	{r4, r5, r6, pc}
 800cfbe:	f890 303d 	ldrb.w	r3, [r0, #61]	; 0x3d
 800cfc2:	f003 02ff 	and.w	r2, r3, #255	; 0xff
 800cfc6:	b91b      	cbnz	r3, 800cfd0 <HAL_I2C_Init+0x1c>
 800cfc8:	f880 203c 	strb.w	r2, [r0, #60]	; 0x3c
 800cfcc:	f7ff f868 	bl	800c0a0 <HAL_I2C_MspInit>
 800cfd0:	2324      	movs	r3, #36	; 0x24
 800cfd2:	f884 303d 	strb.w	r3, [r4, #61]	; 0x3d
 800cfd6:	6823      	ldr	r3, [r4, #0]
 800cfd8:	681a      	ldr	r2, [r3, #0]
 800cfda:	f022 0201 	bic.w	r2, r2, #1
 800cfde:	601a      	str	r2, [r3, #0]
 800cfe0:	681a      	ldr	r2, [r3, #0]
 800cfe2:	f442 4200 	orr.w	r2, r2, #32768	; 0x8000
 800cfe6:	601a      	str	r2, [r3, #0]
 800cfe8:	681a      	ldr	r2, [r3, #0]
 800cfea:	f422 4200 	bic.w	r2, r2, #32768	; 0x8000
 800cfee:	601a      	str	r2, [r3, #0]
 800cff0:	f001 ffd8 	bl	800efa4 <HAL_RCC_GetPCLK1Freq>
 800cff4:	4b3f      	ldr	r3, [pc, #252]	; (800d0f4 <HAL_I2C_Init+0x140>)
 800cff6:	6865      	ldr	r5, [r4, #4]
 800cff8:	429d      	cmp	r5, r3
 800cffa:	bf94      	ite	ls
 800cffc:	4b3e      	ldrls	r3, [pc, #248]	; (800d0f8 <HAL_I2C_Init+0x144>)
 800cffe:	4b3f      	ldrhi	r3, [pc, #252]	; (800d0fc <HAL_I2C_Init+0x148>)
 800d000:	4298      	cmp	r0, r3
 800d002:	bf8c      	ite	hi
 800d004:	2300      	movhi	r3, #0
 800d006:	2301      	movls	r3, #1
 800d008:	2b00      	cmp	r3, #0
 800d00a:	d1d6      	bne.n	800cfba <HAL_I2C_Init+0x6>
 800d00c:	6822      	ldr	r2, [r4, #0]
 800d00e:	4e39      	ldr	r6, [pc, #228]	; (800d0f4 <HAL_I2C_Init+0x140>)
 800d010:	6853      	ldr	r3, [r2, #4]
 800d012:	493b      	ldr	r1, [pc, #236]	; (800d100 <HAL_I2C_Init+0x14c>)
 800d014:	fbb0 f1f1 	udiv	r1, r0, r1
 800d018:	f023 033f 	bic.w	r3, r3, #63	; 0x3f
 800d01c:	430b      	orrs	r3, r1
 800d01e:	42b5      	cmp	r5, r6
 800d020:	6053      	str	r3, [r2, #4]
 800d022:	bf88      	it	hi
 800d024:	f44f 7696 	movhi.w	r6, #300	; 0x12c
 800d028:	6a13      	ldr	r3, [r2, #32]
 800d02a:	bf88      	it	hi
 800d02c:	4371      	mulhi	r1, r6
 800d02e:	f023 033f 	bic.w	r3, r3, #63	; 0x3f
 800d032:	bf84      	itt	hi
 800d034:	f44f 767a 	movhi.w	r6, #1000	; 0x3e8
 800d038:	fbb1 f1f6 	udivhi	r1, r1, r6
 800d03c:	3101      	adds	r1, #1
 800d03e:	4319      	orrs	r1, r3
 800d040:	6211      	str	r1, [r2, #32]
 800d042:	69d1      	ldr	r1, [r2, #28]
 800d044:	1e43      	subs	r3, r0, #1
 800d046:	482b      	ldr	r0, [pc, #172]	; (800d0f4 <HAL_I2C_Init+0x140>)
 800d048:	f421 414f 	bic.w	r1, r1, #52992	; 0xcf00
 800d04c:	4285      	cmp	r5, r0
 800d04e:	f021 01ff 	bic.w	r1, r1, #255	; 0xff
 800d052:	d832      	bhi.n	800d0ba <HAL_I2C_Init+0x106>
 800d054:	006d      	lsls	r5, r5, #1
 800d056:	f640 70fc 	movw	r0, #4092	; 0xffc
 800d05a:	fbb3 f3f5 	udiv	r3, r3, r5
 800d05e:	3301      	adds	r3, #1
 800d060:	4203      	tst	r3, r0
 800d062:	d042      	beq.n	800d0ea <HAL_I2C_Init+0x136>
 800d064:	f3c3 030b 	ubfx	r3, r3, #0, #12
 800d068:	430b      	orrs	r3, r1
 800d06a:	61d3      	str	r3, [r2, #28]
 800d06c:	e9d4 3007 	ldrd	r3, r0, [r4, #28]
 800d070:	6811      	ldr	r1, [r2, #0]
 800d072:	4303      	orrs	r3, r0
 800d074:	f021 01c0 	bic.w	r1, r1, #192	; 0xc0
 800d078:	430b      	orrs	r3, r1
 800d07a:	6013      	str	r3, [r2, #0]
 800d07c:	6891      	ldr	r1, [r2, #8]
 800d07e:	e9d4 0303 	ldrd	r0, r3, [r4, #12]
 800d082:	f421 4103 	bic.w	r1, r1, #33536	; 0x8300
 800d086:	4303      	orrs	r3, r0
 800d088:	f021 01ff 	bic.w	r1, r1, #255	; 0xff
 800d08c:	430b      	orrs	r3, r1
 800d08e:	6093      	str	r3, [r2, #8]
 800d090:	e9d4 3005 	ldrd	r3, r0, [r4, #20]
 800d094:	68d1      	ldr	r1, [r2, #12]
 800d096:	4303      	orrs	r3, r0
 800d098:	f021 01ff 	bic.w	r1, r1, #255	; 0xff
 800d09c:	430b      	orrs	r3, r1
 800d09e:	60d3      	str	r3, [r2, #12]
 800d0a0:	6813      	ldr	r3, [r2, #0]
 800d0a2:	f043 0301 	orr.w	r3, r3, #1
 800d0a6:	6013      	str	r3, [r2, #0]
 800d0a8:	2000      	movs	r0, #0
 800d0aa:	2320      	movs	r3, #32
 800d0ac:	6420      	str	r0, [r4, #64]	; 0x40
 800d0ae:	f884 303d 	strb.w	r3, [r4, #61]	; 0x3d
 800d0b2:	6320      	str	r0, [r4, #48]	; 0x30
 800d0b4:	f884 003e 	strb.w	r0, [r4, #62]	; 0x3e
 800d0b8:	e780      	b.n	800cfbc <HAL_I2C_Init+0x8>
 800d0ba:	68a0      	ldr	r0, [r4, #8]
 800d0bc:	b950      	cbnz	r0, 800d0d4 <HAL_I2C_Init+0x120>
 800d0be:	eb05 0545 	add.w	r5, r5, r5, lsl #1
 800d0c2:	fbb3 f3f5 	udiv	r3, r3, r5
 800d0c6:	3301      	adds	r3, #1
 800d0c8:	f3c3 030b 	ubfx	r3, r3, #0, #12
 800d0cc:	b17b      	cbz	r3, 800d0ee <HAL_I2C_Init+0x13a>
 800d0ce:	f443 4300 	orr.w	r3, r3, #32768	; 0x8000
 800d0d2:	e7c9      	b.n	800d068 <HAL_I2C_Init+0xb4>
 800d0d4:	2019      	movs	r0, #25
 800d0d6:	4345      	muls	r5, r0
 800d0d8:	fbb3 f3f5 	udiv	r3, r3, r5
 800d0dc:	3301      	adds	r3, #1
 800d0de:	f3c3 030b 	ubfx	r3, r3, #0, #12
 800d0e2:	b123      	cbz	r3, 800d0ee <HAL_I2C_Init+0x13a>
 800d0e4:	f443 4340 	orr.w	r3, r3, #49152	; 0xc000
 800d0e8:	e7be      	b.n	800d068 <HAL_I2C_Init+0xb4>
 800d0ea:	2304      	movs	r3, #4
 800d0ec:	e7bc      	b.n	800d068 <HAL_I2C_Init+0xb4>
 800d0ee:	2301      	movs	r3, #1
 800d0f0:	e7ba      	b.n	800d068 <HAL_I2C_Init+0xb4>
 800d0f2:	bf00      	nop
 800d0f4:	000186a0 	.word	0x000186a0
 800d0f8:	001e847f 	.word	0x001e847f
 800d0fc:	003d08ff 	.word	0x003d08ff
 800d100:	000f4240 	.word	0x000f4240

0800d104 <HAL_I2C_Master_Transmit_DMA>:
 800d104:	b5f7      	push	{r0, r1, r2, r4, r5, r6, r7, lr}
 800d106:	460f      	mov	r7, r1
 800d108:	4611      	mov	r1, r2
 800d10a:	2200      	movs	r2, #0
 800d10c:	9201      	str	r2, [sp, #4]
 800d10e:	f890 203d 	ldrb.w	r2, [r0, #61]	; 0x3d
 800d112:	2a20      	cmp	r2, #32
 800d114:	4604      	mov	r4, r0
 800d116:	d002      	beq.n	800d11e <HAL_I2C_Master_Transmit_DMA+0x1a>
 800d118:	2002      	movs	r0, #2
 800d11a:	b003      	add	sp, #12
 800d11c:	bdf0      	pop	{r4, r5, r6, r7, pc}
 800d11e:	4a47      	ldr	r2, [pc, #284]	; (800d23c <HAL_I2C_Master_Transmit_DMA+0x138>)
 800d120:	6810      	ldr	r0, [r2, #0]
 800d122:	f246 12a8 	movw	r2, #25000	; 0x61a8
 800d126:	fbb0 f0f2 	udiv	r0, r0, r2
 800d12a:	2219      	movs	r2, #25
 800d12c:	4350      	muls	r0, r2
 800d12e:	9001      	str	r0, [sp, #4]
 800d130:	9a01      	ldr	r2, [sp, #4]
 800d132:	3a01      	subs	r2, #1
 800d134:	9201      	str	r2, [sp, #4]
 800d136:	9a01      	ldr	r2, [sp, #4]
 800d138:	b96a      	cbnz	r2, 800d156 <HAL_I2C_Master_Transmit_DMA+0x52>
 800d13a:	2320      	movs	r3, #32
 800d13c:	6322      	str	r2, [r4, #48]	; 0x30
 800d13e:	f884 303d 	strb.w	r3, [r4, #61]	; 0x3d
 800d142:	f884 203e 	strb.w	r2, [r4, #62]	; 0x3e
 800d146:	6c23      	ldr	r3, [r4, #64]	; 0x40
 800d148:	f884 203c 	strb.w	r2, [r4, #60]	; 0x3c
 800d14c:	f043 0320 	orr.w	r3, r3, #32
 800d150:	6423      	str	r3, [r4, #64]	; 0x40
 800d152:	2001      	movs	r0, #1
 800d154:	e7e1      	b.n	800d11a <HAL_I2C_Master_Transmit_DMA+0x16>
 800d156:	6825      	ldr	r5, [r4, #0]
 800d158:	69aa      	ldr	r2, [r5, #24]
 800d15a:	0790      	lsls	r0, r2, #30
 800d15c:	d4e8      	bmi.n	800d130 <HAL_I2C_Master_Transmit_DMA+0x2c>
 800d15e:	f894 203c 	ldrb.w	r2, [r4, #60]	; 0x3c
 800d162:	2a01      	cmp	r2, #1
 800d164:	d0d8      	beq.n	800d118 <HAL_I2C_Master_Transmit_DMA+0x14>
 800d166:	2201      	movs	r2, #1
 800d168:	f884 203c 	strb.w	r2, [r4, #60]	; 0x3c
 800d16c:	682a      	ldr	r2, [r5, #0]
 800d16e:	07d2      	lsls	r2, r2, #31
 800d170:	bf5e      	ittt	pl
 800d172:	682a      	ldrpl	r2, [r5, #0]
 800d174:	f042 0201 	orrpl.w	r2, r2, #1
 800d178:	602a      	strpl	r2, [r5, #0]
 800d17a:	682a      	ldr	r2, [r5, #0]
 800d17c:	f422 6200 	bic.w	r2, r2, #2048	; 0x800
 800d180:	602a      	str	r2, [r5, #0]
 800d182:	2221      	movs	r2, #33	; 0x21
 800d184:	f884 203d 	strb.w	r2, [r4, #61]	; 0x3d
 800d188:	2600      	movs	r6, #0
 800d18a:	2210      	movs	r2, #16
 800d18c:	f884 203e 	strb.w	r2, [r4, #62]	; 0x3e
 800d190:	6426      	str	r6, [r4, #64]	; 0x40
 800d192:	8563      	strh	r3, [r4, #42]	; 0x2a
 800d194:	8d60      	ldrh	r0, [r4, #42]	; 0x2a
 800d196:	4a2a      	ldr	r2, [pc, #168]	; (800d240 <HAL_I2C_Master_Transmit_DMA+0x13c>)
 800d198:	62e2      	str	r2, [r4, #44]	; 0x2c
 800d19a:	b283      	uxth	r3, r0
 800d19c:	6261      	str	r1, [r4, #36]	; 0x24
 800d19e:	8523      	strh	r3, [r4, #40]	; 0x28
 800d1a0:	6467      	str	r7, [r4, #68]	; 0x44
 800d1a2:	2b00      	cmp	r3, #0
 800d1a4:	d03a      	beq.n	800d21c <HAL_I2C_Master_Transmit_DMA+0x118>
 800d1a6:	6b60      	ldr	r0, [r4, #52]	; 0x34
 800d1a8:	b1c0      	cbz	r0, 800d1dc <HAL_I2C_Master_Transmit_DMA+0xd8>
 800d1aa:	4a26      	ldr	r2, [pc, #152]	; (800d244 <HAL_I2C_Master_Transmit_DMA+0x140>)
 800d1ac:	63c2      	str	r2, [r0, #60]	; 0x3c
 800d1ae:	4a26      	ldr	r2, [pc, #152]	; (800d248 <HAL_I2C_Master_Transmit_DMA+0x144>)
 800d1b0:	64c2      	str	r2, [r0, #76]	; 0x4c
 800d1b2:	e9c0 6610 	strd	r6, r6, [r0, #64]	; 0x40
 800d1b6:	6486      	str	r6, [r0, #72]	; 0x48
 800d1b8:	6506      	str	r6, [r0, #80]	; 0x50
 800d1ba:	f105 0210 	add.w	r2, r5, #16
 800d1be:	f7ff fb4b 	bl	800c858 <HAL_DMA_Start_IT>
 800d1c2:	b1b8      	cbz	r0, 800d1f4 <HAL_I2C_Master_Transmit_DMA+0xf0>
 800d1c4:	2320      	movs	r3, #32
 800d1c6:	f884 303d 	strb.w	r3, [r4, #61]	; 0x3d
 800d1ca:	f884 603e 	strb.w	r6, [r4, #62]	; 0x3e
 800d1ce:	6c23      	ldr	r3, [r4, #64]	; 0x40
 800d1d0:	f884 603c 	strb.w	r6, [r4, #60]	; 0x3c
 800d1d4:	f043 0310 	orr.w	r3, r3, #16
 800d1d8:	6423      	str	r3, [r4, #64]	; 0x40
 800d1da:	e7ba      	b.n	800d152 <HAL_I2C_Master_Transmit_DMA+0x4e>
 800d1dc:	2320      	movs	r3, #32
 800d1de:	f884 303d 	strb.w	r3, [r4, #61]	; 0x3d
 800d1e2:	f884 003e 	strb.w	r0, [r4, #62]	; 0x3e
 800d1e6:	6c23      	ldr	r3, [r4, #64]	; 0x40
 800d1e8:	f884 003c 	strb.w	r0, [r4, #60]	; 0x3c
 800d1ec:	f043 0380 	orr.w	r3, r3, #128	; 0x80
 800d1f0:	6423      	str	r3, [r4, #64]	; 0x40
 800d1f2:	e7ae      	b.n	800d152 <HAL_I2C_Master_Transmit_DMA+0x4e>
 800d1f4:	6823      	ldr	r3, [r4, #0]
 800d1f6:	f884 003c 	strb.w	r0, [r4, #60]	; 0x3c
 800d1fa:	685a      	ldr	r2, [r3, #4]
 800d1fc:	f442 7240 	orr.w	r2, r2, #768	; 0x300
 800d200:	605a      	str	r2, [r3, #4]
 800d202:	685a      	ldr	r2, [r3, #4]
 800d204:	f442 6200 	orr.w	r2, r2, #2048	; 0x800
 800d208:	605a      	str	r2, [r3, #4]
 800d20a:	681a      	ldr	r2, [r3, #0]
 800d20c:	f442 6280 	orr.w	r2, r2, #1024	; 0x400
 800d210:	601a      	str	r2, [r3, #0]
 800d212:	681a      	ldr	r2, [r3, #0]
 800d214:	f442 7280 	orr.w	r2, r2, #256	; 0x100
 800d218:	601a      	str	r2, [r3, #0]
 800d21a:	e77e      	b.n	800d11a <HAL_I2C_Master_Transmit_DMA+0x16>
 800d21c:	682a      	ldr	r2, [r5, #0]
 800d21e:	f442 6280 	orr.w	r2, r2, #1024	; 0x400
 800d222:	602a      	str	r2, [r5, #0]
 800d224:	682a      	ldr	r2, [r5, #0]
 800d226:	f442 7280 	orr.w	r2, r2, #256	; 0x100
 800d22a:	602a      	str	r2, [r5, #0]
 800d22c:	f884 303c 	strb.w	r3, [r4, #60]	; 0x3c
 800d230:	686a      	ldr	r2, [r5, #4]
 800d232:	f442 62e0 	orr.w	r2, r2, #1792	; 0x700
 800d236:	606a      	str	r2, [r5, #4]
 800d238:	4618      	mov	r0, r3
 800d23a:	e76e      	b.n	800d11a <HAL_I2C_Master_Transmit_DMA+0x16>
 800d23c:	20000000 	.word	0x20000000
 800d240:	ffff0000 	.word	0xffff0000
 800d244:	0800d343 	.word	0x0800d343
 800d248:	0800d2ff 	.word	0x0800d2ff

0800d24c <HAL_I2C_MasterRxCpltCallback>:
 800d24c:	4770      	bx	lr

0800d24e <HAL_I2C_SlaveTxCpltCallback>:
 800d24e:	4770      	bx	lr

0800d250 <HAL_I2C_SlaveRxCpltCallback>:
 800d250:	4770      	bx	lr

0800d252 <HAL_I2C_AddrCallback>:
 800d252:	4770      	bx	lr

0800d254 <HAL_I2C_ListenCpltCallback>:
 800d254:	4770      	bx	lr

0800d256 <HAL_I2C_MemTxCpltCallback>:
 800d256:	4770      	bx	lr

0800d258 <I2C_MemoryTransmit_TXE_BTF>:
 800d258:	f890 203d 	ldrb.w	r2, [r0, #61]	; 0x3d
 800d25c:	b508      	push	{r3, lr}
 800d25e:	6d03      	ldr	r3, [r0, #80]	; 0x50
 800d260:	b2d2      	uxtb	r2, r2
 800d262:	b983      	cbnz	r3, 800d286 <I2C_MemoryTransmit_TXE_BTF+0x2e>
 800d264:	6cc3      	ldr	r3, [r0, #76]	; 0x4c
 800d266:	6802      	ldr	r2, [r0, #0]
 800d268:	2b01      	cmp	r3, #1
 800d26a:	6c83      	ldr	r3, [r0, #72]	; 0x48
 800d26c:	d105      	bne.n	800d27a <I2C_MemoryTransmit_TXE_BTF+0x22>
 800d26e:	b2db      	uxtb	r3, r3
 800d270:	6113      	str	r3, [r2, #16]
 800d272:	6d03      	ldr	r3, [r0, #80]	; 0x50
 800d274:	3302      	adds	r3, #2
 800d276:	6503      	str	r3, [r0, #80]	; 0x50
 800d278:	bd08      	pop	{r3, pc}
 800d27a:	f3c3 2307 	ubfx	r3, r3, #8, #8
 800d27e:	6113      	str	r3, [r2, #16]
 800d280:	6d03      	ldr	r3, [r0, #80]	; 0x50
 800d282:	3301      	adds	r3, #1
 800d284:	e7f7      	b.n	800d276 <I2C_MemoryTransmit_TXE_BTF+0x1e>
 800d286:	6d03      	ldr	r3, [r0, #80]	; 0x50
 800d288:	2b01      	cmp	r3, #1
 800d28a:	d103      	bne.n	800d294 <I2C_MemoryTransmit_TXE_BTF+0x3c>
 800d28c:	6c83      	ldr	r3, [r0, #72]	; 0x48
 800d28e:	6802      	ldr	r2, [r0, #0]
 800d290:	b2db      	uxtb	r3, r3
 800d292:	e7f4      	b.n	800d27e <I2C_MemoryTransmit_TXE_BTF+0x26>
 800d294:	6d03      	ldr	r3, [r0, #80]	; 0x50
 800d296:	2b02      	cmp	r3, #2
 800d298:	d1ee      	bne.n	800d278 <I2C_MemoryTransmit_TXE_BTF+0x20>
 800d29a:	2a22      	cmp	r2, #34	; 0x22
 800d29c:	d105      	bne.n	800d2aa <I2C_MemoryTransmit_TXE_BTF+0x52>
 800d29e:	6802      	ldr	r2, [r0, #0]
 800d2a0:	6813      	ldr	r3, [r2, #0]
 800d2a2:	f443 7380 	orr.w	r3, r3, #256	; 0x100
 800d2a6:	6013      	str	r3, [r2, #0]
 800d2a8:	e7ea      	b.n	800d280 <I2C_MemoryTransmit_TXE_BTF+0x28>
 800d2aa:	8d43      	ldrh	r3, [r0, #42]	; 0x2a
 800d2ac:	b29b      	uxth	r3, r3
 800d2ae:	b163      	cbz	r3, 800d2ca <I2C_MemoryTransmit_TXE_BTF+0x72>
 800d2b0:	2a21      	cmp	r2, #33	; 0x21
 800d2b2:	d10a      	bne.n	800d2ca <I2C_MemoryTransmit_TXE_BTF+0x72>
 800d2b4:	6a43      	ldr	r3, [r0, #36]	; 0x24
 800d2b6:	6802      	ldr	r2, [r0, #0]
 800d2b8:	f813 1b01 	ldrb.w	r1, [r3], #1
 800d2bc:	6111      	str	r1, [r2, #16]
 800d2be:	6243      	str	r3, [r0, #36]	; 0x24
 800d2c0:	8d43      	ldrh	r3, [r0, #42]	; 0x2a
 800d2c2:	3b01      	subs	r3, #1
 800d2c4:	b29b      	uxth	r3, r3
 800d2c6:	8543      	strh	r3, [r0, #42]	; 0x2a
 800d2c8:	e7d6      	b.n	800d278 <I2C_MemoryTransmit_TXE_BTF+0x20>
 800d2ca:	8d43      	ldrh	r3, [r0, #42]	; 0x2a
 800d2cc:	b29b      	uxth	r3, r3
 800d2ce:	2b00      	cmp	r3, #0
 800d2d0:	d1d2      	bne.n	800d278 <I2C_MemoryTransmit_TXE_BTF+0x20>
 800d2d2:	2a21      	cmp	r2, #33	; 0x21
 800d2d4:	d1d0      	bne.n	800d278 <I2C_MemoryTransmit_TXE_BTF+0x20>
 800d2d6:	6802      	ldr	r2, [r0, #0]
 800d2d8:	6851      	ldr	r1, [r2, #4]
 800d2da:	f421 61e0 	bic.w	r1, r1, #1792	; 0x700
 800d2de:	6051      	str	r1, [r2, #4]
 800d2e0:	6811      	ldr	r1, [r2, #0]
 800d2e2:	f441 7100 	orr.w	r1, r1, #512	; 0x200
 800d2e6:	6011      	str	r1, [r2, #0]
 800d2e8:	2220      	movs	r2, #32
 800d2ea:	6303      	str	r3, [r0, #48]	; 0x30
 800d2ec:	f880 203d 	strb.w	r2, [r0, #61]	; 0x3d
 800d2f0:	f880 303e 	strb.w	r3, [r0, #62]	; 0x3e
 800d2f4:	f7ff ffaf 	bl	800d256 <HAL_I2C_MemTxCpltCallback>
 800d2f8:	e7be      	b.n	800d278 <I2C_MemoryTransmit_TXE_BTF+0x20>

0800d2fa <HAL_I2C_MemRxCpltCallback>:
 800d2fa:	4770      	bx	lr

0800d2fc <HAL_I2C_ErrorCallback>:
 800d2fc:	4770      	bx	lr

0800d2fe <I2C_DMAError>:
 800d2fe:	b510      	push	{r4, lr}
 800d300:	6b84      	ldr	r4, [r0, #56]	; 0x38
 800d302:	6b63      	ldr	r3, [r4, #52]	; 0x34
 800d304:	b10b      	cbz	r3, 800d30a <I2C_DMAError+0xc>
 800d306:	2200      	movs	r2, #0
 800d308:	63da      	str	r2, [r3, #60]	; 0x3c
 800d30a:	6ba3      	ldr	r3, [r4, #56]	; 0x38
 800d30c:	b10b      	cbz	r3, 800d312 <I2C_DMAError+0x14>
 800d30e:	2200      	movs	r2, #0
 800d310:	63da      	str	r2, [r3, #60]	; 0x3c
 800d312:	f7ff fbae 	bl	800ca72 <HAL_DMA_GetError>
 800d316:	2802      	cmp	r0, #2
 800d318:	d012      	beq.n	800d340 <I2C_DMAError+0x42>
 800d31a:	6822      	ldr	r2, [r4, #0]
 800d31c:	6813      	ldr	r3, [r2, #0]
 800d31e:	f423 6380 	bic.w	r3, r3, #1024	; 0x400
 800d322:	6013      	str	r3, [r2, #0]
 800d324:	2300      	movs	r3, #0
 800d326:	2220      	movs	r2, #32
 800d328:	8563      	strh	r3, [r4, #42]	; 0x2a
 800d32a:	f884 203d 	strb.w	r2, [r4, #61]	; 0x3d
 800d32e:	f884 303e 	strb.w	r3, [r4, #62]	; 0x3e
 800d332:	6c23      	ldr	r3, [r4, #64]	; 0x40
 800d334:	f043 0310 	orr.w	r3, r3, #16
 800d338:	6423      	str	r3, [r4, #64]	; 0x40
 800d33a:	4620      	mov	r0, r4
 800d33c:	f7ff ffde 	bl	800d2fc <HAL_I2C_ErrorCallback>
 800d340:	bd10      	pop	{r4, pc}

0800d342 <I2C_DMAXferCplt>:
 800d342:	b570      	push	{r4, r5, r6, lr}
 800d344:	6b84      	ldr	r4, [r0, #56]	; 0x38
 800d346:	6823      	ldr	r3, [r4, #0]
 800d348:	f894 203d 	ldrb.w	r2, [r4, #61]	; 0x3d
 800d34c:	f894 003e 	ldrb.w	r0, [r4, #62]	; 0x3e
 800d350:	6ae1      	ldr	r1, [r4, #44]	; 0x2c
 800d352:	685d      	ldr	r5, [r3, #4]
 800d354:	f425 7540 	bic.w	r5, r5, #768	; 0x300
 800d358:	605d      	str	r5, [r3, #4]
 800d35a:	6b65      	ldr	r5, [r4, #52]	; 0x34
 800d35c:	b2d2      	uxtb	r2, r2
 800d35e:	b2c0      	uxtb	r0, r0
 800d360:	b10d      	cbz	r5, 800d366 <I2C_DMAXferCplt+0x24>
 800d362:	2600      	movs	r6, #0
 800d364:	63ee      	str	r6, [r5, #60]	; 0x3c
 800d366:	6ba5      	ldr	r5, [r4, #56]	; 0x38
 800d368:	b10d      	cbz	r5, 800d36e <I2C_DMAXferCplt+0x2c>
 800d36a:	2600      	movs	r6, #0
 800d36c:	63ee      	str	r6, [r5, #60]	; 0x3c
 800d36e:	f002 0521 	and.w	r5, r2, #33	; 0x21
 800d372:	2d21      	cmp	r5, #33	; 0x21
 800d374:	d005      	beq.n	800d382 <I2C_DMAXferCplt+0x40>
 800d376:	f002 0522 	and.w	r5, r2, #34	; 0x22
 800d37a:	2d22      	cmp	r5, #34	; 0x22
 800d37c:	d123      	bne.n	800d3c6 <I2C_DMAXferCplt+0x84>
 800d37e:	2820      	cmp	r0, #32
 800d380:	d121      	bne.n	800d3c6 <I2C_DMAXferCplt+0x84>
 800d382:	6859      	ldr	r1, [r3, #4]
 800d384:	f421 6100 	bic.w	r1, r1, #2048	; 0x800
 800d388:	6059      	str	r1, [r3, #4]
 800d38a:	2a29      	cmp	r2, #41	; 0x29
 800d38c:	f04f 0300 	mov.w	r3, #0
 800d390:	8563      	strh	r3, [r4, #42]	; 0x2a
 800d392:	d10d      	bne.n	800d3b0 <I2C_DMAXferCplt+0x6e>
 800d394:	2321      	movs	r3, #33	; 0x21
 800d396:	6323      	str	r3, [r4, #48]	; 0x30
 800d398:	2328      	movs	r3, #40	; 0x28
 800d39a:	f884 303d 	strb.w	r3, [r4, #61]	; 0x3d
 800d39e:	4620      	mov	r0, r4
 800d3a0:	f7ff ff55 	bl	800d24e <HAL_I2C_SlaveTxCpltCallback>
 800d3a4:	6822      	ldr	r2, [r4, #0]
 800d3a6:	6853      	ldr	r3, [r2, #4]
 800d3a8:	f443 7340 	orr.w	r3, r3, #768	; 0x300
 800d3ac:	6053      	str	r3, [r2, #4]
 800d3ae:	bd70      	pop	{r4, r5, r6, pc}
 800d3b0:	2a2a      	cmp	r2, #42	; 0x2a
 800d3b2:	d1f7      	bne.n	800d3a4 <I2C_DMAXferCplt+0x62>
 800d3b4:	2322      	movs	r3, #34	; 0x22
 800d3b6:	6323      	str	r3, [r4, #48]	; 0x30
 800d3b8:	2328      	movs	r3, #40	; 0x28
 800d3ba:	f884 303d 	strb.w	r3, [r4, #61]	; 0x3d
 800d3be:	4620      	mov	r0, r4
 800d3c0:	f7ff ff46 	bl	800d250 <HAL_I2C_SlaveRxCpltCallback>
 800d3c4:	e7ee      	b.n	800d3a4 <I2C_DMAXferCplt+0x62>
 800d3c6:	f894 203e 	ldrb.w	r2, [r4, #62]	; 0x3e
 800d3ca:	2a00      	cmp	r2, #0
 800d3cc:	d0ef      	beq.n	800d3ae <I2C_DMAXferCplt+0x6c>
 800d3ce:	8d62      	ldrh	r2, [r4, #42]	; 0x2a
 800d3d0:	b292      	uxth	r2, r2
 800d3d2:	2a01      	cmp	r2, #1
 800d3d4:	bf02      	ittt	eq
 800d3d6:	681a      	ldreq	r2, [r3, #0]
 800d3d8:	f422 6280 	biceq.w	r2, r2, #1024	; 0x400
 800d3dc:	601a      	streq	r2, [r3, #0]
 800d3de:	685a      	ldr	r2, [r3, #4]
 800d3e0:	f511 3f80 	cmn.w	r1, #65536	; 0x10000
 800d3e4:	f422 7240 	bic.w	r2, r2, #768	; 0x300
 800d3e8:	605a      	str	r2, [r3, #4]
 800d3ea:	d006      	beq.n	800d3fa <I2C_DMAXferCplt+0xb8>
 800d3ec:	2908      	cmp	r1, #8
 800d3ee:	d004      	beq.n	800d3fa <I2C_DMAXferCplt+0xb8>
 800d3f0:	f1b1 4f2a 	cmp.w	r1, #2852126720	; 0xaa000000
 800d3f4:	d001      	beq.n	800d3fa <I2C_DMAXferCplt+0xb8>
 800d3f6:	2920      	cmp	r1, #32
 800d3f8:	d103      	bne.n	800d402 <I2C_DMAXferCplt+0xc0>
 800d3fa:	681a      	ldr	r2, [r3, #0]
 800d3fc:	f442 7200 	orr.w	r2, r2, #512	; 0x200
 800d400:	601a      	str	r2, [r3, #0]
 800d402:	685a      	ldr	r2, [r3, #4]
 800d404:	f422 5280 	bic.w	r2, r2, #4096	; 0x1000
 800d408:	605a      	str	r2, [r3, #4]
 800d40a:	685a      	ldr	r2, [r3, #4]
 800d40c:	f422 6200 	bic.w	r2, r2, #2048	; 0x800
 800d410:	605a      	str	r2, [r3, #4]
 800d412:	2300      	movs	r3, #0
 800d414:	8563      	strh	r3, [r4, #42]	; 0x2a
 800d416:	6c23      	ldr	r3, [r4, #64]	; 0x40
 800d418:	b11b      	cbz	r3, 800d422 <I2C_DMAXferCplt+0xe0>
 800d41a:	4620      	mov	r0, r4
 800d41c:	f7ff ff6e 	bl	800d2fc <HAL_I2C_ErrorCallback>
 800d420:	e7c5      	b.n	800d3ae <I2C_DMAXferCplt+0x6c>
 800d422:	2220      	movs	r2, #32
 800d424:	f884 203d 	strb.w	r2, [r4, #61]	; 0x3d
 800d428:	f894 203e 	ldrb.w	r2, [r4, #62]	; 0x3e
 800d42c:	f884 303e 	strb.w	r3, [r4, #62]	; 0x3e
 800d430:	2a40      	cmp	r2, #64	; 0x40
 800d432:	d104      	bne.n	800d43e <I2C_DMAXferCplt+0xfc>
 800d434:	6323      	str	r3, [r4, #48]	; 0x30
 800d436:	4620      	mov	r0, r4
 800d438:	f7ff ff5f 	bl	800d2fa <HAL_I2C_MemRxCpltCallback>
 800d43c:	e7b7      	b.n	800d3ae <I2C_DMAXferCplt+0x6c>
 800d43e:	2312      	movs	r3, #18
 800d440:	6323      	str	r3, [r4, #48]	; 0x30
 800d442:	4620      	mov	r0, r4
 800d444:	f7ff ff02 	bl	800d24c <HAL_I2C_MasterRxCpltCallback>
 800d448:	e7b1      	b.n	800d3ae <I2C_DMAXferCplt+0x6c>

0800d44a <HAL_I2C_AbortCpltCallback>:
 800d44a:	4770      	bx	lr

0800d44c <I2C_DMAAbort>:
 800d44c:	b537      	push	{r0, r1, r2, r4, r5, lr}
 800d44e:	2300      	movs	r3, #0
 800d450:	9301      	str	r3, [sp, #4]
 800d452:	4b2d      	ldr	r3, [pc, #180]	; (800d508 <I2C_DMAAbort+0xbc>)
 800d454:	6b80      	ldr	r0, [r0, #56]	; 0x38
 800d456:	681b      	ldr	r3, [r3, #0]
 800d458:	f890 203d 	ldrb.w	r2, [r0, #61]	; 0x3d
 800d45c:	f246 11a8 	movw	r1, #25000	; 0x61a8
 800d460:	fbb3 f3f1 	udiv	r3, r3, r1
 800d464:	2123      	movs	r1, #35	; 0x23
 800d466:	434b      	muls	r3, r1
 800d468:	9301      	str	r3, [sp, #4]
 800d46a:	6803      	ldr	r3, [r0, #0]
 800d46c:	b2d2      	uxtb	r2, r2
 800d46e:	9901      	ldr	r1, [sp, #4]
 800d470:	bb41      	cbnz	r1, 800d4c4 <I2C_DMAAbort+0x78>
 800d472:	6c01      	ldr	r1, [r0, #64]	; 0x40
 800d474:	f041 0120 	orr.w	r1, r1, #32
 800d478:	6401      	str	r1, [r0, #64]	; 0x40
 800d47a:	6b44      	ldr	r4, [r0, #52]	; 0x34
 800d47c:	b10c      	cbz	r4, 800d482 <I2C_DMAAbort+0x36>
 800d47e:	2100      	movs	r1, #0
 800d480:	63e1      	str	r1, [r4, #60]	; 0x3c
 800d482:	6b81      	ldr	r1, [r0, #56]	; 0x38
 800d484:	b109      	cbz	r1, 800d48a <I2C_DMAAbort+0x3e>
 800d486:	2500      	movs	r5, #0
 800d488:	63cd      	str	r5, [r1, #60]	; 0x3c
 800d48a:	681d      	ldr	r5, [r3, #0]
 800d48c:	f425 6580 	bic.w	r5, r5, #1024	; 0x400
 800d490:	601d      	str	r5, [r3, #0]
 800d492:	2500      	movs	r5, #0
 800d494:	8545      	strh	r5, [r0, #42]	; 0x2a
 800d496:	b104      	cbz	r4, 800d49a <I2C_DMAAbort+0x4e>
 800d498:	6525      	str	r5, [r4, #80]	; 0x50
 800d49a:	b101      	cbz	r1, 800d49e <I2C_DMAAbort+0x52>
 800d49c:	650d      	str	r5, [r1, #80]	; 0x50
 800d49e:	6819      	ldr	r1, [r3, #0]
 800d4a0:	f021 0101 	bic.w	r1, r1, #1
 800d4a4:	6019      	str	r1, [r3, #0]
 800d4a6:	f890 103d 	ldrb.w	r1, [r0, #61]	; 0x3d
 800d4aa:	2960      	cmp	r1, #96	; 0x60
 800d4ac:	d111      	bne.n	800d4d2 <I2C_DMAAbort+0x86>
 800d4ae:	2320      	movs	r3, #32
 800d4b0:	f880 303d 	strb.w	r3, [r0, #61]	; 0x3d
 800d4b4:	2300      	movs	r3, #0
 800d4b6:	f880 303e 	strb.w	r3, [r0, #62]	; 0x3e
 800d4ba:	6403      	str	r3, [r0, #64]	; 0x40
 800d4bc:	f7ff ffc5 	bl	800d44a <HAL_I2C_AbortCpltCallback>
 800d4c0:	b003      	add	sp, #12
 800d4c2:	bd30      	pop	{r4, r5, pc}
 800d4c4:	9901      	ldr	r1, [sp, #4]
 800d4c6:	3901      	subs	r1, #1
 800d4c8:	9101      	str	r1, [sp, #4]
 800d4ca:	6819      	ldr	r1, [r3, #0]
 800d4cc:	0589      	lsls	r1, r1, #22
 800d4ce:	d4ce      	bmi.n	800d46e <I2C_DMAAbort+0x22>
 800d4d0:	e7d3      	b.n	800d47a <I2C_DMAAbort+0x2e>
 800d4d2:	f002 0228 	and.w	r2, r2, #40	; 0x28
 800d4d6:	2a28      	cmp	r2, #40	; 0x28
 800d4d8:	d10e      	bne.n	800d4f8 <I2C_DMAAbort+0xac>
 800d4da:	6819      	ldr	r1, [r3, #0]
 800d4dc:	f041 0101 	orr.w	r1, r1, #1
 800d4e0:	6019      	str	r1, [r3, #0]
 800d4e2:	6819      	ldr	r1, [r3, #0]
 800d4e4:	f441 6180 	orr.w	r1, r1, #1024	; 0x400
 800d4e8:	6019      	str	r1, [r3, #0]
 800d4ea:	2300      	movs	r3, #0
 800d4ec:	6303      	str	r3, [r0, #48]	; 0x30
 800d4ee:	f880 203d 	strb.w	r2, [r0, #61]	; 0x3d
 800d4f2:	f7ff ff03 	bl	800d2fc <HAL_I2C_ErrorCallback>
 800d4f6:	e7e3      	b.n	800d4c0 <I2C_DMAAbort+0x74>
 800d4f8:	2320      	movs	r3, #32
 800d4fa:	f880 303d 	strb.w	r3, [r0, #61]	; 0x3d
 800d4fe:	2300      	movs	r3, #0
 800d500:	f880 303e 	strb.w	r3, [r0, #62]	; 0x3e
 800d504:	e7f5      	b.n	800d4f2 <I2C_DMAAbort+0xa6>
 800d506:	bf00      	nop
 800d508:	20000000 	.word	0x20000000

0800d50c <I2C_ITError>:
 800d50c:	b510      	push	{r4, lr}
 800d50e:	f890 203d 	ldrb.w	r2, [r0, #61]	; 0x3d
 800d512:	f890 303e 	ldrb.w	r3, [r0, #62]	; 0x3e
 800d516:	2b10      	cmp	r3, #16
 800d518:	b2d9      	uxtb	r1, r3
 800d51a:	4604      	mov	r4, r0
 800d51c:	6803      	ldr	r3, [r0, #0]
 800d51e:	b2d2      	uxtb	r2, r2
 800d520:	d001      	beq.n	800d526 <I2C_ITError+0x1a>
 800d522:	2940      	cmp	r1, #64	; 0x40
 800d524:	d113      	bne.n	800d54e <I2C_ITError+0x42>
 800d526:	2a22      	cmp	r2, #34	; 0x22
 800d528:	d111      	bne.n	800d54e <I2C_ITError+0x42>
 800d52a:	6819      	ldr	r1, [r3, #0]
 800d52c:	f421 6100 	bic.w	r1, r1, #2048	; 0x800
 800d530:	6019      	str	r1, [r3, #0]
 800d532:	6859      	ldr	r1, [r3, #4]
 800d534:	f411 6100 	ands.w	r1, r1, #2048	; 0x800
 800d538:	d106      	bne.n	800d548 <I2C_ITError+0x3c>
 800d53a:	2a60      	cmp	r2, #96	; 0x60
 800d53c:	bf1e      	ittt	ne
 800d53e:	2220      	movne	r2, #32
 800d540:	f884 203d 	strbne.w	r2, [r4, #61]	; 0x3d
 800d544:	f884 103e 	strbne.w	r1, [r4, #62]	; 0x3e
 800d548:	2200      	movs	r2, #0
 800d54a:	6322      	str	r2, [r4, #48]	; 0x30
 800d54c:	e007      	b.n	800d55e <I2C_ITError+0x52>
 800d54e:	f002 0128 	and.w	r1, r2, #40	; 0x28
 800d552:	2928      	cmp	r1, #40	; 0x28
 800d554:	d1ed      	bne.n	800d532 <I2C_ITError+0x26>
 800d556:	2200      	movs	r2, #0
 800d558:	6322      	str	r2, [r4, #48]	; 0x30
 800d55a:	f884 103d 	strb.w	r1, [r4, #61]	; 0x3d
 800d55e:	685a      	ldr	r2, [r3, #4]
 800d560:	f412 6200 	ands.w	r2, r2, #2048	; 0x800
 800d564:	d04f      	beq.n	800d606 <I2C_ITError+0xfa>
 800d566:	685a      	ldr	r2, [r3, #4]
 800d568:	6b60      	ldr	r0, [r4, #52]	; 0x34
 800d56a:	f422 6200 	bic.w	r2, r2, #2048	; 0x800
 800d56e:	605a      	str	r2, [r3, #4]
 800d570:	f890 3035 	ldrb.w	r3, [r0, #53]	; 0x35
 800d574:	2b01      	cmp	r3, #1
 800d576:	4b37      	ldr	r3, [pc, #220]	; (800d654 <I2C_ITError+0x148>)
 800d578:	d02b      	beq.n	800d5d2 <I2C_ITError+0xc6>
 800d57a:	6503      	str	r3, [r0, #80]	; 0x50
 800d57c:	f7ff f9a6 	bl	800c8cc <HAL_DMA_Abort_IT>
 800d580:	b150      	cbz	r0, 800d598 <I2C_ITError+0x8c>
 800d582:	6822      	ldr	r2, [r4, #0]
 800d584:	6b60      	ldr	r0, [r4, #52]	; 0x34
 800d586:	6813      	ldr	r3, [r2, #0]
 800d588:	f023 0301 	bic.w	r3, r3, #1
 800d58c:	6013      	str	r3, [r2, #0]
 800d58e:	2320      	movs	r3, #32
 800d590:	f884 303d 	strb.w	r3, [r4, #61]	; 0x3d
 800d594:	6d03      	ldr	r3, [r0, #80]	; 0x50
 800d596:	4798      	blx	r3
 800d598:	6c23      	ldr	r3, [r4, #64]	; 0x40
 800d59a:	0719      	lsls	r1, r3, #28
 800d59c:	bf1f      	itttt	ne
 800d59e:	6822      	ldrne	r2, [r4, #0]
 800d5a0:	6853      	ldrne	r3, [r2, #4]
 800d5a2:	f423 63e0 	bicne.w	r3, r3, #1792	; 0x700
 800d5a6:	6053      	strne	r3, [r2, #4]
 800d5a8:	f894 303d 	ldrb.w	r3, [r4, #61]	; 0x3d
 800d5ac:	6c22      	ldr	r2, [r4, #64]	; 0x40
 800d5ae:	0752      	lsls	r2, r2, #29
 800d5b0:	b2db      	uxtb	r3, r3
 800d5b2:	d50d      	bpl.n	800d5d0 <I2C_ITError+0xc4>
 800d5b4:	2b28      	cmp	r3, #40	; 0x28
 800d5b6:	d10b      	bne.n	800d5d0 <I2C_ITError+0xc4>
 800d5b8:	4b27      	ldr	r3, [pc, #156]	; (800d658 <I2C_ITError+0x14c>)
 800d5ba:	62e3      	str	r3, [r4, #44]	; 0x2c
 800d5bc:	2220      	movs	r2, #32
 800d5be:	2300      	movs	r3, #0
 800d5c0:	6323      	str	r3, [r4, #48]	; 0x30
 800d5c2:	4620      	mov	r0, r4
 800d5c4:	f884 203d 	strb.w	r2, [r4, #61]	; 0x3d
 800d5c8:	f884 303e 	strb.w	r3, [r4, #62]	; 0x3e
 800d5cc:	f7ff fe42 	bl	800d254 <HAL_I2C_ListenCpltCallback>
 800d5d0:	bd10      	pop	{r4, pc}
 800d5d2:	6ba0      	ldr	r0, [r4, #56]	; 0x38
 800d5d4:	6503      	str	r3, [r0, #80]	; 0x50
 800d5d6:	f7ff f979 	bl	800c8cc <HAL_DMA_Abort_IT>
 800d5da:	2800      	cmp	r0, #0
 800d5dc:	d0dc      	beq.n	800d598 <I2C_ITError+0x8c>
 800d5de:	6823      	ldr	r3, [r4, #0]
 800d5e0:	695a      	ldr	r2, [r3, #20]
 800d5e2:	0651      	lsls	r1, r2, #25
 800d5e4:	d505      	bpl.n	800d5f2 <I2C_ITError+0xe6>
 800d5e6:	691a      	ldr	r2, [r3, #16]
 800d5e8:	6a63      	ldr	r3, [r4, #36]	; 0x24
 800d5ea:	701a      	strb	r2, [r3, #0]
 800d5ec:	6a63      	ldr	r3, [r4, #36]	; 0x24
 800d5ee:	3301      	adds	r3, #1
 800d5f0:	6263      	str	r3, [r4, #36]	; 0x24
 800d5f2:	6822      	ldr	r2, [r4, #0]
 800d5f4:	6ba0      	ldr	r0, [r4, #56]	; 0x38
 800d5f6:	6813      	ldr	r3, [r2, #0]
 800d5f8:	f023 0301 	bic.w	r3, r3, #1
 800d5fc:	6013      	str	r3, [r2, #0]
 800d5fe:	2320      	movs	r3, #32
 800d600:	f884 303d 	strb.w	r3, [r4, #61]	; 0x3d
 800d604:	e7c6      	b.n	800d594 <I2C_ITError+0x88>
 800d606:	f894 103d 	ldrb.w	r1, [r4, #61]	; 0x3d
 800d60a:	2960      	cmp	r1, #96	; 0x60
 800d60c:	d115      	bne.n	800d63a <I2C_ITError+0x12e>
 800d60e:	2120      	movs	r1, #32
 800d610:	f884 103d 	strb.w	r1, [r4, #61]	; 0x3d
 800d614:	6422      	str	r2, [r4, #64]	; 0x40
 800d616:	695a      	ldr	r2, [r3, #20]
 800d618:	0652      	lsls	r2, r2, #25
 800d61a:	d505      	bpl.n	800d628 <I2C_ITError+0x11c>
 800d61c:	691a      	ldr	r2, [r3, #16]
 800d61e:	6a63      	ldr	r3, [r4, #36]	; 0x24
 800d620:	701a      	strb	r2, [r3, #0]
 800d622:	6a63      	ldr	r3, [r4, #36]	; 0x24
 800d624:	3301      	adds	r3, #1
 800d626:	6263      	str	r3, [r4, #36]	; 0x24
 800d628:	6822      	ldr	r2, [r4, #0]
 800d62a:	6813      	ldr	r3, [r2, #0]
 800d62c:	f023 0301 	bic.w	r3, r3, #1
 800d630:	6013      	str	r3, [r2, #0]
 800d632:	4620      	mov	r0, r4
 800d634:	f7ff ff09 	bl	800d44a <HAL_I2C_AbortCpltCallback>
 800d638:	e7ae      	b.n	800d598 <I2C_ITError+0x8c>
 800d63a:	695a      	ldr	r2, [r3, #20]
 800d63c:	0650      	lsls	r0, r2, #25
 800d63e:	d505      	bpl.n	800d64c <I2C_ITError+0x140>
 800d640:	691a      	ldr	r2, [r3, #16]
 800d642:	6a63      	ldr	r3, [r4, #36]	; 0x24
 800d644:	701a      	strb	r2, [r3, #0]
 800d646:	6a63      	ldr	r3, [r4, #36]	; 0x24
 800d648:	3301      	adds	r3, #1
 800d64a:	6263      	str	r3, [r4, #36]	; 0x24
 800d64c:	4620      	mov	r0, r4
 800d64e:	f7ff fe55 	bl	800d2fc <HAL_I2C_ErrorCallback>
 800d652:	e7a1      	b.n	800d598 <I2C_ITError+0x8c>
 800d654:	0800d44d 	.word	0x0800d44d
 800d658:	ffff0000 	.word	0xffff0000

0800d65c <HAL_I2C_EV_IRQHandler>:
 800d65c:	b5f0      	push	{r4, r5, r6, r7, lr}
 800d65e:	6803      	ldr	r3, [r0, #0]
 800d660:	4604      	mov	r4, r0
 800d662:	685a      	ldr	r2, [r3, #4]
 800d664:	6ac6      	ldr	r6, [r0, #44]	; 0x2c
 800d666:	f890 003e 	ldrb.w	r0, [r0, #62]	; 0x3e
 800d66a:	f894 103d 	ldrb.w	r1, [r4, #61]	; 0x3d
 800d66e:	2810      	cmp	r0, #16
 800d670:	b08f      	sub	sp, #60	; 0x3c
 800d672:	b2c5      	uxtb	r5, r0
 800d674:	b2c9      	uxtb	r1, r1
 800d676:	d002      	beq.n	800d67e <HAL_I2C_EV_IRQHandler+0x22>
 800d678:	2d40      	cmp	r5, #64	; 0x40
 800d67a:	f040 82c0 	bne.w	800dbfe <HAL_I2C_EV_IRQHandler+0x5a2>
 800d67e:	699f      	ldr	r7, [r3, #24]
 800d680:	6958      	ldr	r0, [r3, #20]
 800d682:	f010 0f01 	tst.w	r0, #1
 800d686:	d107      	bne.n	800d698 <HAL_I2C_EV_IRQHandler+0x3c>
 800d688:	f5b6 0f2a 	cmp.w	r6, #11141120	; 0xaa0000
 800d68c:	d002      	beq.n	800d694 <HAL_I2C_EV_IRQHandler+0x38>
 800d68e:	f1b6 4f2a 	cmp.w	r6, #2852126720	; 0xaa000000
 800d692:	d151      	bne.n	800d738 <HAL_I2C_EV_IRQHandler+0xdc>
 800d694:	b00f      	add	sp, #60	; 0x3c
 800d696:	bdf0      	pop	{r4, r5, r6, r7, pc}
 800d698:	0596      	lsls	r6, r2, #22
 800d69a:	d54d      	bpl.n	800d738 <HAL_I2C_EV_IRQHandler+0xdc>
 800d69c:	6ae2      	ldr	r2, [r4, #44]	; 0x2c
 800d69e:	f5b2 0f2a 	cmp.w	r2, #11141120	; 0xaa0000
 800d6a2:	d10c      	bne.n	800d6be <HAL_I2C_EV_IRQHandler+0x62>
 800d6a4:	2201      	movs	r2, #1
 800d6a6:	62e2      	str	r2, [r4, #44]	; 0x2c
 800d6a8:	f894 203e 	ldrb.w	r2, [r4, #62]	; 0x3e
 800d6ac:	2a40      	cmp	r2, #64	; 0x40
 800d6ae:	d111      	bne.n	800d6d4 <HAL_I2C_EV_IRQHandler+0x78>
 800d6b0:	6d22      	ldr	r2, [r4, #80]	; 0x50
 800d6b2:	b952      	cbnz	r2, 800d6ca <HAL_I2C_EV_IRQHandler+0x6e>
 800d6b4:	6c62      	ldr	r2, [r4, #68]	; 0x44
 800d6b6:	f002 02fe 	and.w	r2, r2, #254	; 0xfe
 800d6ba:	611a      	str	r2, [r3, #16]
 800d6bc:	e7ea      	b.n	800d694 <HAL_I2C_EV_IRQHandler+0x38>
 800d6be:	6ae2      	ldr	r2, [r4, #44]	; 0x2c
 800d6c0:	f1b2 4f2a 	cmp.w	r2, #2852126720	; 0xaa000000
 800d6c4:	d1f0      	bne.n	800d6a8 <HAL_I2C_EV_IRQHandler+0x4c>
 800d6c6:	2208      	movs	r2, #8
 800d6c8:	e7ed      	b.n	800d6a6 <HAL_I2C_EV_IRQHandler+0x4a>
 800d6ca:	6c62      	ldr	r2, [r4, #68]	; 0x44
 800d6cc:	f042 0201 	orr.w	r2, r2, #1
 800d6d0:	b2d2      	uxtb	r2, r2
 800d6d2:	e7f2      	b.n	800d6ba <HAL_I2C_EV_IRQHandler+0x5e>
 800d6d4:	6922      	ldr	r2, [r4, #16]
 800d6d6:	f5b2 4f80 	cmp.w	r2, #16384	; 0x4000
 800d6da:	d11a      	bne.n	800d712 <HAL_I2C_EV_IRQHandler+0xb6>
 800d6dc:	f894 203d 	ldrb.w	r2, [r4, #61]	; 0x3d
 800d6e0:	2a21      	cmp	r2, #33	; 0x21
 800d6e2:	6c62      	ldr	r2, [r4, #68]	; 0x44
 800d6e4:	d111      	bne.n	800d70a <HAL_I2C_EV_IRQHandler+0xae>
 800d6e6:	f002 02fe 	and.w	r2, r2, #254	; 0xfe
 800d6ea:	611a      	str	r2, [r3, #16]
 800d6ec:	6b62      	ldr	r2, [r4, #52]	; 0x34
 800d6ee:	b10a      	cbz	r2, 800d6f4 <HAL_I2C_EV_IRQHandler+0x98>
 800d6f0:	6bd2      	ldr	r2, [r2, #60]	; 0x3c
 800d6f2:	b92a      	cbnz	r2, 800d700 <HAL_I2C_EV_IRQHandler+0xa4>
 800d6f4:	6ba2      	ldr	r2, [r4, #56]	; 0x38
 800d6f6:	2a00      	cmp	r2, #0
 800d6f8:	d0cc      	beq.n	800d694 <HAL_I2C_EV_IRQHandler+0x38>
 800d6fa:	6bd2      	ldr	r2, [r2, #60]	; 0x3c
 800d6fc:	2a00      	cmp	r2, #0
 800d6fe:	d0c9      	beq.n	800d694 <HAL_I2C_EV_IRQHandler+0x38>
 800d700:	685a      	ldr	r2, [r3, #4]
 800d702:	f442 6200 	orr.w	r2, r2, #2048	; 0x800
 800d706:	605a      	str	r2, [r3, #4]
 800d708:	e7c4      	b.n	800d694 <HAL_I2C_EV_IRQHandler+0x38>
 800d70a:	f042 0201 	orr.w	r2, r2, #1
 800d70e:	b2d2      	uxtb	r2, r2
 800d710:	e7eb      	b.n	800d6ea <HAL_I2C_EV_IRQHandler+0x8e>
 800d712:	6d22      	ldr	r2, [r4, #80]	; 0x50
 800d714:	b932      	cbnz	r2, 800d724 <HAL_I2C_EV_IRQHandler+0xc8>
 800d716:	6c62      	ldr	r2, [r4, #68]	; 0x44
 800d718:	11d2      	asrs	r2, r2, #7
 800d71a:	f002 0206 	and.w	r2, r2, #6
 800d71e:	f042 02f0 	orr.w	r2, r2, #240	; 0xf0
 800d722:	e7ca      	b.n	800d6ba <HAL_I2C_EV_IRQHandler+0x5e>
 800d724:	6d22      	ldr	r2, [r4, #80]	; 0x50
 800d726:	2a01      	cmp	r2, #1
 800d728:	d1b4      	bne.n	800d694 <HAL_I2C_EV_IRQHandler+0x38>
 800d72a:	6c62      	ldr	r2, [r4, #68]	; 0x44
 800d72c:	11d2      	asrs	r2, r2, #7
 800d72e:	f002 0206 	and.w	r2, r2, #6
 800d732:	f042 02f1 	orr.w	r2, r2, #241	; 0xf1
 800d736:	e7c0      	b.n	800d6ba <HAL_I2C_EV_IRQHandler+0x5e>
 800d738:	0706      	lsls	r6, r0, #28
 800d73a:	d503      	bpl.n	800d744 <HAL_I2C_EV_IRQHandler+0xe8>
 800d73c:	0596      	lsls	r6, r2, #22
 800d73e:	d501      	bpl.n	800d744 <HAL_I2C_EV_IRQHandler+0xe8>
 800d740:	6c62      	ldr	r2, [r4, #68]	; 0x44
 800d742:	e7e4      	b.n	800d70e <HAL_I2C_EV_IRQHandler+0xb2>
 800d744:	0786      	lsls	r6, r0, #30
 800d746:	f140 80dd 	bpl.w	800d904 <HAL_I2C_EV_IRQHandler+0x2a8>
 800d74a:	0596      	lsls	r6, r2, #22
 800d74c:	f140 80da 	bpl.w	800d904 <HAL_I2C_EV_IRQHandler+0x2a8>
 800d750:	f894 103e 	ldrb.w	r1, [r4, #62]	; 0x3e
 800d754:	6ae2      	ldr	r2, [r4, #44]	; 0x2c
 800d756:	6b25      	ldr	r5, [r4, #48]	; 0x30
 800d758:	f894 003d 	ldrb.w	r0, [r4, #61]	; 0x3d
 800d75c:	2822      	cmp	r0, #34	; 0x22
 800d75e:	b2c9      	uxtb	r1, r1
 800d760:	f040 80c8 	bne.w	800d8f4 <HAL_I2C_EV_IRQHandler+0x298>
 800d764:	6d20      	ldr	r0, [r4, #80]	; 0x50
 800d766:	b940      	cbnz	r0, 800d77a <HAL_I2C_EV_IRQHandler+0x11e>
 800d768:	2940      	cmp	r1, #64	; 0x40
 800d76a:	d106      	bne.n	800d77a <HAL_I2C_EV_IRQHandler+0x11e>
 800d76c:	9001      	str	r0, [sp, #4]
 800d76e:	695a      	ldr	r2, [r3, #20]
 800d770:	9201      	str	r2, [sp, #4]
 800d772:	699b      	ldr	r3, [r3, #24]
 800d774:	9301      	str	r3, [sp, #4]
 800d776:	9b01      	ldr	r3, [sp, #4]
 800d778:	e78c      	b.n	800d694 <HAL_I2C_EV_IRQHandler+0x38>
 800d77a:	6d21      	ldr	r1, [r4, #80]	; 0x50
 800d77c:	b989      	cbnz	r1, 800d7a2 <HAL_I2C_EV_IRQHandler+0x146>
 800d77e:	6920      	ldr	r0, [r4, #16]
 800d780:	f5b0 4f40 	cmp.w	r0, #49152	; 0xc000
 800d784:	d10d      	bne.n	800d7a2 <HAL_I2C_EV_IRQHandler+0x146>
 800d786:	9102      	str	r1, [sp, #8]
 800d788:	695a      	ldr	r2, [r3, #20]
 800d78a:	9202      	str	r2, [sp, #8]
 800d78c:	699a      	ldr	r2, [r3, #24]
 800d78e:	9202      	str	r2, [sp, #8]
 800d790:	9a02      	ldr	r2, [sp, #8]
 800d792:	681a      	ldr	r2, [r3, #0]
 800d794:	f442 7280 	orr.w	r2, r2, #256	; 0x100
 800d798:	601a      	str	r2, [r3, #0]
 800d79a:	6d23      	ldr	r3, [r4, #80]	; 0x50
 800d79c:	3301      	adds	r3, #1
 800d79e:	6523      	str	r3, [r4, #80]	; 0x50
 800d7a0:	e778      	b.n	800d694 <HAL_I2C_EV_IRQHandler+0x38>
 800d7a2:	8d61      	ldrh	r1, [r4, #42]	; 0x2a
 800d7a4:	b289      	uxth	r1, r1
 800d7a6:	b951      	cbnz	r1, 800d7be <HAL_I2C_EV_IRQHandler+0x162>
 800d7a8:	9103      	str	r1, [sp, #12]
 800d7aa:	695a      	ldr	r2, [r3, #20]
 800d7ac:	9203      	str	r2, [sp, #12]
 800d7ae:	699a      	ldr	r2, [r3, #24]
 800d7b0:	9203      	str	r2, [sp, #12]
 800d7b2:	9a03      	ldr	r2, [sp, #12]
 800d7b4:	681a      	ldr	r2, [r3, #0]
 800d7b6:	f442 7200 	orr.w	r2, r2, #512	; 0x200
 800d7ba:	601a      	str	r2, [r3, #0]
 800d7bc:	e019      	b.n	800d7f2 <HAL_I2C_EV_IRQHandler+0x196>
 800d7be:	8d61      	ldrh	r1, [r4, #42]	; 0x2a
 800d7c0:	b289      	uxth	r1, r1
 800d7c2:	2901      	cmp	r1, #1
 800d7c4:	d149      	bne.n	800d85a <HAL_I2C_EV_IRQHandler+0x1fe>
 800d7c6:	f512 3f80 	cmn.w	r2, #65536	; 0x10000
 800d7ca:	d11b      	bne.n	800d804 <HAL_I2C_EV_IRQHandler+0x1a8>
 800d7cc:	681a      	ldr	r2, [r3, #0]
 800d7ce:	f422 6280 	bic.w	r2, r2, #1024	; 0x400
 800d7d2:	601a      	str	r2, [r3, #0]
 800d7d4:	685a      	ldr	r2, [r3, #4]
 800d7d6:	f412 6200 	ands.w	r2, r2, #2048	; 0x800
 800d7da:	d00c      	beq.n	800d7f6 <HAL_I2C_EV_IRQHandler+0x19a>
 800d7dc:	681a      	ldr	r2, [r3, #0]
 800d7de:	f422 6280 	bic.w	r2, r2, #1024	; 0x400
 800d7e2:	601a      	str	r2, [r3, #0]
 800d7e4:	2200      	movs	r2, #0
 800d7e6:	9204      	str	r2, [sp, #16]
 800d7e8:	695a      	ldr	r2, [r3, #20]
 800d7ea:	9204      	str	r2, [sp, #16]
 800d7ec:	699b      	ldr	r3, [r3, #24]
 800d7ee:	9304      	str	r3, [sp, #16]
 800d7f0:	9b04      	ldr	r3, [sp, #16]
 800d7f2:	2300      	movs	r3, #0
 800d7f4:	e7d3      	b.n	800d79e <HAL_I2C_EV_IRQHandler+0x142>
 800d7f6:	9205      	str	r2, [sp, #20]
 800d7f8:	695a      	ldr	r2, [r3, #20]
 800d7fa:	9205      	str	r2, [sp, #20]
 800d7fc:	699a      	ldr	r2, [r3, #24]
 800d7fe:	9205      	str	r2, [sp, #20]
 800d800:	9a05      	ldr	r2, [sp, #20]
 800d802:	e7d7      	b.n	800d7b4 <HAL_I2C_EV_IRQHandler+0x158>
 800d804:	2a08      	cmp	r2, #8
 800d806:	d01c      	beq.n	800d842 <HAL_I2C_EV_IRQHandler+0x1e6>
 800d808:	2a20      	cmp	r2, #32
 800d80a:	d01a      	beq.n	800d842 <HAL_I2C_EV_IRQHandler+0x1e6>
 800d80c:	2d12      	cmp	r5, #18
 800d80e:	d10d      	bne.n	800d82c <HAL_I2C_EV_IRQHandler+0x1d0>
 800d810:	2a01      	cmp	r2, #1
 800d812:	d116      	bne.n	800d842 <HAL_I2C_EV_IRQHandler+0x1e6>
 800d814:	681a      	ldr	r2, [r3, #0]
 800d816:	f422 6280 	bic.w	r2, r2, #1024	; 0x400
 800d81a:	601a      	str	r2, [r3, #0]
 800d81c:	2200      	movs	r2, #0
 800d81e:	9206      	str	r2, [sp, #24]
 800d820:	695a      	ldr	r2, [r3, #20]
 800d822:	9206      	str	r2, [sp, #24]
 800d824:	699b      	ldr	r3, [r3, #24]
 800d826:	9306      	str	r3, [sp, #24]
 800d828:	9b06      	ldr	r3, [sp, #24]
 800d82a:	e7e2      	b.n	800d7f2 <HAL_I2C_EV_IRQHandler+0x196>
 800d82c:	2a10      	cmp	r2, #16
 800d82e:	d8f1      	bhi.n	800d814 <HAL_I2C_EV_IRQHandler+0x1b8>
 800d830:	4991      	ldr	r1, [pc, #580]	; (800da78 <HAL_I2C_EV_IRQHandler+0x41c>)
 800d832:	fa21 f202 	lsr.w	r2, r1, r2
 800d836:	07d7      	lsls	r7, r2, #31
 800d838:	d5ec      	bpl.n	800d814 <HAL_I2C_EV_IRQHandler+0x1b8>
 800d83a:	681a      	ldr	r2, [r3, #0]
 800d83c:	f442 6280 	orr.w	r2, r2, #1024	; 0x400
 800d840:	e7eb      	b.n	800d81a <HAL_I2C_EV_IRQHandler+0x1be>
 800d842:	681a      	ldr	r2, [r3, #0]
 800d844:	f422 6280 	bic.w	r2, r2, #1024	; 0x400
 800d848:	601a      	str	r2, [r3, #0]
 800d84a:	2200      	movs	r2, #0
 800d84c:	9207      	str	r2, [sp, #28]
 800d84e:	695a      	ldr	r2, [r3, #20]
 800d850:	9207      	str	r2, [sp, #28]
 800d852:	699a      	ldr	r2, [r3, #24]
 800d854:	9207      	str	r2, [sp, #28]
 800d856:	9a07      	ldr	r2, [sp, #28]
 800d858:	e7ac      	b.n	800d7b4 <HAL_I2C_EV_IRQHandler+0x158>
 800d85a:	8d61      	ldrh	r1, [r4, #42]	; 0x2a
 800d85c:	b289      	uxth	r1, r1
 800d85e:	2902      	cmp	r1, #2
 800d860:	d12a      	bne.n	800d8b8 <HAL_I2C_EV_IRQHandler+0x25c>
 800d862:	2a10      	cmp	r2, #16
 800d864:	d803      	bhi.n	800d86e <HAL_I2C_EV_IRQHandler+0x212>
 800d866:	4984      	ldr	r1, [pc, #528]	; (800da78 <HAL_I2C_EV_IRQHandler+0x41c>)
 800d868:	40d1      	lsrs	r1, r2
 800d86a:	07ce      	lsls	r6, r1, #31
 800d86c:	d420      	bmi.n	800d8b0 <HAL_I2C_EV_IRQHandler+0x254>
 800d86e:	6819      	ldr	r1, [r3, #0]
 800d870:	f421 6180 	bic.w	r1, r1, #1024	; 0x400
 800d874:	6019      	str	r1, [r3, #0]
 800d876:	6819      	ldr	r1, [r3, #0]
 800d878:	f441 6100 	orr.w	r1, r1, #2048	; 0x800
 800d87c:	6019      	str	r1, [r3, #0]
 800d87e:	6859      	ldr	r1, [r3, #4]
 800d880:	050d      	lsls	r5, r1, #20
 800d882:	d50d      	bpl.n	800d8a0 <HAL_I2C_EV_IRQHandler+0x244>
 800d884:	f512 3f80 	cmn.w	r2, #65536	; 0x10000
 800d888:	d006      	beq.n	800d898 <HAL_I2C_EV_IRQHandler+0x23c>
 800d88a:	1e51      	subs	r1, r2, #1
 800d88c:	291f      	cmp	r1, #31
 800d88e:	d807      	bhi.n	800d8a0 <HAL_I2C_EV_IRQHandler+0x244>
 800d890:	4a7a      	ldr	r2, [pc, #488]	; (800da7c <HAL_I2C_EV_IRQHandler+0x420>)
 800d892:	40ca      	lsrs	r2, r1
 800d894:	07d0      	lsls	r0, r2, #31
 800d896:	d503      	bpl.n	800d8a0 <HAL_I2C_EV_IRQHandler+0x244>
 800d898:	685a      	ldr	r2, [r3, #4]
 800d89a:	f442 5280 	orr.w	r2, r2, #4096	; 0x1000
 800d89e:	605a      	str	r2, [r3, #4]
 800d8a0:	2200      	movs	r2, #0
 800d8a2:	9208      	str	r2, [sp, #32]
 800d8a4:	695a      	ldr	r2, [r3, #20]
 800d8a6:	9208      	str	r2, [sp, #32]
 800d8a8:	699b      	ldr	r3, [r3, #24]
 800d8aa:	9308      	str	r3, [sp, #32]
 800d8ac:	9b08      	ldr	r3, [sp, #32]
 800d8ae:	e7a0      	b.n	800d7f2 <HAL_I2C_EV_IRQHandler+0x196>
 800d8b0:	6819      	ldr	r1, [r3, #0]
 800d8b2:	f441 6180 	orr.w	r1, r1, #1024	; 0x400
 800d8b6:	e7e1      	b.n	800d87c <HAL_I2C_EV_IRQHandler+0x220>
 800d8b8:	6819      	ldr	r1, [r3, #0]
 800d8ba:	f441 6180 	orr.w	r1, r1, #1024	; 0x400
 800d8be:	6019      	str	r1, [r3, #0]
 800d8c0:	6859      	ldr	r1, [r3, #4]
 800d8c2:	0509      	lsls	r1, r1, #20
 800d8c4:	d50e      	bpl.n	800d8e4 <HAL_I2C_EV_IRQHandler+0x288>
 800d8c6:	f512 3f80 	cmn.w	r2, #65536	; 0x10000
 800d8ca:	d007      	beq.n	800d8dc <HAL_I2C_EV_IRQHandler+0x280>
 800d8cc:	3a01      	subs	r2, #1
 800d8ce:	2a1f      	cmp	r2, #31
 800d8d0:	d808      	bhi.n	800d8e4 <HAL_I2C_EV_IRQHandler+0x288>
 800d8d2:	496a      	ldr	r1, [pc, #424]	; (800da7c <HAL_I2C_EV_IRQHandler+0x420>)
 800d8d4:	fa21 f202 	lsr.w	r2, r1, r2
 800d8d8:	07d2      	lsls	r2, r2, #31
 800d8da:	d503      	bpl.n	800d8e4 <HAL_I2C_EV_IRQHandler+0x288>
 800d8dc:	685a      	ldr	r2, [r3, #4]
 800d8de:	f442 5280 	orr.w	r2, r2, #4096	; 0x1000
 800d8e2:	605a      	str	r2, [r3, #4]
 800d8e4:	2200      	movs	r2, #0
 800d8e6:	9209      	str	r2, [sp, #36]	; 0x24
 800d8e8:	695a      	ldr	r2, [r3, #20]
 800d8ea:	9209      	str	r2, [sp, #36]	; 0x24
 800d8ec:	699b      	ldr	r3, [r3, #24]
 800d8ee:	9309      	str	r3, [sp, #36]	; 0x24
 800d8f0:	9b09      	ldr	r3, [sp, #36]	; 0x24
 800d8f2:	e77e      	b.n	800d7f2 <HAL_I2C_EV_IRQHandler+0x196>
 800d8f4:	2200      	movs	r2, #0
 800d8f6:	920a      	str	r2, [sp, #40]	; 0x28
 800d8f8:	695a      	ldr	r2, [r3, #20]
 800d8fa:	920a      	str	r2, [sp, #40]	; 0x28
 800d8fc:	699b      	ldr	r3, [r3, #24]
 800d8fe:	930a      	str	r3, [sp, #40]	; 0x28
 800d900:	9b0a      	ldr	r3, [sp, #40]	; 0x28
 800d902:	e6c7      	b.n	800d694 <HAL_I2C_EV_IRQHandler+0x38>
 800d904:	077f      	lsls	r7, r7, #29
 800d906:	f140 808d 	bpl.w	800da24 <HAL_I2C_EV_IRQHandler+0x3c8>
 800d90a:	685e      	ldr	r6, [r3, #4]
 800d90c:	0536      	lsls	r6, r6, #20
 800d90e:	f53f aec1 	bmi.w	800d694 <HAL_I2C_EV_IRQHandler+0x38>
 800d912:	0607      	lsls	r7, r0, #24
 800d914:	f3c0 0680 	ubfx	r6, r0, #2, #1
 800d918:	d53e      	bpl.n	800d998 <HAL_I2C_EV_IRQHandler+0x33c>
 800d91a:	0550      	lsls	r0, r2, #21
 800d91c:	d53c      	bpl.n	800d998 <HAL_I2C_EV_IRQHandler+0x33c>
 800d91e:	2e00      	cmp	r6, #0
 800d920:	d13d      	bne.n	800d99e <HAL_I2C_EV_IRQHandler+0x342>
 800d922:	f894 203d 	ldrb.w	r2, [r4, #61]	; 0x3d
 800d926:	8d25      	ldrh	r5, [r4, #40]	; 0x28
 800d928:	f894 103e 	ldrb.w	r1, [r4, #62]	; 0x3e
 800d92c:	6ae0      	ldr	r0, [r4, #44]	; 0x2c
 800d92e:	b2d2      	uxtb	r2, r2
 800d930:	b2c9      	uxtb	r1, r1
 800d932:	b9c5      	cbnz	r5, 800d966 <HAL_I2C_EV_IRQHandler+0x30a>
 800d934:	2a21      	cmp	r2, #33	; 0x21
 800d936:	d118      	bne.n	800d96a <HAL_I2C_EV_IRQHandler+0x30e>
 800d938:	2808      	cmp	r0, #8
 800d93a:	d058      	beq.n	800d9ee <HAL_I2C_EV_IRQHandler+0x392>
 800d93c:	2820      	cmp	r0, #32
 800d93e:	d056      	beq.n	800d9ee <HAL_I2C_EV_IRQHandler+0x392>
 800d940:	f510 3f80 	cmn.w	r0, #65536	; 0x10000
 800d944:	d053      	beq.n	800d9ee <HAL_I2C_EV_IRQHandler+0x392>
 800d946:	685a      	ldr	r2, [r3, #4]
 800d948:	f422 62e0 	bic.w	r2, r2, #1792	; 0x700
 800d94c:	605a      	str	r2, [r3, #4]
 800d94e:	2311      	movs	r3, #17
 800d950:	6323      	str	r3, [r4, #48]	; 0x30
 800d952:	2300      	movs	r3, #0
 800d954:	f884 303e 	strb.w	r3, [r4, #62]	; 0x3e
 800d958:	2320      	movs	r3, #32
 800d95a:	f884 303d 	strb.w	r3, [r4, #61]	; 0x3d
 800d95e:	4620      	mov	r0, r4
 800d960:	f7fe fb2e 	bl	800bfc0 <HAL_I2C_MasterTxCpltCallback>
 800d964:	e696      	b.n	800d694 <HAL_I2C_EV_IRQHandler+0x38>
 800d966:	2a21      	cmp	r2, #33	; 0x21
 800d968:	d005      	beq.n	800d976 <HAL_I2C_EV_IRQHandler+0x31a>
 800d96a:	2940      	cmp	r1, #64	; 0x40
 800d96c:	f47f ae92 	bne.w	800d694 <HAL_I2C_EV_IRQHandler+0x38>
 800d970:	2a22      	cmp	r2, #34	; 0x22
 800d972:	f47f ae8f 	bne.w	800d694 <HAL_I2C_EV_IRQHandler+0x38>
 800d976:	8d62      	ldrh	r2, [r4, #42]	; 0x2a
 800d978:	b292      	uxth	r2, r2
 800d97a:	b91a      	cbnz	r2, 800d984 <HAL_I2C_EV_IRQHandler+0x328>
 800d97c:	685a      	ldr	r2, [r3, #4]
 800d97e:	f422 6280 	bic.w	r2, r2, #1024	; 0x400
 800d982:	e6c0      	b.n	800d706 <HAL_I2C_EV_IRQHandler+0xaa>
 800d984:	f894 203e 	ldrb.w	r2, [r4, #62]	; 0x3e
 800d988:	2a40      	cmp	r2, #64	; 0x40
 800d98a:	d116      	bne.n	800d9ba <HAL_I2C_EV_IRQHandler+0x35e>
 800d98c:	4620      	mov	r0, r4
 800d98e:	b00f      	add	sp, #60	; 0x3c
 800d990:	e8bd 40f0 	ldmia.w	sp!, {r4, r5, r6, r7, lr}
 800d994:	f7ff bc60 	b.w	800d258 <I2C_MemoryTransmit_TXE_BTF>
 800d998:	2e00      	cmp	r6, #0
 800d99a:	f43f ae7b 	beq.w	800d694 <HAL_I2C_EV_IRQHandler+0x38>
 800d99e:	0597      	lsls	r7, r2, #22
 800d9a0:	f57f ae78 	bpl.w	800d694 <HAL_I2C_EV_IRQHandler+0x38>
 800d9a4:	2921      	cmp	r1, #33	; 0x21
 800d9a6:	d139      	bne.n	800da1c <HAL_I2C_EV_IRQHandler+0x3c0>
 800d9a8:	6ae1      	ldr	r1, [r4, #44]	; 0x2c
 800d9aa:	f894 203d 	ldrb.w	r2, [r4, #61]	; 0x3d
 800d9ae:	2a21      	cmp	r2, #33	; 0x21
 800d9b0:	f47f ae70 	bne.w	800d694 <HAL_I2C_EV_IRQHandler+0x38>
 800d9b4:	8d62      	ldrh	r2, [r4, #42]	; 0x2a
 800d9b6:	b292      	uxth	r2, r2
 800d9b8:	b14a      	cbz	r2, 800d9ce <HAL_I2C_EV_IRQHandler+0x372>
 800d9ba:	6a62      	ldr	r2, [r4, #36]	; 0x24
 800d9bc:	f812 1b01 	ldrb.w	r1, [r2], #1
 800d9c0:	6119      	str	r1, [r3, #16]
 800d9c2:	6262      	str	r2, [r4, #36]	; 0x24
 800d9c4:	8d63      	ldrh	r3, [r4, #42]	; 0x2a
 800d9c6:	3b01      	subs	r3, #1
 800d9c8:	b29b      	uxth	r3, r3
 800d9ca:	8563      	strh	r3, [r4, #42]	; 0x2a
 800d9cc:	e662      	b.n	800d694 <HAL_I2C_EV_IRQHandler+0x38>
 800d9ce:	2908      	cmp	r1, #8
 800d9d0:	d00d      	beq.n	800d9ee <HAL_I2C_EV_IRQHandler+0x392>
 800d9d2:	2920      	cmp	r1, #32
 800d9d4:	d00b      	beq.n	800d9ee <HAL_I2C_EV_IRQHandler+0x392>
 800d9d6:	f511 3f80 	cmn.w	r1, #65536	; 0x10000
 800d9da:	d008      	beq.n	800d9ee <HAL_I2C_EV_IRQHandler+0x392>
 800d9dc:	6859      	ldr	r1, [r3, #4]
 800d9de:	f421 61e0 	bic.w	r1, r1, #1792	; 0x700
 800d9e2:	6059      	str	r1, [r3, #4]
 800d9e4:	2311      	movs	r3, #17
 800d9e6:	6323      	str	r3, [r4, #48]	; 0x30
 800d9e8:	f884 203e 	strb.w	r2, [r4, #62]	; 0x3e
 800d9ec:	e7b4      	b.n	800d958 <HAL_I2C_EV_IRQHandler+0x2fc>
 800d9ee:	685a      	ldr	r2, [r3, #4]
 800d9f0:	f422 62e0 	bic.w	r2, r2, #1792	; 0x700
 800d9f4:	605a      	str	r2, [r3, #4]
 800d9f6:	681a      	ldr	r2, [r3, #0]
 800d9f8:	f442 7200 	orr.w	r2, r2, #512	; 0x200
 800d9fc:	601a      	str	r2, [r3, #0]
 800d9fe:	2300      	movs	r3, #0
 800da00:	2220      	movs	r2, #32
 800da02:	6323      	str	r3, [r4, #48]	; 0x30
 800da04:	f884 203d 	strb.w	r2, [r4, #61]	; 0x3d
 800da08:	f894 203e 	ldrb.w	r2, [r4, #62]	; 0x3e
 800da0c:	f884 303e 	strb.w	r3, [r4, #62]	; 0x3e
 800da10:	2a40      	cmp	r2, #64	; 0x40
 800da12:	4620      	mov	r0, r4
 800da14:	d1a4      	bne.n	800d960 <HAL_I2C_EV_IRQHandler+0x304>
 800da16:	f7ff fc1e 	bl	800d256 <HAL_I2C_MemTxCpltCallback>
 800da1a:	e63b      	b.n	800d694 <HAL_I2C_EV_IRQHandler+0x38>
 800da1c:	2d40      	cmp	r5, #64	; 0x40
 800da1e:	f47f ae39 	bne.w	800d694 <HAL_I2C_EV_IRQHandler+0x38>
 800da22:	e7b3      	b.n	800d98c <HAL_I2C_EV_IRQHandler+0x330>
 800da24:	6859      	ldr	r1, [r3, #4]
 800da26:	050e      	lsls	r6, r1, #20
 800da28:	f53f ae34 	bmi.w	800d694 <HAL_I2C_EV_IRQHandler+0x38>
 800da2c:	0645      	lsls	r5, r0, #25
 800da2e:	f3c0 0180 	ubfx	r1, r0, #2, #1
 800da32:	d57a      	bpl.n	800db2a <HAL_I2C_EV_IRQHandler+0x4ce>
 800da34:	0550      	lsls	r0, r2, #21
 800da36:	d578      	bpl.n	800db2a <HAL_I2C_EV_IRQHandler+0x4ce>
 800da38:	2900      	cmp	r1, #0
 800da3a:	d179      	bne.n	800db30 <HAL_I2C_EV_IRQHandler+0x4d4>
 800da3c:	f894 203d 	ldrb.w	r2, [r4, #61]	; 0x3d
 800da40:	2a22      	cmp	r2, #34	; 0x22
 800da42:	f47f ae27 	bne.w	800d694 <HAL_I2C_EV_IRQHandler+0x38>
 800da46:	8d62      	ldrh	r2, [r4, #42]	; 0x2a
 800da48:	b292      	uxth	r2, r2
 800da4a:	2a03      	cmp	r2, #3
 800da4c:	d918      	bls.n	800da80 <HAL_I2C_EV_IRQHandler+0x424>
 800da4e:	691a      	ldr	r2, [r3, #16]
 800da50:	6a63      	ldr	r3, [r4, #36]	; 0x24
 800da52:	701a      	strb	r2, [r3, #0]
 800da54:	6a63      	ldr	r3, [r4, #36]	; 0x24
 800da56:	3301      	adds	r3, #1
 800da58:	6263      	str	r3, [r4, #36]	; 0x24
 800da5a:	8d63      	ldrh	r3, [r4, #42]	; 0x2a
 800da5c:	3b01      	subs	r3, #1
 800da5e:	b29b      	uxth	r3, r3
 800da60:	8563      	strh	r3, [r4, #42]	; 0x2a
 800da62:	8d63      	ldrh	r3, [r4, #42]	; 0x2a
 800da64:	b29b      	uxth	r3, r3
 800da66:	2b03      	cmp	r3, #3
 800da68:	f47f ae14 	bne.w	800d694 <HAL_I2C_EV_IRQHandler+0x38>
 800da6c:	6822      	ldr	r2, [r4, #0]
 800da6e:	6853      	ldr	r3, [r2, #4]
 800da70:	f423 6380 	bic.w	r3, r3, #1024	; 0x400
 800da74:	6053      	str	r3, [r2, #4]
 800da76:	e60d      	b.n	800d694 <HAL_I2C_EV_IRQHandler+0x38>
 800da78:	00010014 	.word	0x00010014
 800da7c:	80008081 	.word	0x80008081
 800da80:	6ae0      	ldr	r0, [r4, #44]	; 0x2c
 800da82:	2802      	cmp	r0, #2
 800da84:	f43f af7a 	beq.w	800d97c <HAL_I2C_EV_IRQHandler+0x320>
 800da88:	2a01      	cmp	r2, #1
 800da8a:	f63f af77 	bhi.w	800d97c <HAL_I2C_EV_IRQHandler+0x320>
 800da8e:	4a75      	ldr	r2, [pc, #468]	; (800dc64 <HAL_I2C_EV_IRQHandler+0x608>)
 800da90:	910b      	str	r1, [sp, #44]	; 0x2c
 800da92:	6812      	ldr	r2, [r2, #0]
 800da94:	f246 11a8 	movw	r1, #25000	; 0x61a8
 800da98:	fbb2 f2f1 	udiv	r2, r2, r1
 800da9c:	eb02 0282 	add.w	r2, r2, r2, lsl #2
 800daa0:	920b      	str	r2, [sp, #44]	; 0x2c
 800daa2:	9a0b      	ldr	r2, [sp, #44]	; 0x2c
 800daa4:	3a01      	subs	r2, #1
 800daa6:	920b      	str	r2, [sp, #44]	; 0x2c
 800daa8:	990b      	ldr	r1, [sp, #44]	; 0x2c
 800daaa:	b9d1      	cbnz	r1, 800dae2 <HAL_I2C_EV_IRQHandler+0x486>
 800daac:	6c22      	ldr	r2, [r4, #64]	; 0x40
 800daae:	f042 0220 	orr.w	r2, r2, #32
 800dab2:	6422      	str	r2, [r4, #64]	; 0x40
 800dab4:	685a      	ldr	r2, [r3, #4]
 800dab6:	f422 62e0 	bic.w	r2, r2, #1792	; 0x700
 800daba:	605a      	str	r2, [r3, #4]
 800dabc:	691a      	ldr	r2, [r3, #16]
 800dabe:	6a63      	ldr	r3, [r4, #36]	; 0x24
 800dac0:	701a      	strb	r2, [r3, #0]
 800dac2:	6a63      	ldr	r3, [r4, #36]	; 0x24
 800dac4:	3301      	adds	r3, #1
 800dac6:	6263      	str	r3, [r4, #36]	; 0x24
 800dac8:	8d63      	ldrh	r3, [r4, #42]	; 0x2a
 800daca:	3b01      	subs	r3, #1
 800dacc:	b29b      	uxth	r3, r3
 800dace:	8563      	strh	r3, [r4, #42]	; 0x2a
 800dad0:	2320      	movs	r3, #32
 800dad2:	f884 303d 	strb.w	r3, [r4, #61]	; 0x3d
 800dad6:	4620      	mov	r0, r4
 800dad8:	f884 103e 	strb.w	r1, [r4, #62]	; 0x3e
 800dadc:	f7ff fc0e 	bl	800d2fc <HAL_I2C_ErrorCallback>
 800dae0:	e5d8      	b.n	800d694 <HAL_I2C_EV_IRQHandler+0x38>
 800dae2:	681a      	ldr	r2, [r3, #0]
 800dae4:	f412 7200 	ands.w	r2, r2, #512	; 0x200
 800dae8:	d1db      	bne.n	800daa2 <HAL_I2C_EV_IRQHandler+0x446>
 800daea:	6819      	ldr	r1, [r3, #0]
 800daec:	f421 6180 	bic.w	r1, r1, #1024	; 0x400
 800daf0:	6019      	str	r1, [r3, #0]
 800daf2:	6859      	ldr	r1, [r3, #4]
 800daf4:	f421 61e0 	bic.w	r1, r1, #1792	; 0x700
 800daf8:	6059      	str	r1, [r3, #4]
 800dafa:	6919      	ldr	r1, [r3, #16]
 800dafc:	6a63      	ldr	r3, [r4, #36]	; 0x24
 800dafe:	7019      	strb	r1, [r3, #0]
 800db00:	6a63      	ldr	r3, [r4, #36]	; 0x24
 800db02:	3301      	adds	r3, #1
 800db04:	6263      	str	r3, [r4, #36]	; 0x24
 800db06:	8d63      	ldrh	r3, [r4, #42]	; 0x2a
 800db08:	3b01      	subs	r3, #1
 800db0a:	b29b      	uxth	r3, r3
 800db0c:	8563      	strh	r3, [r4, #42]	; 0x2a
 800db0e:	2320      	movs	r3, #32
 800db10:	f884 303d 	strb.w	r3, [r4, #61]	; 0x3d
 800db14:	f894 303e 	ldrb.w	r3, [r4, #62]	; 0x3e
 800db18:	f884 203e 	strb.w	r2, [r4, #62]	; 0x3e
 800db1c:	2b40      	cmp	r3, #64	; 0x40
 800db1e:	d168      	bne.n	800dbf2 <HAL_I2C_EV_IRQHandler+0x596>
 800db20:	6322      	str	r2, [r4, #48]	; 0x30
 800db22:	4620      	mov	r0, r4
 800db24:	f7ff fbe9 	bl	800d2fa <HAL_I2C_MemRxCpltCallback>
 800db28:	e5b4      	b.n	800d694 <HAL_I2C_EV_IRQHandler+0x38>
 800db2a:	2900      	cmp	r1, #0
 800db2c:	f43f adb2 	beq.w	800d694 <HAL_I2C_EV_IRQHandler+0x38>
 800db30:	0592      	lsls	r2, r2, #22
 800db32:	f57f adaf 	bpl.w	800d694 <HAL_I2C_EV_IRQHandler+0x38>
 800db36:	6ae2      	ldr	r2, [r4, #44]	; 0x2c
 800db38:	8d60      	ldrh	r0, [r4, #42]	; 0x2a
 800db3a:	6a61      	ldr	r1, [r4, #36]	; 0x24
 800db3c:	b280      	uxth	r0, r0
 800db3e:	2804      	cmp	r0, #4
 800db40:	d109      	bne.n	800db56 <HAL_I2C_EV_IRQHandler+0x4fa>
 800db42:	685a      	ldr	r2, [r3, #4]
 800db44:	f422 6280 	bic.w	r2, r2, #1024	; 0x400
 800db48:	605a      	str	r2, [r3, #4]
 800db4a:	691b      	ldr	r3, [r3, #16]
 800db4c:	700b      	strb	r3, [r1, #0]
 800db4e:	6a63      	ldr	r3, [r4, #36]	; 0x24
 800db50:	3301      	adds	r3, #1
 800db52:	6263      	str	r3, [r4, #36]	; 0x24
 800db54:	e736      	b.n	800d9c4 <HAL_I2C_EV_IRQHandler+0x368>
 800db56:	8d60      	ldrh	r0, [r4, #42]	; 0x2a
 800db58:	b280      	uxth	r0, r0
 800db5a:	2803      	cmp	r0, #3
 800db5c:	d10c      	bne.n	800db78 <HAL_I2C_EV_IRQHandler+0x51c>
 800db5e:	6858      	ldr	r0, [r3, #4]
 800db60:	2a04      	cmp	r2, #4
 800db62:	f420 6080 	bic.w	r0, r0, #1024	; 0x400
 800db66:	6058      	str	r0, [r3, #4]
 800db68:	d0ef      	beq.n	800db4a <HAL_I2C_EV_IRQHandler+0x4ee>
 800db6a:	2a02      	cmp	r2, #2
 800db6c:	d0ed      	beq.n	800db4a <HAL_I2C_EV_IRQHandler+0x4ee>
 800db6e:	681a      	ldr	r2, [r3, #0]
 800db70:	f422 6280 	bic.w	r2, r2, #1024	; 0x400
 800db74:	601a      	str	r2, [r3, #0]
 800db76:	e7e8      	b.n	800db4a <HAL_I2C_EV_IRQHandler+0x4ee>
 800db78:	8d60      	ldrh	r0, [r4, #42]	; 0x2a
 800db7a:	b280      	uxth	r0, r0
 800db7c:	2802      	cmp	r0, #2
 800db7e:	d1e4      	bne.n	800db4a <HAL_I2C_EV_IRQHandler+0x4ee>
 800db80:	2a01      	cmp	r2, #1
 800db82:	d001      	beq.n	800db88 <HAL_I2C_EV_IRQHandler+0x52c>
 800db84:	2a10      	cmp	r2, #16
 800db86:	d128      	bne.n	800dbda <HAL_I2C_EV_IRQHandler+0x57e>
 800db88:	681a      	ldr	r2, [r3, #0]
 800db8a:	f422 6280 	bic.w	r2, r2, #1024	; 0x400
 800db8e:	601a      	str	r2, [r3, #0]
 800db90:	691b      	ldr	r3, [r3, #16]
 800db92:	700b      	strb	r3, [r1, #0]
 800db94:	6a62      	ldr	r2, [r4, #36]	; 0x24
 800db96:	1c53      	adds	r3, r2, #1
 800db98:	6263      	str	r3, [r4, #36]	; 0x24
 800db9a:	8d63      	ldrh	r3, [r4, #42]	; 0x2a
 800db9c:	3b01      	subs	r3, #1
 800db9e:	b29b      	uxth	r3, r3
 800dba0:	8563      	strh	r3, [r4, #42]	; 0x2a
 800dba2:	6823      	ldr	r3, [r4, #0]
 800dba4:	691b      	ldr	r3, [r3, #16]
 800dba6:	7053      	strb	r3, [r2, #1]
 800dba8:	6a63      	ldr	r3, [r4, #36]	; 0x24
 800dbaa:	6822      	ldr	r2, [r4, #0]
 800dbac:	3301      	adds	r3, #1
 800dbae:	6263      	str	r3, [r4, #36]	; 0x24
 800dbb0:	8d63      	ldrh	r3, [r4, #42]	; 0x2a
 800dbb2:	3b01      	subs	r3, #1
 800dbb4:	b29b      	uxth	r3, r3
 800dbb6:	8563      	strh	r3, [r4, #42]	; 0x2a
 800dbb8:	6853      	ldr	r3, [r2, #4]
 800dbba:	f423 7340 	bic.w	r3, r3, #768	; 0x300
 800dbbe:	6053      	str	r3, [r2, #4]
 800dbc0:	2320      	movs	r3, #32
 800dbc2:	f884 303d 	strb.w	r3, [r4, #61]	; 0x3d
 800dbc6:	f894 303e 	ldrb.w	r3, [r4, #62]	; 0x3e
 800dbca:	2b40      	cmp	r3, #64	; 0x40
 800dbcc:	f04f 0300 	mov.w	r3, #0
 800dbd0:	f884 303e 	strb.w	r3, [r4, #62]	; 0x3e
 800dbd4:	d10d      	bne.n	800dbf2 <HAL_I2C_EV_IRQHandler+0x596>
 800dbd6:	6323      	str	r3, [r4, #48]	; 0x30
 800dbd8:	e7a3      	b.n	800db22 <HAL_I2C_EV_IRQHandler+0x4c6>
 800dbda:	2a04      	cmp	r2, #4
 800dbdc:	d001      	beq.n	800dbe2 <HAL_I2C_EV_IRQHandler+0x586>
 800dbde:	2a02      	cmp	r2, #2
 800dbe0:	d103      	bne.n	800dbea <HAL_I2C_EV_IRQHandler+0x58e>
 800dbe2:	681a      	ldr	r2, [r3, #0]
 800dbe4:	f442 6280 	orr.w	r2, r2, #1024	; 0x400
 800dbe8:	e7d1      	b.n	800db8e <HAL_I2C_EV_IRQHandler+0x532>
 800dbea:	681a      	ldr	r2, [r3, #0]
 800dbec:	f442 7200 	orr.w	r2, r2, #512	; 0x200
 800dbf0:	e7cd      	b.n	800db8e <HAL_I2C_EV_IRQHandler+0x532>
 800dbf2:	2312      	movs	r3, #18
 800dbf4:	6323      	str	r3, [r4, #48]	; 0x30
 800dbf6:	4620      	mov	r0, r4
 800dbf8:	f7ff fb28 	bl	800d24c <HAL_I2C_MasterRxCpltCallback>
 800dbfc:	e54a      	b.n	800d694 <HAL_I2C_EV_IRQHandler+0x38>
 800dbfe:	6c20      	ldr	r0, [r4, #64]	; 0x40
 800dc00:	b310      	cbz	r0, 800dc48 <HAL_I2C_EV_IRQHandler+0x5ec>
 800dc02:	6958      	ldr	r0, [r3, #20]
 800dc04:	2500      	movs	r5, #0
 800dc06:	0787      	lsls	r7, r0, #30
 800dc08:	d52e      	bpl.n	800dc68 <HAL_I2C_EV_IRQHandler+0x60c>
 800dc0a:	0596      	lsls	r6, r2, #22
 800dc0c:	d52c      	bpl.n	800dc68 <HAL_I2C_EV_IRQHandler+0x60c>
 800dc0e:	6c22      	ldr	r2, [r4, #64]	; 0x40
 800dc10:	b102      	cbz	r2, 800dc14 <HAL_I2C_EV_IRQHandler+0x5b8>
 800dc12:	699d      	ldr	r5, [r3, #24]
 800dc14:	f894 203d 	ldrb.w	r2, [r4, #61]	; 0x3d
 800dc18:	f002 0228 	and.w	r2, r2, #40	; 0x28
 800dc1c:	2a28      	cmp	r2, #40	; 0x28
 800dc1e:	d116      	bne.n	800dc4e <HAL_I2C_EV_IRQHandler+0x5f2>
 800dc20:	685a      	ldr	r2, [r3, #4]
 800dc22:	f422 6280 	bic.w	r2, r2, #1024	; 0x400
 800dc26:	605a      	str	r2, [r3, #4]
 800dc28:	062f      	lsls	r7, r5, #24
 800dc2a:	ea6f 0195 	mvn.w	r1, r5, lsr #2
 800dc2e:	f04f 0300 	mov.w	r3, #0
 800dc32:	bf54      	ite	pl
 800dc34:	89a2      	ldrhpl	r2, [r4, #12]
 800dc36:	8b22      	ldrhmi	r2, [r4, #24]
 800dc38:	f884 303c 	strb.w	r3, [r4, #60]	; 0x3c
 800dc3c:	f001 0101 	and.w	r1, r1, #1
 800dc40:	4620      	mov	r0, r4
 800dc42:	f7ff fb06 	bl	800d252 <HAL_I2C_AddrCallback>
 800dc46:	e525      	b.n	800d694 <HAL_I2C_EV_IRQHandler+0x38>
 800dc48:	699d      	ldr	r5, [r3, #24]
 800dc4a:	6958      	ldr	r0, [r3, #20]
 800dc4c:	e7db      	b.n	800dc06 <HAL_I2C_EV_IRQHandler+0x5aa>
 800dc4e:	2200      	movs	r2, #0
 800dc50:	920c      	str	r2, [sp, #48]	; 0x30
 800dc52:	6959      	ldr	r1, [r3, #20]
 800dc54:	910c      	str	r1, [sp, #48]	; 0x30
 800dc56:	699b      	ldr	r3, [r3, #24]
 800dc58:	930c      	str	r3, [sp, #48]	; 0x30
 800dc5a:	9b0c      	ldr	r3, [sp, #48]	; 0x30
 800dc5c:	f884 203c 	strb.w	r2, [r4, #60]	; 0x3c
 800dc60:	e518      	b.n	800d694 <HAL_I2C_EV_IRQHandler+0x38>
 800dc62:	bf00      	nop
 800dc64:	20000000 	.word	0x20000000
 800dc68:	06c6      	lsls	r6, r0, #27
 800dc6a:	f140 80b1 	bpl.w	800ddd0 <HAL_I2C_EV_IRQHandler+0x774>
 800dc6e:	0595      	lsls	r5, r2, #22
 800dc70:	f140 80ae 	bpl.w	800ddd0 <HAL_I2C_EV_IRQHandler+0x774>
 800dc74:	f894 503d 	ldrb.w	r5, [r4, #61]	; 0x3d
 800dc78:	685a      	ldr	r2, [r3, #4]
 800dc7a:	f422 62e0 	bic.w	r2, r2, #1792	; 0x700
 800dc7e:	605a      	str	r2, [r3, #4]
 800dc80:	2200      	movs	r2, #0
 800dc82:	920d      	str	r2, [sp, #52]	; 0x34
 800dc84:	695a      	ldr	r2, [r3, #20]
 800dc86:	920d      	str	r2, [sp, #52]	; 0x34
 800dc88:	681a      	ldr	r2, [r3, #0]
 800dc8a:	f042 0201 	orr.w	r2, r2, #1
 800dc8e:	601a      	str	r2, [r3, #0]
 800dc90:	9a0d      	ldr	r2, [sp, #52]	; 0x34
 800dc92:	681a      	ldr	r2, [r3, #0]
 800dc94:	f422 6280 	bic.w	r2, r2, #1024	; 0x400
 800dc98:	601a      	str	r2, [r3, #0]
 800dc9a:	685a      	ldr	r2, [r3, #4]
 800dc9c:	0510      	lsls	r0, r2, #20
 800dc9e:	b2ed      	uxtb	r5, r5
 800dca0:	d520      	bpl.n	800dce4 <HAL_I2C_EV_IRQHandler+0x688>
 800dca2:	f005 02f7 	and.w	r2, r5, #247	; 0xf7
 800dca6:	2a22      	cmp	r2, #34	; 0x22
 800dca8:	d14a      	bne.n	800dd40 <HAL_I2C_EV_IRQHandler+0x6e4>
 800dcaa:	6ba0      	ldr	r0, [r4, #56]	; 0x38
 800dcac:	6802      	ldr	r2, [r0, #0]
 800dcae:	6852      	ldr	r2, [r2, #4]
 800dcb0:	b292      	uxth	r2, r2
 800dcb2:	8562      	strh	r2, [r4, #42]	; 0x2a
 800dcb4:	8d62      	ldrh	r2, [r4, #42]	; 0x2a
 800dcb6:	b292      	uxth	r2, r2
 800dcb8:	b11a      	cbz	r2, 800dcc2 <HAL_I2C_EV_IRQHandler+0x666>
 800dcba:	6c22      	ldr	r2, [r4, #64]	; 0x40
 800dcbc:	f042 0204 	orr.w	r2, r2, #4
 800dcc0:	6422      	str	r2, [r4, #64]	; 0x40
 800dcc2:	685a      	ldr	r2, [r3, #4]
 800dcc4:	f422 6200 	bic.w	r2, r2, #2048	; 0x800
 800dcc8:	605a      	str	r2, [r3, #4]
 800dcca:	f7fe fecf 	bl	800ca6c <HAL_DMA_GetState>
 800dcce:	2801      	cmp	r0, #1
 800dcd0:	d008      	beq.n	800dce4 <HAL_I2C_EV_IRQHandler+0x688>
 800dcd2:	6ba0      	ldr	r0, [r4, #56]	; 0x38
 800dcd4:	4b79      	ldr	r3, [pc, #484]	; (800debc <HAL_I2C_EV_IRQHandler+0x860>)
 800dcd6:	6503      	str	r3, [r0, #80]	; 0x50
 800dcd8:	f7fe fdf8 	bl	800c8cc <HAL_DMA_Abort_IT>
 800dcdc:	b110      	cbz	r0, 800dce4 <HAL_I2C_EV_IRQHandler+0x688>
 800dcde:	6ba0      	ldr	r0, [r4, #56]	; 0x38
 800dce0:	6d03      	ldr	r3, [r0, #80]	; 0x50
 800dce2:	4798      	blx	r3
 800dce4:	8d63      	ldrh	r3, [r4, #42]	; 0x2a
 800dce6:	b29b      	uxth	r3, r3
 800dce8:	b313      	cbz	r3, 800dd30 <HAL_I2C_EV_IRQHandler+0x6d4>
 800dcea:	6823      	ldr	r3, [r4, #0]
 800dcec:	695a      	ldr	r2, [r3, #20]
 800dcee:	0751      	lsls	r1, r2, #29
 800dcf0:	d509      	bpl.n	800dd06 <HAL_I2C_EV_IRQHandler+0x6aa>
 800dcf2:	691a      	ldr	r2, [r3, #16]
 800dcf4:	6a63      	ldr	r3, [r4, #36]	; 0x24
 800dcf6:	701a      	strb	r2, [r3, #0]
 800dcf8:	6a63      	ldr	r3, [r4, #36]	; 0x24
 800dcfa:	3301      	adds	r3, #1
 800dcfc:	6263      	str	r3, [r4, #36]	; 0x24
 800dcfe:	8d63      	ldrh	r3, [r4, #42]	; 0x2a
 800dd00:	3b01      	subs	r3, #1
 800dd02:	b29b      	uxth	r3, r3
 800dd04:	8563      	strh	r3, [r4, #42]	; 0x2a
 800dd06:	6823      	ldr	r3, [r4, #0]
 800dd08:	695a      	ldr	r2, [r3, #20]
 800dd0a:	0652      	lsls	r2, r2, #25
 800dd0c:	d509      	bpl.n	800dd22 <HAL_I2C_EV_IRQHandler+0x6c6>
 800dd0e:	691a      	ldr	r2, [r3, #16]
 800dd10:	6a63      	ldr	r3, [r4, #36]	; 0x24
 800dd12:	701a      	strb	r2, [r3, #0]
 800dd14:	6a63      	ldr	r3, [r4, #36]	; 0x24
 800dd16:	3301      	adds	r3, #1
 800dd18:	6263      	str	r3, [r4, #36]	; 0x24
 800dd1a:	8d63      	ldrh	r3, [r4, #42]	; 0x2a
 800dd1c:	3b01      	subs	r3, #1
 800dd1e:	b29b      	uxth	r3, r3
 800dd20:	8563      	strh	r3, [r4, #42]	; 0x2a
 800dd22:	8d63      	ldrh	r3, [r4, #42]	; 0x2a
 800dd24:	b29b      	uxth	r3, r3
 800dd26:	b11b      	cbz	r3, 800dd30 <HAL_I2C_EV_IRQHandler+0x6d4>
 800dd28:	6c23      	ldr	r3, [r4, #64]	; 0x40
 800dd2a:	f043 0304 	orr.w	r3, r3, #4
 800dd2e:	6423      	str	r3, [r4, #64]	; 0x40
 800dd30:	6c23      	ldr	r3, [r4, #64]	; 0x40
 800dd32:	b313      	cbz	r3, 800dd7a <HAL_I2C_EV_IRQHandler+0x71e>
 800dd34:	4620      	mov	r0, r4
 800dd36:	b00f      	add	sp, #60	; 0x3c
 800dd38:	e8bd 40f0 	ldmia.w	sp!, {r4, r5, r6, r7, lr}
 800dd3c:	f7ff bbe6 	b.w	800d50c <I2C_ITError>
 800dd40:	6b60      	ldr	r0, [r4, #52]	; 0x34
 800dd42:	6802      	ldr	r2, [r0, #0]
 800dd44:	6852      	ldr	r2, [r2, #4]
 800dd46:	b292      	uxth	r2, r2
 800dd48:	8562      	strh	r2, [r4, #42]	; 0x2a
 800dd4a:	8d62      	ldrh	r2, [r4, #42]	; 0x2a
 800dd4c:	b292      	uxth	r2, r2
 800dd4e:	b11a      	cbz	r2, 800dd58 <HAL_I2C_EV_IRQHandler+0x6fc>
 800dd50:	6c22      	ldr	r2, [r4, #64]	; 0x40
 800dd52:	f042 0204 	orr.w	r2, r2, #4
 800dd56:	6422      	str	r2, [r4, #64]	; 0x40
 800dd58:	685a      	ldr	r2, [r3, #4]
 800dd5a:	f422 6200 	bic.w	r2, r2, #2048	; 0x800
 800dd5e:	605a      	str	r2, [r3, #4]
 800dd60:	f7fe fe84 	bl	800ca6c <HAL_DMA_GetState>
 800dd64:	2801      	cmp	r0, #1
 800dd66:	d0bd      	beq.n	800dce4 <HAL_I2C_EV_IRQHandler+0x688>
 800dd68:	6b60      	ldr	r0, [r4, #52]	; 0x34
 800dd6a:	4b54      	ldr	r3, [pc, #336]	; (800debc <HAL_I2C_EV_IRQHandler+0x860>)
 800dd6c:	6503      	str	r3, [r0, #80]	; 0x50
 800dd6e:	f7fe fdad 	bl	800c8cc <HAL_DMA_Abort_IT>
 800dd72:	2800      	cmp	r0, #0
 800dd74:	d0b6      	beq.n	800dce4 <HAL_I2C_EV_IRQHandler+0x688>
 800dd76:	6b60      	ldr	r0, [r4, #52]	; 0x34
 800dd78:	e7b2      	b.n	800dce0 <HAL_I2C_EV_IRQHandler+0x684>
 800dd7a:	2d2a      	cmp	r5, #42	; 0x2a
 800dd7c:	d106      	bne.n	800dd8c <HAL_I2C_EV_IRQHandler+0x730>
 800dd7e:	6323      	str	r3, [r4, #48]	; 0x30
 800dd80:	2328      	movs	r3, #40	; 0x28
 800dd82:	f884 303d 	strb.w	r3, [r4, #61]	; 0x3d
 800dd86:	4620      	mov	r0, r4
 800dd88:	f7ff fa62 	bl	800d250 <HAL_I2C_SlaveRxCpltCallback>
 800dd8c:	f894 303d 	ldrb.w	r3, [r4, #61]	; 0x3d
 800dd90:	2b28      	cmp	r3, #40	; 0x28
 800dd92:	d10c      	bne.n	800ddae <HAL_I2C_EV_IRQHandler+0x752>
 800dd94:	4b4a      	ldr	r3, [pc, #296]	; (800dec0 <HAL_I2C_EV_IRQHandler+0x864>)
 800dd96:	62e3      	str	r3, [r4, #44]	; 0x2c
 800dd98:	2220      	movs	r2, #32
 800dd9a:	2300      	movs	r3, #0
 800dd9c:	6323      	str	r3, [r4, #48]	; 0x30
 800dd9e:	4620      	mov	r0, r4
 800dda0:	f884 203d 	strb.w	r2, [r4, #61]	; 0x3d
 800dda4:	f884 303e 	strb.w	r3, [r4, #62]	; 0x3e
 800dda8:	f7ff fa54 	bl	800d254 <HAL_I2C_ListenCpltCallback>
 800ddac:	e472      	b.n	800d694 <HAL_I2C_EV_IRQHandler+0x38>
 800ddae:	6b23      	ldr	r3, [r4, #48]	; 0x30
 800ddb0:	2b22      	cmp	r3, #34	; 0x22
 800ddb2:	d002      	beq.n	800ddba <HAL_I2C_EV_IRQHandler+0x75e>
 800ddb4:	2d22      	cmp	r5, #34	; 0x22
 800ddb6:	f47f ac6d 	bne.w	800d694 <HAL_I2C_EV_IRQHandler+0x38>
 800ddba:	2300      	movs	r3, #0
 800ddbc:	2220      	movs	r2, #32
 800ddbe:	6323      	str	r3, [r4, #48]	; 0x30
 800ddc0:	f884 203d 	strb.w	r2, [r4, #61]	; 0x3d
 800ddc4:	f884 303e 	strb.w	r3, [r4, #62]	; 0x3e
 800ddc8:	4620      	mov	r0, r4
 800ddca:	f7ff fa41 	bl	800d250 <HAL_I2C_SlaveRxCpltCallback>
 800ddce:	e461      	b.n	800d694 <HAL_I2C_EV_IRQHandler+0x38>
 800ddd0:	f001 01f7 	and.w	r1, r1, #247	; 0xf7
 800ddd4:	2921      	cmp	r1, #33	; 0x21
 800ddd6:	f3c0 0580 	ubfx	r5, r0, #2, #1
 800ddda:	d135      	bne.n	800de48 <HAL_I2C_EV_IRQHandler+0x7ec>
 800dddc:	0607      	lsls	r7, r0, #24
 800ddde:	d527      	bpl.n	800de30 <HAL_I2C_EV_IRQHandler+0x7d4>
 800dde0:	0556      	lsls	r6, r2, #21
 800dde2:	d525      	bpl.n	800de30 <HAL_I2C_EV_IRQHandler+0x7d4>
 800dde4:	bb3d      	cbnz	r5, 800de36 <HAL_I2C_EV_IRQHandler+0x7da>
 800dde6:	f894 003d 	ldrb.w	r0, [r4, #61]	; 0x3d
 800ddea:	8d62      	ldrh	r2, [r4, #42]	; 0x2a
 800ddec:	b292      	uxth	r2, r2
 800ddee:	b2c0      	uxtb	r0, r0
 800ddf0:	2a00      	cmp	r2, #0
 800ddf2:	f43f ac4f 	beq.w	800d694 <HAL_I2C_EV_IRQHandler+0x38>
 800ddf6:	6a62      	ldr	r2, [r4, #36]	; 0x24
 800ddf8:	f812 5b01 	ldrb.w	r5, [r2], #1
 800ddfc:	611d      	str	r5, [r3, #16]
 800ddfe:	6262      	str	r2, [r4, #36]	; 0x24
 800de00:	8d62      	ldrh	r2, [r4, #42]	; 0x2a
 800de02:	3a01      	subs	r2, #1
 800de04:	b292      	uxth	r2, r2
 800de06:	8562      	strh	r2, [r4, #42]	; 0x2a
 800de08:	8d62      	ldrh	r2, [r4, #42]	; 0x2a
 800de0a:	b292      	uxth	r2, r2
 800de0c:	2a00      	cmp	r2, #0
 800de0e:	f47f ac41 	bne.w	800d694 <HAL_I2C_EV_IRQHandler+0x38>
 800de12:	2829      	cmp	r0, #41	; 0x29
 800de14:	f47f ac3e 	bne.w	800d694 <HAL_I2C_EV_IRQHandler+0x38>
 800de18:	685a      	ldr	r2, [r3, #4]
 800de1a:	f422 6280 	bic.w	r2, r2, #1024	; 0x400
 800de1e:	605a      	str	r2, [r3, #4]
 800de20:	2328      	movs	r3, #40	; 0x28
 800de22:	6321      	str	r1, [r4, #48]	; 0x30
 800de24:	4620      	mov	r0, r4
 800de26:	f884 303d 	strb.w	r3, [r4, #61]	; 0x3d
 800de2a:	f7ff fa10 	bl	800d24e <HAL_I2C_SlaveTxCpltCallback>
 800de2e:	e431      	b.n	800d694 <HAL_I2C_EV_IRQHandler+0x38>
 800de30:	2d00      	cmp	r5, #0
 800de32:	f43f ac2f 	beq.w	800d694 <HAL_I2C_EV_IRQHandler+0x38>
 800de36:	0595      	lsls	r5, r2, #22
 800de38:	f57f ac2c 	bpl.w	800d694 <HAL_I2C_EV_IRQHandler+0x38>
 800de3c:	8d62      	ldrh	r2, [r4, #42]	; 0x2a
 800de3e:	b292      	uxth	r2, r2
 800de40:	2a00      	cmp	r2, #0
 800de42:	f43f ac27 	beq.w	800d694 <HAL_I2C_EV_IRQHandler+0x38>
 800de46:	e5b8      	b.n	800d9ba <HAL_I2C_EV_IRQHandler+0x35e>
 800de48:	0640      	lsls	r0, r0, #25
 800de4a:	d527      	bpl.n	800de9c <HAL_I2C_EV_IRQHandler+0x840>
 800de4c:	0551      	lsls	r1, r2, #21
 800de4e:	d525      	bpl.n	800de9c <HAL_I2C_EV_IRQHandler+0x840>
 800de50:	bb3d      	cbnz	r5, 800dea2 <HAL_I2C_EV_IRQHandler+0x846>
 800de52:	f894 203d 	ldrb.w	r2, [r4, #61]	; 0x3d
 800de56:	8d61      	ldrh	r1, [r4, #42]	; 0x2a
 800de58:	b289      	uxth	r1, r1
 800de5a:	b2d2      	uxtb	r2, r2
 800de5c:	2900      	cmp	r1, #0
 800de5e:	f43f ac19 	beq.w	800d694 <HAL_I2C_EV_IRQHandler+0x38>
 800de62:	6919      	ldr	r1, [r3, #16]
 800de64:	6a63      	ldr	r3, [r4, #36]	; 0x24
 800de66:	7019      	strb	r1, [r3, #0]
 800de68:	6a63      	ldr	r3, [r4, #36]	; 0x24
 800de6a:	3301      	adds	r3, #1
 800de6c:	6263      	str	r3, [r4, #36]	; 0x24
 800de6e:	8d63      	ldrh	r3, [r4, #42]	; 0x2a
 800de70:	3b01      	subs	r3, #1
 800de72:	b29b      	uxth	r3, r3
 800de74:	8563      	strh	r3, [r4, #42]	; 0x2a
 800de76:	8d63      	ldrh	r3, [r4, #42]	; 0x2a
 800de78:	b29b      	uxth	r3, r3
 800de7a:	2b00      	cmp	r3, #0
 800de7c:	f47f ac0a 	bne.w	800d694 <HAL_I2C_EV_IRQHandler+0x38>
 800de80:	2a2a      	cmp	r2, #42	; 0x2a
 800de82:	f47f ac07 	bne.w	800d694 <HAL_I2C_EV_IRQHandler+0x38>
 800de86:	6822      	ldr	r2, [r4, #0]
 800de88:	6853      	ldr	r3, [r2, #4]
 800de8a:	f423 6380 	bic.w	r3, r3, #1024	; 0x400
 800de8e:	6053      	str	r3, [r2, #4]
 800de90:	2322      	movs	r3, #34	; 0x22
 800de92:	6323      	str	r3, [r4, #48]	; 0x30
 800de94:	2328      	movs	r3, #40	; 0x28
 800de96:	f884 303d 	strb.w	r3, [r4, #61]	; 0x3d
 800de9a:	e795      	b.n	800ddc8 <HAL_I2C_EV_IRQHandler+0x76c>
 800de9c:	2d00      	cmp	r5, #0
 800de9e:	f43f abf9 	beq.w	800d694 <HAL_I2C_EV_IRQHandler+0x38>
 800dea2:	0592      	lsls	r2, r2, #22
 800dea4:	f57f abf6 	bpl.w	800d694 <HAL_I2C_EV_IRQHandler+0x38>
 800dea8:	8d62      	ldrh	r2, [r4, #42]	; 0x2a
 800deaa:	b292      	uxth	r2, r2
 800deac:	2a00      	cmp	r2, #0
 800deae:	f43f abf1 	beq.w	800d694 <HAL_I2C_EV_IRQHandler+0x38>
 800deb2:	691a      	ldr	r2, [r3, #16]
 800deb4:	6a63      	ldr	r3, [r4, #36]	; 0x24
 800deb6:	701a      	strb	r2, [r3, #0]
 800deb8:	e649      	b.n	800db4e <HAL_I2C_EV_IRQHandler+0x4f2>
 800deba:	bf00      	nop
 800debc:	0800d44d 	.word	0x0800d44d
 800dec0:	ffff0000 	.word	0xffff0000

0800dec4 <HAL_I2C_ER_IRQHandler>:
 800dec4:	b5f8      	push	{r3, r4, r5, r6, r7, lr}
 800dec6:	6803      	ldr	r3, [r0, #0]
 800dec8:	695f      	ldr	r7, [r3, #20]
 800deca:	685e      	ldr	r6, [r3, #4]
 800decc:	f890 203e 	ldrb.w	r2, [r0, #62]	; 0x3e
 800ded0:	4604      	mov	r4, r0
 800ded2:	05f8      	lsls	r0, r7, #23
 800ded4:	b2d2      	uxtb	r2, r2
 800ded6:	f3c7 2500 	ubfx	r5, r7, #8, #1
 800deda:	d508      	bpl.n	800deee <HAL_I2C_ER_IRQHandler+0x2a>
 800dedc:	05f1      	lsls	r1, r6, #23
 800dede:	bf48      	it	mi
 800dee0:	f46f 7180 	mvnmi.w	r1, #256	; 0x100
 800dee4:	f3c6 2500 	ubfx	r5, r6, #8, #1
 800dee8:	bf44      	itt	mi
 800deea:	6159      	strmi	r1, [r3, #20]
 800deec:	2501      	movmi	r5, #1
 800deee:	05b8      	lsls	r0, r7, #22
 800def0:	d506      	bpl.n	800df00 <HAL_I2C_ER_IRQHandler+0x3c>
 800def2:	05f1      	lsls	r1, r6, #23
 800def4:	bf42      	ittt	mi
 800def6:	f46f 7100 	mvnmi.w	r1, #512	; 0x200
 800defa:	f045 0502 	orrmi.w	r5, r5, #2
 800defe:	6159      	strmi	r1, [r3, #20]
 800df00:	0578      	lsls	r0, r7, #21
 800df02:	d536      	bpl.n	800df72 <HAL_I2C_ER_IRQHandler+0xae>
 800df04:	05f1      	lsls	r1, r6, #23
 800df06:	d534      	bpl.n	800df72 <HAL_I2C_ER_IRQHandler+0xae>
 800df08:	8d60      	ldrh	r0, [r4, #42]	; 0x2a
 800df0a:	f894 103d 	ldrb.w	r1, [r4, #61]	; 0x3d
 800df0e:	f8d4 c030 	ldr.w	ip, [r4, #48]	; 0x30
 800df12:	2a20      	cmp	r2, #32
 800df14:	b280      	uxth	r0, r0
 800df16:	b2c9      	uxtb	r1, r1
 800df18:	d15b      	bne.n	800dfd2 <HAL_I2C_ER_IRQHandler+0x10e>
 800df1a:	2800      	cmp	r0, #0
 800df1c:	d159      	bne.n	800dfd2 <HAL_I2C_ER_IRQHandler+0x10e>
 800df1e:	f001 00f7 	and.w	r0, r1, #247	; 0xf7
 800df22:	2821      	cmp	r0, #33	; 0x21
 800df24:	d004      	beq.n	800df30 <HAL_I2C_ER_IRQHandler+0x6c>
 800df26:	2928      	cmp	r1, #40	; 0x28
 800df28:	d153      	bne.n	800dfd2 <HAL_I2C_ER_IRQHandler+0x10e>
 800df2a:	f1bc 0f21 	cmp.w	ip, #33	; 0x21
 800df2e:	d150      	bne.n	800dfd2 <HAL_I2C_ER_IRQHandler+0x10e>
 800df30:	f894 203d 	ldrb.w	r2, [r4, #61]	; 0x3d
 800df34:	6ae1      	ldr	r1, [r4, #44]	; 0x2c
 800df36:	2908      	cmp	r1, #8
 800df38:	b2d2      	uxtb	r2, r2
 800df3a:	d001      	beq.n	800df40 <HAL_I2C_ER_IRQHandler+0x7c>
 800df3c:	2920      	cmp	r1, #32
 800df3e:	d12a      	bne.n	800df96 <HAL_I2C_ER_IRQHandler+0xd2>
 800df40:	2a28      	cmp	r2, #40	; 0x28
 800df42:	d128      	bne.n	800df96 <HAL_I2C_ER_IRQHandler+0xd2>
 800df44:	4a2b      	ldr	r2, [pc, #172]	; (800dff4 <HAL_I2C_ER_IRQHandler+0x130>)
 800df46:	62e2      	str	r2, [r4, #44]	; 0x2c
 800df48:	685a      	ldr	r2, [r3, #4]
 800df4a:	f422 62e0 	bic.w	r2, r2, #1792	; 0x700
 800df4e:	605a      	str	r2, [r3, #4]
 800df50:	f46f 6280 	mvn.w	r2, #1024	; 0x400
 800df54:	615a      	str	r2, [r3, #20]
 800df56:	681a      	ldr	r2, [r3, #0]
 800df58:	f422 6280 	bic.w	r2, r2, #1024	; 0x400
 800df5c:	601a      	str	r2, [r3, #0]
 800df5e:	2300      	movs	r3, #0
 800df60:	2220      	movs	r2, #32
 800df62:	6323      	str	r3, [r4, #48]	; 0x30
 800df64:	4620      	mov	r0, r4
 800df66:	f884 203d 	strb.w	r2, [r4, #61]	; 0x3d
 800df6a:	f884 303e 	strb.w	r3, [r4, #62]	; 0x3e
 800df6e:	f7ff f971 	bl	800d254 <HAL_I2C_ListenCpltCallback>
 800df72:	053a      	lsls	r2, r7, #20
 800df74:	d53b      	bpl.n	800dfee <HAL_I2C_ER_IRQHandler+0x12a>
 800df76:	05f3      	lsls	r3, r6, #23
 800df78:	d539      	bpl.n	800dfee <HAL_I2C_ER_IRQHandler+0x12a>
 800df7a:	6823      	ldr	r3, [r4, #0]
 800df7c:	f46f 6200 	mvn.w	r2, #2048	; 0x800
 800df80:	f045 0508 	orr.w	r5, r5, #8
 800df84:	615a      	str	r2, [r3, #20]
 800df86:	6c23      	ldr	r3, [r4, #64]	; 0x40
 800df88:	431d      	orrs	r5, r3
 800df8a:	6425      	str	r5, [r4, #64]	; 0x40
 800df8c:	4620      	mov	r0, r4
 800df8e:	e8bd 40f8 	ldmia.w	sp!, {r3, r4, r5, r6, r7, lr}
 800df92:	f7ff babb 	b.w	800d50c <I2C_ITError>
 800df96:	2a21      	cmp	r2, #33	; 0x21
 800df98:	d117      	bne.n	800dfca <HAL_I2C_ER_IRQHandler+0x106>
 800df9a:	4916      	ldr	r1, [pc, #88]	; (800dff4 <HAL_I2C_ER_IRQHandler+0x130>)
 800df9c:	62e1      	str	r1, [r4, #44]	; 0x2c
 800df9e:	6322      	str	r2, [r4, #48]	; 0x30
 800dfa0:	2220      	movs	r2, #32
 800dfa2:	f884 203d 	strb.w	r2, [r4, #61]	; 0x3d
 800dfa6:	2200      	movs	r2, #0
 800dfa8:	f884 203e 	strb.w	r2, [r4, #62]	; 0x3e
 800dfac:	685a      	ldr	r2, [r3, #4]
 800dfae:	f422 62e0 	bic.w	r2, r2, #1792	; 0x700
 800dfb2:	605a      	str	r2, [r3, #4]
 800dfb4:	f46f 6280 	mvn.w	r2, #1024	; 0x400
 800dfb8:	615a      	str	r2, [r3, #20]
 800dfba:	681a      	ldr	r2, [r3, #0]
 800dfbc:	f422 6280 	bic.w	r2, r2, #1024	; 0x400
 800dfc0:	601a      	str	r2, [r3, #0]
 800dfc2:	4620      	mov	r0, r4
 800dfc4:	f7ff f943 	bl	800d24e <HAL_I2C_SlaveTxCpltCallback>
 800dfc8:	e7d3      	b.n	800df72 <HAL_I2C_ER_IRQHandler+0xae>
 800dfca:	f46f 6280 	mvn.w	r2, #1024	; 0x400
 800dfce:	615a      	str	r2, [r3, #20]
 800dfd0:	e7cf      	b.n	800df72 <HAL_I2C_ER_IRQHandler+0xae>
 800dfd2:	f46f 6180 	mvn.w	r1, #1024	; 0x400
 800dfd6:	2a10      	cmp	r2, #16
 800dfd8:	6159      	str	r1, [r3, #20]
 800dfda:	f045 0504 	orr.w	r5, r5, #4
 800dfde:	d001      	beq.n	800dfe4 <HAL_I2C_ER_IRQHandler+0x120>
 800dfe0:	2a40      	cmp	r2, #64	; 0x40
 800dfe2:	d1c6      	bne.n	800df72 <HAL_I2C_ER_IRQHandler+0xae>
 800dfe4:	681a      	ldr	r2, [r3, #0]
 800dfe6:	f442 7200 	orr.w	r2, r2, #512	; 0x200
 800dfea:	601a      	str	r2, [r3, #0]
 800dfec:	e7c1      	b.n	800df72 <HAL_I2C_ER_IRQHandler+0xae>
 800dfee:	2d00      	cmp	r5, #0
 800dff0:	d1c9      	bne.n	800df86 <HAL_I2C_ER_IRQHandler+0xc2>
 800dff2:	bdf8      	pop	{r3, r4, r5, r6, r7, pc}
 800dff4:	ffff0000 	.word	0xffff0000

0800dff8 <HAL_PCD_Init>:
 800dff8:	b5f0      	push	{r4, r5, r6, r7, lr}
 800dffa:	4604      	mov	r4, r0
 800dffc:	b08b      	sub	sp, #44	; 0x2c
 800dffe:	b360      	cbz	r0, 800e05a <HAL_PCD_Init+0x62>
 800e000:	f890 34bd 	ldrb.w	r3, [r0, #1213]	; 0x4bd
 800e004:	6805      	ldr	r5, [r0, #0]
 800e006:	f003 02ff 	and.w	r2, r3, #255	; 0xff
 800e00a:	b91b      	cbnz	r3, 800e014 <HAL_PCD_Init+0x1c>
 800e00c:	f880 24bc 	strb.w	r2, [r0, #1212]	; 0x4bc
 800e010:	f005 fed4 	bl	8013dbc <HAL_PCD_MspInit>
 800e014:	2303      	movs	r3, #3
 800e016:	f884 34bd 	strb.w	r3, [r4, #1213]	; 0x4bd
 800e01a:	6beb      	ldr	r3, [r5, #60]	; 0x3c
 800e01c:	4625      	mov	r5, r4
 800e01e:	f413 7380 	ands.w	r3, r3, #256	; 0x100
 800e022:	f855 0b10 	ldr.w	r0, [r5], #16
 800e026:	bf08      	it	eq
 800e028:	6123      	streq	r3, [r4, #16]
 800e02a:	f002 f981 	bl	8010330 <USB_DisableGlobalInt>
 800e02e:	cd0f      	ldmia	r5!, {r0, r1, r2, r3}
 800e030:	466e      	mov	r6, sp
 800e032:	c60f      	stmia	r6!, {r0, r1, r2, r3}
 800e034:	cd0f      	ldmia	r5!, {r0, r1, r2, r3}
 800e036:	c60f      	stmia	r6!, {r0, r1, r2, r3}
 800e038:	e895 0003 	ldmia.w	r5, {r0, r1}
 800e03c:	e886 0003 	stmia.w	r6, {r0, r1}
 800e040:	4625      	mov	r5, r4
 800e042:	1d27      	adds	r7, r4, #4
 800e044:	e897 000e 	ldmia.w	r7, {r1, r2, r3}
 800e048:	f855 0b10 	ldr.w	r0, [r5], #16
 800e04c:	f002 f8ba 	bl	80101c4 <USB_CoreInit>
 800e050:	4606      	mov	r6, r0
 800e052:	b120      	cbz	r0, 800e05e <HAL_PCD_Init+0x66>
 800e054:	2302      	movs	r3, #2
 800e056:	f884 34bd 	strb.w	r3, [r4, #1213]	; 0x4bd
 800e05a:	2501      	movs	r5, #1
 800e05c:	e04e      	b.n	800e0fc <HAL_PCD_Init+0x104>
 800e05e:	4601      	mov	r1, r0
 800e060:	6820      	ldr	r0, [r4, #0]
 800e062:	f002 f96b 	bl	801033c <USB_SetCurrentMode>
 800e066:	4630      	mov	r0, r6
 800e068:	f8d4 c004 	ldr.w	ip, [r4, #4]
 800e06c:	2624      	movs	r6, #36	; 0x24
 800e06e:	f04f 0e01 	mov.w	lr, #1
 800e072:	4601      	mov	r1, r0
 800e074:	b2c2      	uxtb	r2, r0
 800e076:	4594      	cmp	ip, r2
 800e078:	f100 0001 	add.w	r0, r0, #1
 800e07c:	d81c      	bhi.n	800e0b8 <HAL_PCD_Init+0xc0>
 800e07e:	2300      	movs	r3, #0
 800e080:	2624      	movs	r6, #36	; 0x24
 800e082:	4619      	mov	r1, r3
 800e084:	b2d8      	uxtb	r0, r3
 800e086:	4584      	cmp	ip, r0
 800e088:	f103 0301 	add.w	r3, r3, #1
 800e08c:	d822      	bhi.n	800e0d4 <HAL_PCD_Init+0xdc>
 800e08e:	cd0f      	ldmia	r5!, {r0, r1, r2, r3}
 800e090:	466e      	mov	r6, sp
 800e092:	c60f      	stmia	r6!, {r0, r1, r2, r3}
 800e094:	cd0f      	ldmia	r5!, {r0, r1, r2, r3}
 800e096:	c60f      	stmia	r6!, {r0, r1, r2, r3}
 800e098:	e895 0003 	ldmia.w	r5, {r0, r1}
 800e09c:	e886 0003 	stmia.w	r6, {r0, r1}
 800e0a0:	e897 000e 	ldmia.w	r7, {r1, r2, r3}
 800e0a4:	6820      	ldr	r0, [r4, #0]
 800e0a6:	f002 f9cb 	bl	8010440 <USB_DevInit>
 800e0aa:	2301      	movs	r3, #1
 800e0ac:	4605      	mov	r5, r0
 800e0ae:	b1f0      	cbz	r0, 800e0ee <HAL_PCD_Init+0xf6>
 800e0b0:	2202      	movs	r2, #2
 800e0b2:	f884 24bd 	strb.w	r2, [r4, #1213]	; 0x4bd
 800e0b6:	e7d0      	b.n	800e05a <HAL_PCD_Init+0x62>
 800e0b8:	fb06 4302 	mla	r3, r6, r2, r4
 800e0bc:	e9c3 1112 	strd	r1, r1, [r3, #72]	; 0x48
 800e0c0:	f883 e03d 	strb.w	lr, [r3, #61]	; 0x3d
 800e0c4:	f883 203c 	strb.w	r2, [r3, #60]	; 0x3c
 800e0c8:	f8a3 2044 	strh.w	r2, [r3, #68]	; 0x44
 800e0cc:	f883 1040 	strb.w	r1, [r3, #64]	; 0x40
 800e0d0:	6559      	str	r1, [r3, #84]	; 0x54
 800e0d2:	e7cf      	b.n	800e074 <HAL_PCD_Init+0x7c>
 800e0d4:	fb06 4200 	mla	r2, r6, r0, r4
 800e0d8:	e9c2 11a2 	strd	r1, r1, [r2, #648]	; 0x288
 800e0dc:	f882 127d 	strb.w	r1, [r2, #637]	; 0x27d
 800e0e0:	f882 027c 	strb.w	r0, [r2, #636]	; 0x27c
 800e0e4:	f882 1280 	strb.w	r1, [r2, #640]	; 0x280
 800e0e8:	f8c2 1294 	str.w	r1, [r2, #660]	; 0x294
 800e0ec:	e7ca      	b.n	800e084 <HAL_PCD_Init+0x8c>
 800e0ee:	f884 0038 	strb.w	r0, [r4, #56]	; 0x38
 800e0f2:	6820      	ldr	r0, [r4, #0]
 800e0f4:	f884 34bd 	strb.w	r3, [r4, #1213]	; 0x4bd
 800e0f8:	f002 fd4a 	bl	8010b90 <USB_DevDisconnect>
 800e0fc:	4628      	mov	r0, r5
 800e0fe:	b00b      	add	sp, #44	; 0x2c
 800e100:	bdf0      	pop	{r4, r5, r6, r7, pc}

0800e102 <HAL_PCD_Start>:
 800e102:	b510      	push	{r4, lr}
 800e104:	4604      	mov	r4, r0
 800e106:	6800      	ldr	r0, [r0, #0]
 800e108:	f894 34bc 	ldrb.w	r3, [r4, #1212]	; 0x4bc
 800e10c:	2b01      	cmp	r3, #1
 800e10e:	d015      	beq.n	800e13c <HAL_PCD_Start+0x3a>
 800e110:	2301      	movs	r3, #1
 800e112:	f884 34bc 	strb.w	r3, [r4, #1212]	; 0x4bc
 800e116:	6aa3      	ldr	r3, [r4, #40]	; 0x28
 800e118:	2b01      	cmp	r3, #1
 800e11a:	d106      	bne.n	800e12a <HAL_PCD_Start+0x28>
 800e11c:	69a3      	ldr	r3, [r4, #24]
 800e11e:	2b01      	cmp	r3, #1
 800e120:	bf1e      	ittt	ne
 800e122:	6b83      	ldrne	r3, [r0, #56]	; 0x38
 800e124:	f443 3380 	orrne.w	r3, r3, #65536	; 0x10000
 800e128:	6383      	strne	r3, [r0, #56]	; 0x38
 800e12a:	f002 f8fb 	bl	8010324 <USB_EnableGlobalInt>
 800e12e:	6820      	ldr	r0, [r4, #0]
 800e130:	f002 fd20 	bl	8010b74 <USB_DevConnect>
 800e134:	2000      	movs	r0, #0
 800e136:	f884 04bc 	strb.w	r0, [r4, #1212]	; 0x4bc
 800e13a:	bd10      	pop	{r4, pc}
 800e13c:	2002      	movs	r0, #2
 800e13e:	e7fc      	b.n	800e13a <HAL_PCD_Start+0x38>

0800e140 <HAL_PCD_SetAddress>:
 800e140:	b510      	push	{r4, lr}
 800e142:	f890 24bc 	ldrb.w	r2, [r0, #1212]	; 0x4bc
 800e146:	2a01      	cmp	r2, #1
 800e148:	4604      	mov	r4, r0
 800e14a:	d00b      	beq.n	800e164 <HAL_PCD_SetAddress+0x24>
 800e14c:	2201      	movs	r2, #1
 800e14e:	f880 24bc 	strb.w	r2, [r0, #1212]	; 0x4bc
 800e152:	f880 1038 	strb.w	r1, [r0, #56]	; 0x38
 800e156:	6800      	ldr	r0, [r0, #0]
 800e158:	f002 fcfc 	bl	8010b54 <USB_SetDevAddress>
 800e15c:	2000      	movs	r0, #0
 800e15e:	f884 04bc 	strb.w	r0, [r4, #1212]	; 0x4bc
 800e162:	bd10      	pop	{r4, pc}
 800e164:	2002      	movs	r0, #2
 800e166:	e7fc      	b.n	800e162 <HAL_PCD_SetAddress+0x22>

0800e168 <HAL_PCD_EP_Open>:
 800e168:	b570      	push	{r4, r5, r6, lr}
 800e16a:	f001 060f 	and.w	r6, r1, #15
 800e16e:	eb06 04c6 	add.w	r4, r6, r6, lsl #3
 800e172:	f011 0f80 	tst.w	r1, #128	; 0x80
 800e176:	4605      	mov	r5, r0
 800e178:	ea4f 0484 	mov.w	r4, r4, lsl #2
 800e17c:	f04f 0024 	mov.w	r0, #36	; 0x24
 800e180:	d01f      	beq.n	800e1c2 <HAL_PCD_EP_Open+0x5a>
 800e182:	fb00 5006 	mla	r0, r0, r6, r5
 800e186:	f104 013c 	add.w	r1, r4, #60	; 0x3c
 800e18a:	2401      	movs	r4, #1
 800e18c:	4429      	add	r1, r5
 800e18e:	f880 403d 	strb.w	r4, [r0, #61]	; 0x3d
 800e192:	60ca      	str	r2, [r1, #12]
 800e194:	784a      	ldrb	r2, [r1, #1]
 800e196:	700e      	strb	r6, [r1, #0]
 800e198:	710b      	strb	r3, [r1, #4]
 800e19a:	b102      	cbz	r2, 800e19e <HAL_PCD_EP_Open+0x36>
 800e19c:	810e      	strh	r6, [r1, #8]
 800e19e:	2b02      	cmp	r3, #2
 800e1a0:	bf04      	itt	eq
 800e1a2:	2300      	moveq	r3, #0
 800e1a4:	714b      	strbeq	r3, [r1, #5]
 800e1a6:	f895 34bc 	ldrb.w	r3, [r5, #1212]	; 0x4bc
 800e1aa:	2b01      	cmp	r3, #1
 800e1ac:	d012      	beq.n	800e1d4 <HAL_PCD_EP_Open+0x6c>
 800e1ae:	2301      	movs	r3, #1
 800e1b0:	6828      	ldr	r0, [r5, #0]
 800e1b2:	f885 34bc 	strb.w	r3, [r5, #1212]	; 0x4bc
 800e1b6:	f002 fa06 	bl	80105c6 <USB_ActivateEndpoint>
 800e1ba:	2000      	movs	r0, #0
 800e1bc:	f885 04bc 	strb.w	r0, [r5, #1212]	; 0x4bc
 800e1c0:	bd70      	pop	{r4, r5, r6, pc}
 800e1c2:	fb00 5006 	mla	r0, r0, r6, r5
 800e1c6:	f504 711f 	add.w	r1, r4, #636	; 0x27c
 800e1ca:	2400      	movs	r4, #0
 800e1cc:	4429      	add	r1, r5
 800e1ce:	f880 427d 	strb.w	r4, [r0, #637]	; 0x27d
 800e1d2:	e7de      	b.n	800e192 <HAL_PCD_EP_Open+0x2a>
 800e1d4:	2002      	movs	r0, #2
 800e1d6:	e7f3      	b.n	800e1c0 <HAL_PCD_EP_Open+0x58>

0800e1d8 <HAL_PCD_EP_Close>:
 800e1d8:	b510      	push	{r4, lr}
 800e1da:	4604      	mov	r4, r0
 800e1dc:	f001 000f 	and.w	r0, r1, #15
 800e1e0:	eb00 03c0 	add.w	r3, r0, r0, lsl #3
 800e1e4:	f011 0f80 	tst.w	r1, #128	; 0x80
 800e1e8:	ea4f 0383 	mov.w	r3, r3, lsl #2
 800e1ec:	f04f 0224 	mov.w	r2, #36	; 0x24
 800e1f0:	d016      	beq.n	800e220 <HAL_PCD_EP_Close+0x48>
 800e1f2:	fb02 4200 	mla	r2, r2, r0, r4
 800e1f6:	f103 013c 	add.w	r1, r3, #60	; 0x3c
 800e1fa:	2301      	movs	r3, #1
 800e1fc:	4421      	add	r1, r4
 800e1fe:	f882 303d 	strb.w	r3, [r2, #61]	; 0x3d
 800e202:	7008      	strb	r0, [r1, #0]
 800e204:	f894 34bc 	ldrb.w	r3, [r4, #1212]	; 0x4bc
 800e208:	2b01      	cmp	r3, #1
 800e20a:	d012      	beq.n	800e232 <HAL_PCD_EP_Close+0x5a>
 800e20c:	2301      	movs	r3, #1
 800e20e:	6820      	ldr	r0, [r4, #0]
 800e210:	f884 34bc 	strb.w	r3, [r4, #1212]	; 0x4bc
 800e214:	f002 fa16 	bl	8010644 <USB_DeactivateEndpoint>
 800e218:	2000      	movs	r0, #0
 800e21a:	f884 04bc 	strb.w	r0, [r4, #1212]	; 0x4bc
 800e21e:	bd10      	pop	{r4, pc}
 800e220:	fb02 4200 	mla	r2, r2, r0, r4
 800e224:	f503 711f 	add.w	r1, r3, #636	; 0x27c
 800e228:	2300      	movs	r3, #0
 800e22a:	4421      	add	r1, r4
 800e22c:	f882 327d 	strb.w	r3, [r2, #637]	; 0x27d
 800e230:	e7e7      	b.n	800e202 <HAL_PCD_EP_Close+0x2a>
 800e232:	2002      	movs	r0, #2
 800e234:	e7f3      	b.n	800e21e <HAL_PCD_EP_Close+0x46>

0800e236 <HAL_PCD_EP_Receive>:
 800e236:	b538      	push	{r3, r4, r5, lr}
 800e238:	f001 050f 	and.w	r5, r1, #15
 800e23c:	2424      	movs	r4, #36	; 0x24
 800e23e:	fb04 0105 	mla	r1, r4, r5, r0
 800e242:	fb04 0405 	mla	r4, r4, r5, r0
 800e246:	f501 711f 	add.w	r1, r1, #636	; 0x27c
 800e24a:	f8c4 3294 	str.w	r3, [r4, #660]	; 0x294
 800e24e:	2300      	movs	r3, #0
 800e250:	f8c4 228c 	str.w	r2, [r4, #652]	; 0x28c
 800e254:	f8c4 329c 	str.w	r3, [r4, #668]	; 0x29c
 800e258:	f884 327d 	strb.w	r3, [r4, #637]	; 0x27d
 800e25c:	f884 527c 	strb.w	r5, [r4, #636]	; 0x27c
 800e260:	6903      	ldr	r3, [r0, #16]
 800e262:	6800      	ldr	r0, [r0, #0]
 800e264:	2b01      	cmp	r3, #1
 800e266:	bf08      	it	eq
 800e268:	f8c4 2290 	streq.w	r2, [r4, #656]	; 0x290
 800e26c:	b2da      	uxtb	r2, r3
 800e26e:	b91d      	cbnz	r5, 800e278 <HAL_PCD_EP_Receive+0x42>
 800e270:	f002 fa3e 	bl	80106f0 <USB_EP0StartXfer>
 800e274:	2000      	movs	r0, #0
 800e276:	bd38      	pop	{r3, r4, r5, pc}
 800e278:	f002 fb0c 	bl	8010894 <USB_EPStartXfer>
 800e27c:	e7fa      	b.n	800e274 <HAL_PCD_EP_Receive+0x3e>

0800e27e <HAL_PCD_EP_GetRxCount>:
 800e27e:	f001 010f 	and.w	r1, r1, #15
 800e282:	2324      	movs	r3, #36	; 0x24
 800e284:	fb03 0001 	mla	r0, r3, r1, r0
 800e288:	f8d0 029c 	ldr.w	r0, [r0, #668]	; 0x29c
 800e28c:	4770      	bx	lr

0800e28e <HAL_PCD_EP_Transmit>:
 800e28e:	b538      	push	{r3, r4, r5, lr}
 800e290:	f001 050f 	and.w	r5, r1, #15
 800e294:	2424      	movs	r4, #36	; 0x24
 800e296:	fb04 0105 	mla	r1, r4, r5, r0
 800e29a:	fb04 0405 	mla	r4, r4, r5, r0
 800e29e:	313c      	adds	r1, #60	; 0x3c
 800e2a0:	6563      	str	r3, [r4, #84]	; 0x54
 800e2a2:	2300      	movs	r3, #0
 800e2a4:	65e3      	str	r3, [r4, #92]	; 0x5c
 800e2a6:	2301      	movs	r3, #1
 800e2a8:	64e2      	str	r2, [r4, #76]	; 0x4c
 800e2aa:	f884 303d 	strb.w	r3, [r4, #61]	; 0x3d
 800e2ae:	f884 503c 	strb.w	r5, [r4, #60]	; 0x3c
 800e2b2:	6903      	ldr	r3, [r0, #16]
 800e2b4:	6800      	ldr	r0, [r0, #0]
 800e2b6:	2b01      	cmp	r3, #1
 800e2b8:	bf08      	it	eq
 800e2ba:	6522      	streq	r2, [r4, #80]	; 0x50
 800e2bc:	b2da      	uxtb	r2, r3
 800e2be:	b91d      	cbnz	r5, 800e2c8 <HAL_PCD_EP_Transmit+0x3a>
 800e2c0:	f002 fa16 	bl	80106f0 <USB_EP0StartXfer>
 800e2c4:	2000      	movs	r0, #0
 800e2c6:	bd38      	pop	{r3, r4, r5, pc}
 800e2c8:	f002 fae4 	bl	8010894 <USB_EPStartXfer>
 800e2cc:	e7fa      	b.n	800e2c4 <HAL_PCD_EP_Transmit+0x36>

0800e2ce <HAL_PCD_EP_SetStall>:
 800e2ce:	b538      	push	{r3, r4, r5, lr}
 800e2d0:	6843      	ldr	r3, [r0, #4]
 800e2d2:	f001 050f 	and.w	r5, r1, #15
 800e2d6:	429d      	cmp	r5, r3
 800e2d8:	4604      	mov	r4, r0
 800e2da:	d82c      	bhi.n	800e336 <HAL_PCD_EP_SetStall+0x68>
 800e2dc:	f011 0f80 	tst.w	r1, #128	; 0x80
 800e2e0:	f04f 0024 	mov.w	r0, #36	; 0x24
 800e2e4:	d01e      	beq.n	800e324 <HAL_PCD_EP_SetStall+0x56>
 800e2e6:	fb00 4205 	mla	r2, r0, r5, r4
 800e2ea:	fb00 4105 	mla	r1, r0, r5, r4
 800e2ee:	2301      	movs	r3, #1
 800e2f0:	313c      	adds	r1, #60	; 0x3c
 800e2f2:	f882 303d 	strb.w	r3, [r2, #61]	; 0x3d
 800e2f6:	2301      	movs	r3, #1
 800e2f8:	708b      	strb	r3, [r1, #2]
 800e2fa:	700d      	strb	r5, [r1, #0]
 800e2fc:	f894 24bc 	ldrb.w	r2, [r4, #1212]	; 0x4bc
 800e300:	429a      	cmp	r2, r3
 800e302:	d01a      	beq.n	800e33a <HAL_PCD_EP_SetStall+0x6c>
 800e304:	6820      	ldr	r0, [r4, #0]
 800e306:	f884 34bc 	strb.w	r3, [r4, #1212]	; 0x4bc
 800e30a:	f002 fbcf 	bl	8010aac <USB_EPSetStall>
 800e30e:	b92d      	cbnz	r5, 800e31c <HAL_PCD_EP_SetStall+0x4e>
 800e310:	7c21      	ldrb	r1, [r4, #16]
 800e312:	6820      	ldr	r0, [r4, #0]
 800e314:	f204 42c4 	addw	r2, r4, #1220	; 0x4c4
 800e318:	f002 fc8c 	bl	8010c34 <USB_EP0_OutStart>
 800e31c:	2000      	movs	r0, #0
 800e31e:	f884 04bc 	strb.w	r0, [r4, #1212]	; 0x4bc
 800e322:	bd38      	pop	{r3, r4, r5, pc}
 800e324:	fb00 4301 	mla	r3, r0, r1, r4
 800e328:	461a      	mov	r2, r3
 800e32a:	f503 711f 	add.w	r1, r3, #636	; 0x27c
 800e32e:	2300      	movs	r3, #0
 800e330:	f882 327d 	strb.w	r3, [r2, #637]	; 0x27d
 800e334:	e7df      	b.n	800e2f6 <HAL_PCD_EP_SetStall+0x28>
 800e336:	2001      	movs	r0, #1
 800e338:	e7f3      	b.n	800e322 <HAL_PCD_EP_SetStall+0x54>
 800e33a:	2002      	movs	r0, #2
 800e33c:	e7f1      	b.n	800e322 <HAL_PCD_EP_SetStall+0x54>

0800e33e <HAL_PCD_EP_ClrStall>:
 800e33e:	b538      	push	{r3, r4, r5, lr}
 800e340:	6843      	ldr	r3, [r0, #4]
 800e342:	f001 020f 	and.w	r2, r1, #15
 800e346:	429a      	cmp	r2, r3
 800e348:	4604      	mov	r4, r0
 800e34a:	d82a      	bhi.n	800e3a2 <HAL_PCD_EP_ClrStall+0x64>
 800e34c:	eb02 03c2 	add.w	r3, r2, r2, lsl #3
 800e350:	f011 0f80 	tst.w	r1, #128	; 0x80
 800e354:	ea4f 0383 	mov.w	r3, r3, lsl #2
 800e358:	f04f 0024 	mov.w	r0, #36	; 0x24
 800e35c:	d018      	beq.n	800e390 <HAL_PCD_EP_ClrStall+0x52>
 800e35e:	fb00 4002 	mla	r0, r0, r2, r4
 800e362:	f103 013c 	add.w	r1, r3, #60	; 0x3c
 800e366:	2301      	movs	r3, #1
 800e368:	4421      	add	r1, r4
 800e36a:	f880 303d 	strb.w	r3, [r0, #61]	; 0x3d
 800e36e:	2500      	movs	r5, #0
 800e370:	708d      	strb	r5, [r1, #2]
 800e372:	700a      	strb	r2, [r1, #0]
 800e374:	f894 34bc 	ldrb.w	r3, [r4, #1212]	; 0x4bc
 800e378:	2b01      	cmp	r3, #1
 800e37a:	d014      	beq.n	800e3a6 <HAL_PCD_EP_ClrStall+0x68>
 800e37c:	2301      	movs	r3, #1
 800e37e:	6820      	ldr	r0, [r4, #0]
 800e380:	f884 34bc 	strb.w	r3, [r4, #1212]	; 0x4bc
 800e384:	f002 fbbd 	bl	8010b02 <USB_EPClearStall>
 800e388:	f884 54bc 	strb.w	r5, [r4, #1212]	; 0x4bc
 800e38c:	4628      	mov	r0, r5
 800e38e:	bd38      	pop	{r3, r4, r5, pc}
 800e390:	fb00 4002 	mla	r0, r0, r2, r4
 800e394:	f503 711f 	add.w	r1, r3, #636	; 0x27c
 800e398:	2300      	movs	r3, #0
 800e39a:	4421      	add	r1, r4
 800e39c:	f880 327d 	strb.w	r3, [r0, #637]	; 0x27d
 800e3a0:	e7e5      	b.n	800e36e <HAL_PCD_EP_ClrStall+0x30>
 800e3a2:	2001      	movs	r0, #1
 800e3a4:	e7f3      	b.n	800e38e <HAL_PCD_EP_ClrStall+0x50>
 800e3a6:	2002      	movs	r0, #2
 800e3a8:	e7f1      	b.n	800e38e <HAL_PCD_EP_ClrStall+0x50>

0800e3aa <HAL_PCD_EP_Abort>:
 800e3aa:	f001 030f 	and.w	r3, r1, #15
 800e3ae:	eb03 03c3 	add.w	r3, r3, r3, lsl #3
 800e3b2:	060a      	lsls	r2, r1, #24
 800e3b4:	ea4f 0383 	mov.w	r3, r3, lsl #2
 800e3b8:	bf4c      	ite	mi
 800e3ba:	f103 013c 	addmi.w	r1, r3, #60	; 0x3c
 800e3be:	f503 711f 	addpl.w	r1, r3, #636	; 0x27c
 800e3c2:	4401      	add	r1, r0
 800e3c4:	6800      	ldr	r0, [r0, #0]
 800e3c6:	f002 ba0f 	b.w	80107e8 <USB_EPStopXfer>
	...

0800e3cc <HAL_PCD_IRQHandler>:
 800e3cc:	e92d 4ff0 	stmdb	sp!, {r4, r5, r6, r7, r8, r9, sl, fp, lr}
 800e3d0:	6806      	ldr	r6, [r0, #0]
 800e3d2:	b089      	sub	sp, #36	; 0x24
 800e3d4:	4604      	mov	r4, r0
 800e3d6:	4630      	mov	r0, r6
 800e3d8:	f002 fc17 	bl	8010c0a <USB_GetMode>
 800e3dc:	9003      	str	r0, [sp, #12]
 800e3de:	2800      	cmp	r0, #0
 800e3e0:	f040 8156 	bne.w	800e690 <HAL_PCD_IRQHandler+0x2c4>
 800e3e4:	6820      	ldr	r0, [r4, #0]
 800e3e6:	f002 fbe1 	bl	8010bac <USB_ReadInterrupts>
 800e3ea:	2800      	cmp	r0, #0
 800e3ec:	f000 8150 	beq.w	800e690 <HAL_PCD_IRQHandler+0x2c4>
 800e3f0:	f8d6 3808 	ldr.w	r3, [r6, #2056]	; 0x808
 800e3f4:	6820      	ldr	r0, [r4, #0]
 800e3f6:	f3c3 230d 	ubfx	r3, r3, #8, #14
 800e3fa:	f8c4 34fc 	str.w	r3, [r4, #1276]	; 0x4fc
 800e3fe:	f002 fbd5 	bl	8010bac <USB_ReadInterrupts>
 800e402:	0781      	lsls	r1, r0, #30
 800e404:	bf48      	it	mi
 800e406:	6822      	ldrmi	r2, [r4, #0]
 800e408:	6820      	ldr	r0, [r4, #0]
 800e40a:	bf42      	ittt	mi
 800e40c:	6953      	ldrmi	r3, [r2, #20]
 800e40e:	f003 0302 	andmi.w	r3, r3, #2
 800e412:	6153      	strmi	r3, [r2, #20]
 800e414:	f002 fbca 	bl	8010bac <USB_ReadInterrupts>
 800e418:	06c2      	lsls	r2, r0, #27
 800e41a:	f506 6500 	add.w	r5, r6, #2048	; 0x800
 800e41e:	d52c      	bpl.n	800e47a <HAL_PCD_IRQHandler+0xae>
 800e420:	6822      	ldr	r2, [r4, #0]
 800e422:	6993      	ldr	r3, [r2, #24]
 800e424:	f023 0310 	bic.w	r3, r3, #16
 800e428:	6193      	str	r3, [r2, #24]
 800e42a:	f8d6 8020 	ldr.w	r8, [r6, #32]
 800e42e:	f3c8 4343 	ubfx	r3, r8, #17, #4
 800e432:	2b02      	cmp	r3, #2
 800e434:	f008 070f 	and.w	r7, r8, #15
 800e438:	f040 812d 	bne.w	800e696 <HAL_PCD_IRQHandler+0x2ca>
 800e43c:	f647 73f0 	movw	r3, #32752	; 0x7ff0
 800e440:	ea18 0f03 	tst.w	r8, r3
 800e444:	d014      	beq.n	800e470 <HAL_PCD_IRQHandler+0xa4>
 800e446:	2324      	movs	r3, #36	; 0x24
 800e448:	fb03 4707 	mla	r7, r3, r7, r4
 800e44c:	f3c8 190a 	ubfx	r9, r8, #4, #11
 800e450:	f8d7 128c 	ldr.w	r1, [r7, #652]	; 0x28c
 800e454:	464a      	mov	r2, r9
 800e456:	4630      	mov	r0, r6
 800e458:	f002 fb08 	bl	8010a6c <USB_ReadPacket>
 800e45c:	f8d7 328c 	ldr.w	r3, [r7, #652]	; 0x28c
 800e460:	444b      	add	r3, r9
 800e462:	f8c7 328c 	str.w	r3, [r7, #652]	; 0x28c
 800e466:	f8d7 329c 	ldr.w	r3, [r7, #668]	; 0x29c
 800e46a:	444b      	add	r3, r9
 800e46c:	f8c7 329c 	str.w	r3, [r7, #668]	; 0x29c
 800e470:	6822      	ldr	r2, [r4, #0]
 800e472:	6993      	ldr	r3, [r2, #24]
 800e474:	f043 0310 	orr.w	r3, r3, #16
 800e478:	6193      	str	r3, [r2, #24]
 800e47a:	6820      	ldr	r0, [r4, #0]
 800e47c:	f002 fb96 	bl	8010bac <USB_ReadInterrupts>
 800e480:	0303      	lsls	r3, r0, #12
 800e482:	f100 811a 	bmi.w	800e6ba <HAL_PCD_IRQHandler+0x2ee>
 800e486:	6820      	ldr	r0, [r4, #0]
 800e488:	f002 fb90 	bl	8010bac <USB_ReadInterrupts>
 800e48c:	0347      	lsls	r7, r0, #13
 800e48e:	d50c      	bpl.n	800e4aa <HAL_PCD_IRQHandler+0xde>
 800e490:	6820      	ldr	r0, [r4, #0]
 800e492:	f002 fb97 	bl	8010bc4 <USB_ReadDevAllInEpInterrupt>
 800e496:	4627      	mov	r7, r4
 800e498:	9004      	str	r0, [sp, #16]
 800e49a:	f506 6a10 	add.w	sl, r6, #2304	; 0x900
 800e49e:	f04f 0900 	mov.w	r9, #0
 800e4a2:	9b04      	ldr	r3, [sp, #16]
 800e4a4:	2b00      	cmp	r3, #0
 800e4a6:	f040 81d0 	bne.w	800e84a <HAL_PCD_IRQHandler+0x47e>
 800e4aa:	6820      	ldr	r0, [r4, #0]
 800e4ac:	f002 fb7e 	bl	8010bac <USB_ReadInterrupts>
 800e4b0:	2800      	cmp	r0, #0
 800e4b2:	da13      	bge.n	800e4dc <HAL_PCD_IRQHandler+0x110>
 800e4b4:	686b      	ldr	r3, [r5, #4]
 800e4b6:	f023 0301 	bic.w	r3, r3, #1
 800e4ba:	606b      	str	r3, [r5, #4]
 800e4bc:	f894 34f4 	ldrb.w	r3, [r4, #1268]	; 0x4f4
 800e4c0:	2b01      	cmp	r3, #1
 800e4c2:	f040 826b 	bne.w	800e99c <HAL_PCD_IRQHandler+0x5d0>
 800e4c6:	2100      	movs	r1, #0
 800e4c8:	f884 14f4 	strb.w	r1, [r4, #1268]	; 0x4f4
 800e4cc:	4620      	mov	r0, r4
 800e4ce:	f000 fae7 	bl	800eaa0 <HAL_PCDEx_LPM_Callback>
 800e4d2:	6822      	ldr	r2, [r4, #0]
 800e4d4:	6953      	ldr	r3, [r2, #20]
 800e4d6:	f003 4300 	and.w	r3, r3, #2147483648	; 0x80000000
 800e4da:	6153      	str	r3, [r2, #20]
 800e4dc:	6820      	ldr	r0, [r4, #0]
 800e4de:	f002 fb65 	bl	8010bac <USB_ReadInterrupts>
 800e4e2:	0501      	lsls	r1, r0, #20
 800e4e4:	d50a      	bpl.n	800e4fc <HAL_PCD_IRQHandler+0x130>
 800e4e6:	68ab      	ldr	r3, [r5, #8]
 800e4e8:	07da      	lsls	r2, r3, #31
 800e4ea:	d502      	bpl.n	800e4f2 <HAL_PCD_IRQHandler+0x126>
 800e4ec:	4620      	mov	r0, r4
 800e4ee:	f005 fcd5 	bl	8013e9c <HAL_PCD_SuspendCallback>
 800e4f2:	6822      	ldr	r2, [r4, #0]
 800e4f4:	6953      	ldr	r3, [r2, #20]
 800e4f6:	f403 6300 	and.w	r3, r3, #2048	; 0x800
 800e4fa:	6153      	str	r3, [r2, #20]
 800e4fc:	6820      	ldr	r0, [r4, #0]
 800e4fe:	f002 fb55 	bl	8010bac <USB_ReadInterrupts>
 800e502:	04c3      	lsls	r3, r0, #19
 800e504:	d533      	bpl.n	800e56e <HAL_PCD_IRQHandler+0x1a2>
 800e506:	686b      	ldr	r3, [r5, #4]
 800e508:	6820      	ldr	r0, [r4, #0]
 800e50a:	f023 0301 	bic.w	r3, r3, #1
 800e50e:	606b      	str	r3, [r5, #4]
 800e510:	2110      	movs	r1, #16
 800e512:	f001 ff43 	bl	801039c <USB_FlushTxFifo>
 800e516:	f506 6310 	add.w	r3, r6, #2304	; 0x900
 800e51a:	f64f 317f 	movw	r1, #64383	; 0xfb7f
 800e51e:	6862      	ldr	r2, [r4, #4]
 800e520:	9803      	ldr	r0, [sp, #12]
 800e522:	4282      	cmp	r2, r0
 800e524:	f200 8242 	bhi.w	800e9ac <HAL_PCD_IRQHandler+0x5e0>
 800e528:	69eb      	ldr	r3, [r5, #28]
 800e52a:	f043 1301 	orr.w	r3, r3, #65537	; 0x10001
 800e52e:	61eb      	str	r3, [r5, #28]
 800e530:	6b23      	ldr	r3, [r4, #48]	; 0x30
 800e532:	2b00      	cmp	r3, #0
 800e534:	f000 8252 	beq.w	800e9dc <HAL_PCD_IRQHandler+0x610>
 800e538:	f8d5 3084 	ldr.w	r3, [r5, #132]	; 0x84
 800e53c:	f043 030b 	orr.w	r3, r3, #11
 800e540:	f8c5 3084 	str.w	r3, [r5, #132]	; 0x84
 800e544:	6c6b      	ldr	r3, [r5, #68]	; 0x44
 800e546:	f043 030b 	orr.w	r3, r3, #11
 800e54a:	646b      	str	r3, [r5, #68]	; 0x44
 800e54c:	f8d6 3800 	ldr.w	r3, [r6, #2048]	; 0x800
 800e550:	7c21      	ldrb	r1, [r4, #16]
 800e552:	6820      	ldr	r0, [r4, #0]
 800e554:	f423 63fe 	bic.w	r3, r3, #2032	; 0x7f0
 800e558:	f8c6 3800 	str.w	r3, [r6, #2048]	; 0x800
 800e55c:	f204 42c4 	addw	r2, r4, #1220	; 0x4c4
 800e560:	f002 fb68 	bl	8010c34 <USB_EP0_OutStart>
 800e564:	6822      	ldr	r2, [r4, #0]
 800e566:	6953      	ldr	r3, [r2, #20]
 800e568:	f403 5380 	and.w	r3, r3, #4096	; 0x1000
 800e56c:	6153      	str	r3, [r2, #20]
 800e56e:	6820      	ldr	r0, [r4, #0]
 800e570:	f002 fb1c 	bl	8010bac <USB_ReadInterrupts>
 800e574:	0487      	lsls	r7, r0, #18
 800e576:	d516      	bpl.n	800e5a6 <HAL_PCD_IRQHandler+0x1da>
 800e578:	6820      	ldr	r0, [r4, #0]
 800e57a:	f002 fb4a 	bl	8010c12 <USB_ActivateSetup>
 800e57e:	6820      	ldr	r0, [r4, #0]
 800e580:	f002 f816 	bl	80105b0 <USB_GetDevSpeed>
 800e584:	60e0      	str	r0, [r4, #12]
 800e586:	6827      	ldr	r7, [r4, #0]
 800e588:	f000 fd06 	bl	800ef98 <HAL_RCC_GetHCLKFreq>
 800e58c:	7b22      	ldrb	r2, [r4, #12]
 800e58e:	4601      	mov	r1, r0
 800e590:	4638      	mov	r0, r7
 800e592:	f001 fe57 	bl	8010244 <USB_SetTurnaroundTime>
 800e596:	4620      	mov	r0, r4
 800e598:	f005 fc6d 	bl	8013e76 <HAL_PCD_ResetCallback>
 800e59c:	6822      	ldr	r2, [r4, #0]
 800e59e:	6953      	ldr	r3, [r2, #20]
 800e5a0:	f403 5300 	and.w	r3, r3, #8192	; 0x2000
 800e5a4:	6153      	str	r3, [r2, #20]
 800e5a6:	6820      	ldr	r0, [r4, #0]
 800e5a8:	f002 fb00 	bl	8010bac <USB_ReadInterrupts>
 800e5ac:	0700      	lsls	r0, r0, #28
 800e5ae:	d507      	bpl.n	800e5c0 <HAL_PCD_IRQHandler+0x1f4>
 800e5b0:	4620      	mov	r0, r4
 800e5b2:	f005 fc5c 	bl	8013e6e <HAL_PCD_SOFCallback>
 800e5b6:	6822      	ldr	r2, [r4, #0]
 800e5b8:	6953      	ldr	r3, [r2, #20]
 800e5ba:	f003 0308 	and.w	r3, r3, #8
 800e5be:	6153      	str	r3, [r2, #20]
 800e5c0:	6820      	ldr	r0, [r4, #0]
 800e5c2:	f002 faf3 	bl	8010bac <USB_ReadInterrupts>
 800e5c6:	0601      	lsls	r1, r0, #24
 800e5c8:	f100 8213 	bmi.w	800e9f2 <HAL_PCD_IRQHandler+0x626>
 800e5cc:	6820      	ldr	r0, [r4, #0]
 800e5ce:	f002 faed 	bl	8010bac <USB_ReadInterrupts>
 800e5d2:	02c2      	lsls	r2, r0, #11
 800e5d4:	d50c      	bpl.n	800e5f0 <HAL_PCD_IRQHandler+0x224>
 800e5d6:	46a0      	mov	r8, r4
 800e5d8:	f506 6912 	add.w	r9, r6, #2336	; 0x920
 800e5dc:	2701      	movs	r7, #1
 800e5de:	6863      	ldr	r3, [r4, #4]
 800e5e0:	42bb      	cmp	r3, r7
 800e5e2:	f200 821f 	bhi.w	800ea24 <HAL_PCD_IRQHandler+0x658>
 800e5e6:	6822      	ldr	r2, [r4, #0]
 800e5e8:	6953      	ldr	r3, [r2, #20]
 800e5ea:	f403 1380 	and.w	r3, r3, #1048576	; 0x100000
 800e5ee:	6153      	str	r3, [r2, #20]
 800e5f0:	6820      	ldr	r0, [r4, #0]
 800e5f2:	f002 fadb 	bl	8010bac <USB_ReadInterrupts>
 800e5f6:	0283      	lsls	r3, r0, #10
 800e5f8:	d52d      	bpl.n	800e656 <HAL_PCD_IRQHandler+0x28a>
 800e5fa:	f8d4 e004 	ldr.w	lr, [r4, #4]
 800e5fe:	4623      	mov	r3, r4
 800e600:	f506 6032 	add.w	r0, r6, #2848	; 0xb20
 800e604:	2101      	movs	r1, #1
 800e606:	458e      	cmp	lr, r1
 800e608:	d920      	bls.n	800e64c <HAL_PCD_IRQHandler+0x280>
 800e60a:	f893 c2a4 	ldrb.w	ip, [r3, #676]	; 0x2a4
 800e60e:	6802      	ldr	r2, [r0, #0]
 800e610:	f1bc 0f01 	cmp.w	ip, #1
 800e614:	f040 821c 	bne.w	800ea50 <HAL_PCD_IRQHandler+0x684>
 800e618:	2a00      	cmp	r2, #0
 800e61a:	f280 8219 	bge.w	800ea50 <HAL_PCD_IRQHandler+0x684>
 800e61e:	f8d4 74fc 	ldr.w	r7, [r4, #1276]	; 0x4fc
 800e622:	f402 3280 	and.w	r2, r2, #65536	; 0x10000
 800e626:	f007 0701 	and.w	r7, r7, #1
 800e62a:	42ba      	cmp	r2, r7
 800e62c:	f040 8210 	bne.w	800ea50 <HAL_PCD_IRQHandler+0x684>
 800e630:	f883 c2a3 	strb.w	ip, [r3, #675]	; 0x2a3
 800e634:	69b2      	ldr	r2, [r6, #24]
 800e636:	f042 0280 	orr.w	r2, r2, #128	; 0x80
 800e63a:	61b2      	str	r2, [r6, #24]
 800e63c:	6972      	ldr	r2, [r6, #20]
 800e63e:	0617      	lsls	r7, r2, #24
 800e640:	f100 8206 	bmi.w	800ea50 <HAL_PCD_IRQHandler+0x684>
 800e644:	686b      	ldr	r3, [r5, #4]
 800e646:	f443 7300 	orr.w	r3, r3, #512	; 0x200
 800e64a:	606b      	str	r3, [r5, #4]
 800e64c:	6822      	ldr	r2, [r4, #0]
 800e64e:	6953      	ldr	r3, [r2, #20]
 800e650:	f403 1300 	and.w	r3, r3, #2097152	; 0x200000
 800e654:	6153      	str	r3, [r2, #20]
 800e656:	6820      	ldr	r0, [r4, #0]
 800e658:	f002 faa8 	bl	8010bac <USB_ReadInterrupts>
 800e65c:	0041      	lsls	r1, r0, #1
 800e65e:	d507      	bpl.n	800e670 <HAL_PCD_IRQHandler+0x2a4>
 800e660:	4620      	mov	r0, r4
 800e662:	f005 fc3f 	bl	8013ee4 <HAL_PCD_ConnectCallback>
 800e666:	6822      	ldr	r2, [r4, #0]
 800e668:	6953      	ldr	r3, [r2, #20]
 800e66a:	f003 4380 	and.w	r3, r3, #1073741824	; 0x40000000
 800e66e:	6153      	str	r3, [r2, #20]
 800e670:	6820      	ldr	r0, [r4, #0]
 800e672:	f002 fa9b 	bl	8010bac <USB_ReadInterrupts>
 800e676:	0742      	lsls	r2, r0, #29
 800e678:	d50a      	bpl.n	800e690 <HAL_PCD_IRQHandler+0x2c4>
 800e67a:	6823      	ldr	r3, [r4, #0]
 800e67c:	685d      	ldr	r5, [r3, #4]
 800e67e:	076b      	lsls	r3, r5, #29
 800e680:	d502      	bpl.n	800e688 <HAL_PCD_IRQHandler+0x2bc>
 800e682:	4620      	mov	r0, r4
 800e684:	f005 fc32 	bl	8013eec <HAL_PCD_DisconnectCallback>
 800e688:	6822      	ldr	r2, [r4, #0]
 800e68a:	6853      	ldr	r3, [r2, #4]
 800e68c:	432b      	orrs	r3, r5
 800e68e:	6053      	str	r3, [r2, #4]
 800e690:	b009      	add	sp, #36	; 0x24
 800e692:	e8bd 8ff0 	ldmia.w	sp!, {r4, r5, r6, r7, r8, r9, sl, fp, pc}
 800e696:	2b06      	cmp	r3, #6
 800e698:	f47f aeea 	bne.w	800e470 <HAL_PCD_IRQHandler+0xa4>
 800e69c:	2208      	movs	r2, #8
 800e69e:	f204 41c4 	addw	r1, r4, #1220	; 0x4c4
 800e6a2:	4630      	mov	r0, r6
 800e6a4:	f002 f9e2 	bl	8010a6c <USB_ReadPacket>
 800e6a8:	2324      	movs	r3, #36	; 0x24
 800e6aa:	fb03 4707 	mla	r7, r3, r7, r4
 800e6ae:	f3c8 180a 	ubfx	r8, r8, #4, #11
 800e6b2:	f8d7 329c 	ldr.w	r3, [r7, #668]	; 0x29c
 800e6b6:	4443      	add	r3, r8
 800e6b8:	e6d8      	b.n	800e46c <HAL_PCD_IRQHandler+0xa0>
 800e6ba:	6820      	ldr	r0, [r4, #0]
 800e6bc:	f002 fa7a 	bl	8010bb4 <USB_ReadDevAllOutEpInterrupt>
 800e6c0:	f506 6830 	add.w	r8, r6, #2816	; 0xb00
 800e6c4:	9004      	str	r0, [sp, #16]
 800e6c6:	46a2      	mov	sl, r4
 800e6c8:	2700      	movs	r7, #0
 800e6ca:	9b04      	ldr	r3, [sp, #16]
 800e6cc:	2b00      	cmp	r3, #0
 800e6ce:	f43f aeda 	beq.w	800e486 <HAL_PCD_IRQHandler+0xba>
 800e6d2:	9b04      	ldr	r3, [sp, #16]
 800e6d4:	07d8      	lsls	r0, r3, #31
 800e6d6:	d576      	bpl.n	800e7c6 <HAL_PCD_IRQHandler+0x3fa>
 800e6d8:	fa5f fb87 	uxtb.w	fp, r7
 800e6dc:	6820      	ldr	r0, [r4, #0]
 800e6de:	4659      	mov	r1, fp
 800e6e0:	f002 fa78 	bl	8010bd4 <USB_ReadDevOutEPInterrupt>
 800e6e4:	f010 0f01 	tst.w	r0, #1
 800e6e8:	4681      	mov	r9, r0
 800e6ea:	d01c      	beq.n	800e726 <HAL_PCD_IRQHandler+0x35a>
 800e6ec:	6820      	ldr	r0, [r4, #0]
 800e6ee:	6921      	ldr	r1, [r4, #16]
 800e6f0:	2301      	movs	r3, #1
 800e6f2:	f8c8 3008 	str.w	r3, [r8, #8]
 800e6f6:	f500 6330 	add.w	r3, r0, #2816	; 0xb00
 800e6fa:	eb03 1347 	add.w	r3, r3, r7, lsl #5
 800e6fe:	2901      	cmp	r1, #1
 800e700:	f8d0 c040 	ldr.w	ip, [r0, #64]	; 0x40
 800e704:	689a      	ldr	r2, [r3, #8]
 800e706:	f040 808b 	bne.w	800e820 <HAL_PCD_IRQHandler+0x454>
 800e70a:	0711      	lsls	r1, r2, #28
 800e70c:	d507      	bpl.n	800e71e <HAL_PCD_IRQHandler+0x352>
 800e70e:	49a5      	ldr	r1, [pc, #660]	; (800e9a4 <HAL_PCD_IRQHandler+0x5d8>)
 800e710:	458c      	cmp	ip, r1
 800e712:	d908      	bls.n	800e726 <HAL_PCD_IRQHandler+0x35a>
 800e714:	0410      	lsls	r0, r2, #16
 800e716:	d506      	bpl.n	800e726 <HAL_PCD_IRQHandler+0x35a>
 800e718:	f44f 4200 	mov.w	r2, #32768	; 0x8000
 800e71c:	e002      	b.n	800e724 <HAL_PCD_IRQHandler+0x358>
 800e71e:	0691      	lsls	r1, r2, #26
 800e720:	d55a      	bpl.n	800e7d8 <HAL_PCD_IRQHandler+0x40c>
 800e722:	2220      	movs	r2, #32
 800e724:	609a      	str	r2, [r3, #8]
 800e726:	f019 0f08 	tst.w	r9, #8
 800e72a:	d021      	beq.n	800e770 <HAL_PCD_IRQHandler+0x3a4>
 800e72c:	2308      	movs	r3, #8
 800e72e:	f8c8 3008 	str.w	r3, [r8, #8]
 800e732:	6823      	ldr	r3, [r4, #0]
 800e734:	489b      	ldr	r0, [pc, #620]	; (800e9a4 <HAL_PCD_IRQHandler+0x5d8>)
 800e736:	6c1a      	ldr	r2, [r3, #64]	; 0x40
 800e738:	f503 6330 	add.w	r3, r3, #2816	; 0xb00
 800e73c:	eb03 1347 	add.w	r3, r3, r7, lsl #5
 800e740:	4282      	cmp	r2, r0
 800e742:	6899      	ldr	r1, [r3, #8]
 800e744:	d904      	bls.n	800e750 <HAL_PCD_IRQHandler+0x384>
 800e746:	0409      	lsls	r1, r1, #16
 800e748:	bf44      	itt	mi
 800e74a:	f44f 4100 	movmi.w	r1, #32768	; 0x8000
 800e74e:	6099      	strmi	r1, [r3, #8]
 800e750:	4620      	mov	r0, r4
 800e752:	9205      	str	r2, [sp, #20]
 800e754:	f005 fb74 	bl	8013e40 <HAL_PCD_SetupStageCallback>
 800e758:	4b92      	ldr	r3, [pc, #584]	; (800e9a4 <HAL_PCD_IRQHandler+0x5d8>)
 800e75a:	9a05      	ldr	r2, [sp, #20]
 800e75c:	429a      	cmp	r2, r3
 800e75e:	d907      	bls.n	800e770 <HAL_PCD_IRQHandler+0x3a4>
 800e760:	6921      	ldr	r1, [r4, #16]
 800e762:	2901      	cmp	r1, #1
 800e764:	d104      	bne.n	800e770 <HAL_PCD_IRQHandler+0x3a4>
 800e766:	6820      	ldr	r0, [r4, #0]
 800e768:	f204 42c4 	addw	r2, r4, #1220	; 0x4c4
 800e76c:	f002 fa62 	bl	8010c34 <USB_EP0_OutStart>
 800e770:	f019 0f10 	tst.w	r9, #16
 800e774:	bf1c      	itt	ne
 800e776:	2310      	movne	r3, #16
 800e778:	f8c8 3008 	strne.w	r3, [r8, #8]
 800e77c:	f019 0f02 	tst.w	r9, #2
 800e780:	d014      	beq.n	800e7ac <HAL_PCD_IRQHandler+0x3e0>
 800e782:	6973      	ldr	r3, [r6, #20]
 800e784:	061b      	lsls	r3, r3, #24
 800e786:	bf42      	ittt	mi
 800e788:	686b      	ldrmi	r3, [r5, #4]
 800e78a:	f443 6380 	orrmi.w	r3, r3, #1024	; 0x400
 800e78e:	606b      	strmi	r3, [r5, #4]
 800e790:	f89a 327f 	ldrb.w	r3, [sl, #639]	; 0x27f
 800e794:	2b01      	cmp	r3, #1
 800e796:	d106      	bne.n	800e7a6 <HAL_PCD_IRQHandler+0x3da>
 800e798:	2300      	movs	r3, #0
 800e79a:	f88a 327f 	strb.w	r3, [sl, #639]	; 0x27f
 800e79e:	4659      	mov	r1, fp
 800e7a0:	4620      	mov	r0, r4
 800e7a2:	f005 fb97 	bl	8013ed4 <HAL_PCD_ISOOUTIncompleteCallback>
 800e7a6:	2302      	movs	r3, #2
 800e7a8:	f8c8 3008 	str.w	r3, [r8, #8]
 800e7ac:	f019 0f20 	tst.w	r9, #32
 800e7b0:	bf1c      	itt	ne
 800e7b2:	2320      	movne	r3, #32
 800e7b4:	f8c8 3008 	strne.w	r3, [r8, #8]
 800e7b8:	f419 5f00 	tst.w	r9, #8192	; 0x2000
 800e7bc:	bf1c      	itt	ne
 800e7be:	f44f 5300 	movne.w	r3, #8192	; 0x2000
 800e7c2:	f8c8 3008 	strne.w	r3, [r8, #8]
 800e7c6:	9b04      	ldr	r3, [sp, #16]
 800e7c8:	085b      	lsrs	r3, r3, #1
 800e7ca:	3701      	adds	r7, #1
 800e7cc:	9304      	str	r3, [sp, #16]
 800e7ce:	f108 0820 	add.w	r8, r8, #32
 800e7d2:	f10a 0a24 	add.w	sl, sl, #36	; 0x24
 800e7d6:	e778      	b.n	800e6ca <HAL_PCD_IRQHandler+0x2fe>
 800e7d8:	f012 0f28 	tst.w	r2, #40	; 0x28
 800e7dc:	d1a3      	bne.n	800e726 <HAL_PCD_IRQHandler+0x35a>
 800e7de:	4971      	ldr	r1, [pc, #452]	; (800e9a4 <HAL_PCD_IRQHandler+0x5d8>)
 800e7e0:	458c      	cmp	ip, r1
 800e7e2:	d901      	bls.n	800e7e8 <HAL_PCD_IRQHandler+0x41c>
 800e7e4:	0412      	lsls	r2, r2, #16
 800e7e6:	d497      	bmi.n	800e718 <HAL_PCD_IRQHandler+0x34c>
 800e7e8:	691a      	ldr	r2, [r3, #16]
 800e7ea:	f8da 3298 	ldr.w	r3, [sl, #664]	; 0x298
 800e7ee:	f3c2 0212 	ubfx	r2, r2, #0, #19
 800e7f2:	1a9b      	subs	r3, r3, r2
 800e7f4:	f8ca 329c 	str.w	r3, [sl, #668]	; 0x29c
 800e7f8:	b96f      	cbnz	r7, 800e816 <HAL_PCD_IRQHandler+0x44a>
 800e7fa:	f8d4 2294 	ldr.w	r2, [r4, #660]	; 0x294
 800e7fe:	b92a      	cbnz	r2, 800e80c <HAL_PCD_IRQHandler+0x440>
 800e800:	f204 42c4 	addw	r2, r4, #1220	; 0x4c4
 800e804:	2101      	movs	r1, #1
 800e806:	f002 fa15 	bl	8010c34 <USB_EP0_OutStart>
 800e80a:	e004      	b.n	800e816 <HAL_PCD_IRQHandler+0x44a>
 800e80c:	f8d4 228c 	ldr.w	r2, [r4, #652]	; 0x28c
 800e810:	4413      	add	r3, r2
 800e812:	f8c4 328c 	str.w	r3, [r4, #652]	; 0x28c
 800e816:	4659      	mov	r1, fp
 800e818:	4620      	mov	r0, r4
 800e81a:	f005 fb17 	bl	8013e4c <HAL_PCD_DataOutStageCallback>
 800e81e:	e782      	b.n	800e726 <HAL_PCD_IRQHandler+0x35a>
 800e820:	4961      	ldr	r1, [pc, #388]	; (800e9a8 <HAL_PCD_IRQHandler+0x5dc>)
 800e822:	458c      	cmp	ip, r1
 800e824:	d107      	bne.n	800e836 <HAL_PCD_IRQHandler+0x46a>
 800e826:	0411      	lsls	r1, r2, #16
 800e828:	f53f af76 	bmi.w	800e718 <HAL_PCD_IRQHandler+0x34c>
 800e82c:	0690      	lsls	r0, r2, #26
 800e82e:	d5f2      	bpl.n	800e816 <HAL_PCD_IRQHandler+0x44a>
 800e830:	2220      	movs	r2, #32
 800e832:	609a      	str	r2, [r3, #8]
 800e834:	e7ef      	b.n	800e816 <HAL_PCD_IRQHandler+0x44a>
 800e836:	2f00      	cmp	r7, #0
 800e838:	d1ed      	bne.n	800e816 <HAL_PCD_IRQHandler+0x44a>
 800e83a:	f8d4 3294 	ldr.w	r3, [r4, #660]	; 0x294
 800e83e:	2b00      	cmp	r3, #0
 800e840:	d1e9      	bne.n	800e816 <HAL_PCD_IRQHandler+0x44a>
 800e842:	f204 42c4 	addw	r2, r4, #1220	; 0x4c4
 800e846:	4639      	mov	r1, r7
 800e848:	e7dd      	b.n	800e806 <HAL_PCD_IRQHandler+0x43a>
 800e84a:	9b04      	ldr	r3, [sp, #16]
 800e84c:	07d8      	lsls	r0, r3, #31
 800e84e:	f140 809c 	bpl.w	800e98a <HAL_PCD_IRQHandler+0x5be>
 800e852:	fa5f fb89 	uxtb.w	fp, r9
 800e856:	6820      	ldr	r0, [r4, #0]
 800e858:	4659      	mov	r1, fp
 800e85a:	f002 f9c4 	bl	8010be6 <USB_ReadDevInEPInterrupt>
 800e85e:	f010 0f01 	tst.w	r0, #1
 800e862:	4680      	mov	r8, r0
 800e864:	d020      	beq.n	800e8a8 <HAL_PCD_IRQHandler+0x4dc>
 800e866:	2101      	movs	r1, #1
 800e868:	6b6b      	ldr	r3, [r5, #52]	; 0x34
 800e86a:	f009 020f 	and.w	r2, r9, #15
 800e86e:	fa01 f202 	lsl.w	r2, r1, r2
 800e872:	ea23 0302 	bic.w	r3, r3, r2
 800e876:	636b      	str	r3, [r5, #52]	; 0x34
 800e878:	460b      	mov	r3, r1
 800e87a:	f8ca 1008 	str.w	r1, [sl, #8]
 800e87e:	6921      	ldr	r1, [r4, #16]
 800e880:	4299      	cmp	r1, r3
 800e882:	d10d      	bne.n	800e8a0 <HAL_PCD_IRQHandler+0x4d4>
 800e884:	e9d7 2312 	ldrd	r2, r3, [r7, #72]	; 0x48
 800e888:	4413      	add	r3, r2
 800e88a:	64fb      	str	r3, [r7, #76]	; 0x4c
 800e88c:	f1b9 0f00 	cmp.w	r9, #0
 800e890:	d106      	bne.n	800e8a0 <HAL_PCD_IRQHandler+0x4d4>
 800e892:	6d63      	ldr	r3, [r4, #84]	; 0x54
 800e894:	b923      	cbnz	r3, 800e8a0 <HAL_PCD_IRQHandler+0x4d4>
 800e896:	6820      	ldr	r0, [r4, #0]
 800e898:	f204 42c4 	addw	r2, r4, #1220	; 0x4c4
 800e89c:	f002 f9ca 	bl	8010c34 <USB_EP0_OutStart>
 800e8a0:	4659      	mov	r1, fp
 800e8a2:	4620      	mov	r0, r4
 800e8a4:	f005 fadb 	bl	8013e5e <HAL_PCD_DataInStageCallback>
 800e8a8:	f018 0f08 	tst.w	r8, #8
 800e8ac:	bf1c      	itt	ne
 800e8ae:	2308      	movne	r3, #8
 800e8b0:	f8ca 3008 	strne.w	r3, [sl, #8]
 800e8b4:	f018 0f10 	tst.w	r8, #16
 800e8b8:	bf1c      	itt	ne
 800e8ba:	2310      	movne	r3, #16
 800e8bc:	f8ca 3008 	strne.w	r3, [sl, #8]
 800e8c0:	f018 0f40 	tst.w	r8, #64	; 0x40
 800e8c4:	bf1c      	itt	ne
 800e8c6:	2340      	movne	r3, #64	; 0x40
 800e8c8:	f8ca 3008 	strne.w	r3, [sl, #8]
 800e8cc:	f018 0f02 	tst.w	r8, #2
 800e8d0:	d012      	beq.n	800e8f8 <HAL_PCD_IRQHandler+0x52c>
 800e8d2:	4649      	mov	r1, r9
 800e8d4:	4630      	mov	r0, r6
 800e8d6:	f001 fd61 	bl	801039c <USB_FlushTxFifo>
 800e8da:	f897 303f 	ldrb.w	r3, [r7, #63]	; 0x3f
 800e8de:	2b01      	cmp	r3, #1
 800e8e0:	d107      	bne.n	800e8f2 <HAL_PCD_IRQHandler+0x526>
 800e8e2:	f04f 0300 	mov.w	r3, #0
 800e8e6:	f887 303f 	strb.w	r3, [r7, #63]	; 0x3f
 800e8ea:	4659      	mov	r1, fp
 800e8ec:	4620      	mov	r0, r4
 800e8ee:	f005 faf5 	bl	8013edc <HAL_PCD_ISOINIncompleteCallback>
 800e8f2:	2302      	movs	r3, #2
 800e8f4:	f8ca 3008 	str.w	r3, [sl, #8]
 800e8f8:	f018 0f80 	tst.w	r8, #128	; 0x80
 800e8fc:	d045      	beq.n	800e98a <HAL_PCD_IRQHandler+0x5be>
 800e8fe:	6dfa      	ldr	r2, [r7, #92]	; 0x5c
 800e900:	6d7b      	ldr	r3, [r7, #84]	; 0x54
 800e902:	429a      	cmp	r2, r3
 800e904:	d841      	bhi.n	800e98a <HAL_PCD_IRQHandler+0x5be>
 800e906:	1a9b      	subs	r3, r3, r2
 800e908:	6cba      	ldr	r2, [r7, #72]	; 0x48
 800e90a:	6821      	ldr	r1, [r4, #0]
 800e90c:	9105      	str	r1, [sp, #20]
 800e90e:	4293      	cmp	r3, r2
 800e910:	bf28      	it	cs
 800e912:	4613      	movcs	r3, r2
 800e914:	3303      	adds	r3, #3
 800e916:	089b      	lsrs	r3, r3, #2
 800e918:	9306      	str	r3, [sp, #24]
 800e91a:	f501 6310 	add.w	r3, r1, #2304	; 0x900
 800e91e:	eb03 1349 	add.w	r3, r3, r9, lsl #5
 800e922:	9307      	str	r3, [sp, #28]
 800e924:	9b07      	ldr	r3, [sp, #28]
 800e926:	9806      	ldr	r0, [sp, #24]
 800e928:	6999      	ldr	r1, [r3, #24]
 800e92a:	6dfa      	ldr	r2, [r7, #92]	; 0x5c
 800e92c:	6d7b      	ldr	r3, [r7, #84]	; 0x54
 800e92e:	b289      	uxth	r1, r1
 800e930:	4281      	cmp	r1, r0
 800e932:	d328      	bcc.n	800e986 <HAL_PCD_IRQHandler+0x5ba>
 800e934:	429a      	cmp	r2, r3
 800e936:	d30c      	bcc.n	800e952 <HAL_PCD_IRQHandler+0x586>
 800e938:	9b05      	ldr	r3, [sp, #20]
 800e93a:	f009 010f 	and.w	r1, r9, #15
 800e93e:	f8d3 2834 	ldr.w	r2, [r3, #2100]	; 0x834
 800e942:	2001      	movs	r0, #1
 800e944:	fa00 f101 	lsl.w	r1, r0, r1
 800e948:	ea22 0201 	bic.w	r2, r2, r1
 800e94c:	f8c3 2834 	str.w	r2, [r3, #2100]	; 0x834
 800e950:	e01b      	b.n	800e98a <HAL_PCD_IRQHandler+0x5be>
 800e952:	eba3 0802 	sub.w	r8, r3, r2
 800e956:	6cbb      	ldr	r3, [r7, #72]	; 0x48
 800e958:	9805      	ldr	r0, [sp, #20]
 800e95a:	4598      	cmp	r8, r3
 800e95c:	bf28      	it	cs
 800e95e:	4698      	movcs	r8, r3
 800e960:	f108 0303 	add.w	r3, r8, #3
 800e964:	089b      	lsrs	r3, r3, #2
 800e966:	9306      	str	r3, [sp, #24]
 800e968:	7c23      	ldrb	r3, [r4, #16]
 800e96a:	9300      	str	r3, [sp, #0]
 800e96c:	6cf9      	ldr	r1, [r7, #76]	; 0x4c
 800e96e:	fa1f f388 	uxth.w	r3, r8
 800e972:	465a      	mov	r2, fp
 800e974:	f001 ff7a 	bl	801086c <USB_WritePacket>
 800e978:	6cfb      	ldr	r3, [r7, #76]	; 0x4c
 800e97a:	4443      	add	r3, r8
 800e97c:	64fb      	str	r3, [r7, #76]	; 0x4c
 800e97e:	6dfb      	ldr	r3, [r7, #92]	; 0x5c
 800e980:	4443      	add	r3, r8
 800e982:	65fb      	str	r3, [r7, #92]	; 0x5c
 800e984:	e7ce      	b.n	800e924 <HAL_PCD_IRQHandler+0x558>
 800e986:	429a      	cmp	r2, r3
 800e988:	d2d6      	bcs.n	800e938 <HAL_PCD_IRQHandler+0x56c>
 800e98a:	9b04      	ldr	r3, [sp, #16]
 800e98c:	085b      	lsrs	r3, r3, #1
 800e98e:	f109 0901 	add.w	r9, r9, #1
 800e992:	9304      	str	r3, [sp, #16]
 800e994:	3724      	adds	r7, #36	; 0x24
 800e996:	f10a 0a20 	add.w	sl, sl, #32
 800e99a:	e582      	b.n	800e4a2 <HAL_PCD_IRQHandler+0xd6>
 800e99c:	4620      	mov	r0, r4
 800e99e:	f005 fa95 	bl	8013ecc <HAL_PCD_ResumeCallback>
 800e9a2:	e596      	b.n	800e4d2 <HAL_PCD_IRQHandler+0x106>
 800e9a4:	4f54300a 	.word	0x4f54300a
 800e9a8:	4f54310a 	.word	0x4f54310a
 800e9ac:	6099      	str	r1, [r3, #8]
 800e9ae:	681a      	ldr	r2, [r3, #0]
 800e9b0:	f422 1200 	bic.w	r2, r2, #2097152	; 0x200000
 800e9b4:	601a      	str	r2, [r3, #0]
 800e9b6:	f8c3 1208 	str.w	r1, [r3, #520]	; 0x208
 800e9ba:	f8d3 2200 	ldr.w	r2, [r3, #512]	; 0x200
 800e9be:	f422 1200 	bic.w	r2, r2, #2097152	; 0x200000
 800e9c2:	f8c3 2200 	str.w	r2, [r3, #512]	; 0x200
 800e9c6:	f8d3 2200 	ldr.w	r2, [r3, #512]	; 0x200
 800e9ca:	f042 6200 	orr.w	r2, r2, #134217728	; 0x8000000
 800e9ce:	f8c3 2200 	str.w	r2, [r3, #512]	; 0x200
 800e9d2:	9a03      	ldr	r2, [sp, #12]
 800e9d4:	3201      	adds	r2, #1
 800e9d6:	9203      	str	r2, [sp, #12]
 800e9d8:	3320      	adds	r3, #32
 800e9da:	e5a0      	b.n	800e51e <HAL_PCD_IRQHandler+0x152>
 800e9dc:	696b      	ldr	r3, [r5, #20]
 800e9de:	f443 5300 	orr.w	r3, r3, #8192	; 0x2000
 800e9e2:	f043 032b 	orr.w	r3, r3, #43	; 0x2b
 800e9e6:	616b      	str	r3, [r5, #20]
 800e9e8:	692b      	ldr	r3, [r5, #16]
 800e9ea:	f043 030b 	orr.w	r3, r3, #11
 800e9ee:	612b      	str	r3, [r5, #16]
 800e9f0:	e5ac      	b.n	800e54c <HAL_PCD_IRQHandler+0x180>
 800e9f2:	69b3      	ldr	r3, [r6, #24]
 800e9f4:	f023 0380 	bic.w	r3, r3, #128	; 0x80
 800e9f8:	61b3      	str	r3, [r6, #24]
 800e9fa:	2701      	movs	r7, #1
 800e9fc:	f204 287f 	addw	r8, r4, #639	; 0x27f
 800ea00:	f04f 0924 	mov.w	r9, #36	; 0x24
 800ea04:	6863      	ldr	r3, [r4, #4]
 800ea06:	42bb      	cmp	r3, r7
 800ea08:	f67f ade0 	bls.w	800e5cc <HAL_PCD_IRQHandler+0x200>
 800ea0c:	fb09 f307 	mul.w	r3, r9, r7
 800ea10:	f818 3003 	ldrb.w	r3, [r8, r3]
 800ea14:	2b01      	cmp	r3, #1
 800ea16:	d103      	bne.n	800ea20 <HAL_PCD_IRQHandler+0x654>
 800ea18:	b2f9      	uxtb	r1, r7
 800ea1a:	4620      	mov	r0, r4
 800ea1c:	f7ff fcc5 	bl	800e3aa <HAL_PCD_EP_Abort>
 800ea20:	3701      	adds	r7, #1
 800ea22:	e7ef      	b.n	800ea04 <HAL_PCD_IRQHandler+0x638>
 800ea24:	f898 3064 	ldrb.w	r3, [r8, #100]	; 0x64
 800ea28:	f8d9 2000 	ldr.w	r2, [r9]
 800ea2c:	2b01      	cmp	r3, #1
 800ea2e:	d109      	bne.n	800ea44 <HAL_PCD_IRQHandler+0x678>
 800ea30:	2a00      	cmp	r2, #0
 800ea32:	da07      	bge.n	800ea44 <HAL_PCD_IRQHandler+0x678>
 800ea34:	f067 017f 	orn	r1, r7, #127	; 0x7f
 800ea38:	f888 3063 	strb.w	r3, [r8, #99]	; 0x63
 800ea3c:	b2c9      	uxtb	r1, r1
 800ea3e:	4620      	mov	r0, r4
 800ea40:	f7ff fcb3 	bl	800e3aa <HAL_PCD_EP_Abort>
 800ea44:	3701      	adds	r7, #1
 800ea46:	f108 0824 	add.w	r8, r8, #36	; 0x24
 800ea4a:	f109 0920 	add.w	r9, r9, #32
 800ea4e:	e5c6      	b.n	800e5de <HAL_PCD_IRQHandler+0x212>
 800ea50:	3101      	adds	r1, #1
 800ea52:	3324      	adds	r3, #36	; 0x24
 800ea54:	3020      	adds	r0, #32
 800ea56:	e5d6      	b.n	800e606 <HAL_PCD_IRQHandler+0x23a>

0800ea58 <HAL_PCDEx_SetTxFiFo>:
 800ea58:	6800      	ldr	r0, [r0, #0]
 800ea5a:	b570      	push	{r4, r5, r6, lr}
 800ea5c:	0412      	lsls	r2, r2, #16
 800ea5e:	6a44      	ldr	r4, [r0, #36]	; 0x24
 800ea60:	b919      	cbnz	r1, 800ea6a <HAL_PCDEx_SetTxFiFo+0x12>
 800ea62:	4322      	orrs	r2, r4
 800ea64:	6282      	str	r2, [r0, #40]	; 0x28
 800ea66:	2000      	movs	r0, #0
 800ea68:	bd70      	pop	{r4, r5, r6, pc}
 800ea6a:	6a83      	ldr	r3, [r0, #40]	; 0x28
 800ea6c:	1e4d      	subs	r5, r1, #1
 800ea6e:	eb04 4413 	add.w	r4, r4, r3, lsr #16
 800ea72:	2300      	movs	r3, #0
 800ea74:	1c5e      	adds	r6, r3, #1
 800ea76:	b2db      	uxtb	r3, r3
 800ea78:	429d      	cmp	r5, r3
 800ea7a:	d805      	bhi.n	800ea88 <HAL_PCDEx_SetTxFiFo+0x30>
 800ea7c:	313f      	adds	r1, #63	; 0x3f
 800ea7e:	eb00 0081 	add.w	r0, r0, r1, lsl #2
 800ea82:	4322      	orrs	r2, r4
 800ea84:	6042      	str	r2, [r0, #4]
 800ea86:	e7ee      	b.n	800ea66 <HAL_PCDEx_SetTxFiFo+0xe>
 800ea88:	3340      	adds	r3, #64	; 0x40
 800ea8a:	eb00 0383 	add.w	r3, r0, r3, lsl #2
 800ea8e:	685b      	ldr	r3, [r3, #4]
 800ea90:	eb04 4413 	add.w	r4, r4, r3, lsr #16
 800ea94:	4633      	mov	r3, r6
 800ea96:	e7ed      	b.n	800ea74 <HAL_PCDEx_SetTxFiFo+0x1c>

0800ea98 <HAL_PCDEx_SetRxFiFo>:
 800ea98:	6803      	ldr	r3, [r0, #0]
 800ea9a:	2000      	movs	r0, #0
 800ea9c:	6259      	str	r1, [r3, #36]	; 0x24
 800ea9e:	4770      	bx	lr

0800eaa0 <HAL_PCDEx_LPM_Callback>:
 800eaa0:	4770      	bx	lr
	...

0800eaa4 <HAL_RCC_OscConfig>:
 800eaa4:	e92d 41f3 	stmdb	sp!, {r0, r1, r4, r5, r6, r7, r8, lr}
 800eaa8:	4604      	mov	r4, r0
 800eaaa:	b340      	cbz	r0, 800eafe <HAL_RCC_OscConfig+0x5a>
 800eaac:	6803      	ldr	r3, [r0, #0]
 800eaae:	07dd      	lsls	r5, r3, #31
 800eab0:	d410      	bmi.n	800ead4 <HAL_RCC_OscConfig+0x30>
 800eab2:	6823      	ldr	r3, [r4, #0]
 800eab4:	0798      	lsls	r0, r3, #30
 800eab6:	d45e      	bmi.n	800eb76 <HAL_RCC_OscConfig+0xd2>
 800eab8:	6823      	ldr	r3, [r4, #0]
 800eaba:	071a      	lsls	r2, r3, #28
 800eabc:	f100 80a0 	bmi.w	800ec00 <HAL_RCC_OscConfig+0x15c>
 800eac0:	6823      	ldr	r3, [r4, #0]
 800eac2:	075b      	lsls	r3, r3, #29
 800eac4:	f100 80c0 	bmi.w	800ec48 <HAL_RCC_OscConfig+0x1a4>
 800eac8:	69a0      	ldr	r0, [r4, #24]
 800eaca:	2800      	cmp	r0, #0
 800eacc:	f040 8128 	bne.w	800ed20 <HAL_RCC_OscConfig+0x27c>
 800ead0:	2000      	movs	r0, #0
 800ead2:	e02b      	b.n	800eb2c <HAL_RCC_OscConfig+0x88>
 800ead4:	4b8f      	ldr	r3, [pc, #572]	; (800ed14 <HAL_RCC_OscConfig+0x270>)
 800ead6:	689a      	ldr	r2, [r3, #8]
 800ead8:	f002 020c 	and.w	r2, r2, #12
 800eadc:	2a04      	cmp	r2, #4
 800eade:	d007      	beq.n	800eaf0 <HAL_RCC_OscConfig+0x4c>
 800eae0:	689a      	ldr	r2, [r3, #8]
 800eae2:	f002 020c 	and.w	r2, r2, #12
 800eae6:	2a08      	cmp	r2, #8
 800eae8:	d10b      	bne.n	800eb02 <HAL_RCC_OscConfig+0x5e>
 800eaea:	685a      	ldr	r2, [r3, #4]
 800eaec:	0251      	lsls	r1, r2, #9
 800eaee:	d508      	bpl.n	800eb02 <HAL_RCC_OscConfig+0x5e>
 800eaf0:	4b88      	ldr	r3, [pc, #544]	; (800ed14 <HAL_RCC_OscConfig+0x270>)
 800eaf2:	681b      	ldr	r3, [r3, #0]
 800eaf4:	039a      	lsls	r2, r3, #14
 800eaf6:	d5dc      	bpl.n	800eab2 <HAL_RCC_OscConfig+0xe>
 800eaf8:	6863      	ldr	r3, [r4, #4]
 800eafa:	2b00      	cmp	r3, #0
 800eafc:	d1d9      	bne.n	800eab2 <HAL_RCC_OscConfig+0xe>
 800eafe:	2001      	movs	r0, #1
 800eb00:	e014      	b.n	800eb2c <HAL_RCC_OscConfig+0x88>
 800eb02:	6862      	ldr	r2, [r4, #4]
 800eb04:	f5b2 3f80 	cmp.w	r2, #65536	; 0x10000
 800eb08:	d113      	bne.n	800eb32 <HAL_RCC_OscConfig+0x8e>
 800eb0a:	681a      	ldr	r2, [r3, #0]
 800eb0c:	f442 3280 	orr.w	r2, r2, #65536	; 0x10000
 800eb10:	601a      	str	r2, [r3, #0]
 800eb12:	f7fd fd9f 	bl	800c654 <HAL_GetTick>
 800eb16:	4e7f      	ldr	r6, [pc, #508]	; (800ed14 <HAL_RCC_OscConfig+0x270>)
 800eb18:	4605      	mov	r5, r0
 800eb1a:	6833      	ldr	r3, [r6, #0]
 800eb1c:	039b      	lsls	r3, r3, #14
 800eb1e:	d4c8      	bmi.n	800eab2 <HAL_RCC_OscConfig+0xe>
 800eb20:	f7fd fd98 	bl	800c654 <HAL_GetTick>
 800eb24:	1b40      	subs	r0, r0, r5
 800eb26:	2864      	cmp	r0, #100	; 0x64
 800eb28:	d9f7      	bls.n	800eb1a <HAL_RCC_OscConfig+0x76>
 800eb2a:	2003      	movs	r0, #3
 800eb2c:	b002      	add	sp, #8
 800eb2e:	e8bd 81f0 	ldmia.w	sp!, {r4, r5, r6, r7, r8, pc}
 800eb32:	4d78      	ldr	r5, [pc, #480]	; (800ed14 <HAL_RCC_OscConfig+0x270>)
 800eb34:	f5b2 2fa0 	cmp.w	r2, #327680	; 0x50000
 800eb38:	682b      	ldr	r3, [r5, #0]
 800eb3a:	d107      	bne.n	800eb4c <HAL_RCC_OscConfig+0xa8>
 800eb3c:	f443 2380 	orr.w	r3, r3, #262144	; 0x40000
 800eb40:	602b      	str	r3, [r5, #0]
 800eb42:	682b      	ldr	r3, [r5, #0]
 800eb44:	f443 3380 	orr.w	r3, r3, #65536	; 0x10000
 800eb48:	602b      	str	r3, [r5, #0]
 800eb4a:	e7e2      	b.n	800eb12 <HAL_RCC_OscConfig+0x6e>
 800eb4c:	f423 3380 	bic.w	r3, r3, #65536	; 0x10000
 800eb50:	602b      	str	r3, [r5, #0]
 800eb52:	682b      	ldr	r3, [r5, #0]
 800eb54:	f423 2380 	bic.w	r3, r3, #262144	; 0x40000
 800eb58:	602b      	str	r3, [r5, #0]
 800eb5a:	2a00      	cmp	r2, #0
 800eb5c:	d1d9      	bne.n	800eb12 <HAL_RCC_OscConfig+0x6e>
 800eb5e:	f7fd fd79 	bl	800c654 <HAL_GetTick>
 800eb62:	4606      	mov	r6, r0
 800eb64:	682b      	ldr	r3, [r5, #0]
 800eb66:	039f      	lsls	r7, r3, #14
 800eb68:	d5a3      	bpl.n	800eab2 <HAL_RCC_OscConfig+0xe>
 800eb6a:	f7fd fd73 	bl	800c654 <HAL_GetTick>
 800eb6e:	1b80      	subs	r0, r0, r6
 800eb70:	2864      	cmp	r0, #100	; 0x64
 800eb72:	d9f7      	bls.n	800eb64 <HAL_RCC_OscConfig+0xc0>
 800eb74:	e7d9      	b.n	800eb2a <HAL_RCC_OscConfig+0x86>
 800eb76:	4b67      	ldr	r3, [pc, #412]	; (800ed14 <HAL_RCC_OscConfig+0x270>)
 800eb78:	689a      	ldr	r2, [r3, #8]
 800eb7a:	f012 0f0c 	tst.w	r2, #12
 800eb7e:	d007      	beq.n	800eb90 <HAL_RCC_OscConfig+0xec>
 800eb80:	689a      	ldr	r2, [r3, #8]
 800eb82:	f002 020c 	and.w	r2, r2, #12
 800eb86:	2a08      	cmp	r2, #8
 800eb88:	d111      	bne.n	800ebae <HAL_RCC_OscConfig+0x10a>
 800eb8a:	685b      	ldr	r3, [r3, #4]
 800eb8c:	025e      	lsls	r6, r3, #9
 800eb8e:	d40e      	bmi.n	800ebae <HAL_RCC_OscConfig+0x10a>
 800eb90:	4a60      	ldr	r2, [pc, #384]	; (800ed14 <HAL_RCC_OscConfig+0x270>)
 800eb92:	6813      	ldr	r3, [r2, #0]
 800eb94:	079d      	lsls	r5, r3, #30
 800eb96:	d502      	bpl.n	800eb9e <HAL_RCC_OscConfig+0xfa>
 800eb98:	68e3      	ldr	r3, [r4, #12]
 800eb9a:	2b01      	cmp	r3, #1
 800eb9c:	d1af      	bne.n	800eafe <HAL_RCC_OscConfig+0x5a>
 800eb9e:	6813      	ldr	r3, [r2, #0]
 800eba0:	6921      	ldr	r1, [r4, #16]
 800eba2:	f023 03f8 	bic.w	r3, r3, #248	; 0xf8
 800eba6:	ea43 03c1 	orr.w	r3, r3, r1, lsl #3
 800ebaa:	6013      	str	r3, [r2, #0]
 800ebac:	e784      	b.n	800eab8 <HAL_RCC_OscConfig+0x14>
 800ebae:	68e2      	ldr	r2, [r4, #12]
 800ebb0:	4b59      	ldr	r3, [pc, #356]	; (800ed18 <HAL_RCC_OscConfig+0x274>)
 800ebb2:	b1b2      	cbz	r2, 800ebe2 <HAL_RCC_OscConfig+0x13e>
 800ebb4:	2201      	movs	r2, #1
 800ebb6:	601a      	str	r2, [r3, #0]
 800ebb8:	f7fd fd4c 	bl	800c654 <HAL_GetTick>
 800ebbc:	4d55      	ldr	r5, [pc, #340]	; (800ed14 <HAL_RCC_OscConfig+0x270>)
 800ebbe:	4606      	mov	r6, r0
 800ebc0:	682b      	ldr	r3, [r5, #0]
 800ebc2:	0798      	lsls	r0, r3, #30
 800ebc4:	d507      	bpl.n	800ebd6 <HAL_RCC_OscConfig+0x132>
 800ebc6:	682b      	ldr	r3, [r5, #0]
 800ebc8:	6922      	ldr	r2, [r4, #16]
 800ebca:	f023 03f8 	bic.w	r3, r3, #248	; 0xf8
 800ebce:	ea43 03c2 	orr.w	r3, r3, r2, lsl #3
 800ebd2:	602b      	str	r3, [r5, #0]
 800ebd4:	e770      	b.n	800eab8 <HAL_RCC_OscConfig+0x14>
 800ebd6:	f7fd fd3d 	bl	800c654 <HAL_GetTick>
 800ebda:	1b80      	subs	r0, r0, r6
 800ebdc:	2802      	cmp	r0, #2
 800ebde:	d9ef      	bls.n	800ebc0 <HAL_RCC_OscConfig+0x11c>
 800ebe0:	e7a3      	b.n	800eb2a <HAL_RCC_OscConfig+0x86>
 800ebe2:	601a      	str	r2, [r3, #0]
 800ebe4:	f7fd fd36 	bl	800c654 <HAL_GetTick>
 800ebe8:	4e4a      	ldr	r6, [pc, #296]	; (800ed14 <HAL_RCC_OscConfig+0x270>)
 800ebea:	4605      	mov	r5, r0
 800ebec:	6833      	ldr	r3, [r6, #0]
 800ebee:	0799      	lsls	r1, r3, #30
 800ebf0:	f57f af62 	bpl.w	800eab8 <HAL_RCC_OscConfig+0x14>
 800ebf4:	f7fd fd2e 	bl	800c654 <HAL_GetTick>
 800ebf8:	1b40      	subs	r0, r0, r5
 800ebfa:	2802      	cmp	r0, #2
 800ebfc:	d9f6      	bls.n	800ebec <HAL_RCC_OscConfig+0x148>
 800ebfe:	e794      	b.n	800eb2a <HAL_RCC_OscConfig+0x86>
 800ec00:	6962      	ldr	r2, [r4, #20]
 800ec02:	4b45      	ldr	r3, [pc, #276]	; (800ed18 <HAL_RCC_OscConfig+0x274>)
 800ec04:	b182      	cbz	r2, 800ec28 <HAL_RCC_OscConfig+0x184>
 800ec06:	2201      	movs	r2, #1
 800ec08:	f8c3 2e80 	str.w	r2, [r3, #3712]	; 0xe80
 800ec0c:	f7fd fd22 	bl	800c654 <HAL_GetTick>
 800ec10:	4e40      	ldr	r6, [pc, #256]	; (800ed14 <HAL_RCC_OscConfig+0x270>)
 800ec12:	4605      	mov	r5, r0
 800ec14:	6f73      	ldr	r3, [r6, #116]	; 0x74
 800ec16:	079f      	lsls	r7, r3, #30
 800ec18:	f53f af52 	bmi.w	800eac0 <HAL_RCC_OscConfig+0x1c>
 800ec1c:	f7fd fd1a 	bl	800c654 <HAL_GetTick>
 800ec20:	1b40      	subs	r0, r0, r5
 800ec22:	2802      	cmp	r0, #2
 800ec24:	d9f6      	bls.n	800ec14 <HAL_RCC_OscConfig+0x170>
 800ec26:	e780      	b.n	800eb2a <HAL_RCC_OscConfig+0x86>
 800ec28:	f8c3 2e80 	str.w	r2, [r3, #3712]	; 0xe80
 800ec2c:	f7fd fd12 	bl	800c654 <HAL_GetTick>
 800ec30:	4e38      	ldr	r6, [pc, #224]	; (800ed14 <HAL_RCC_OscConfig+0x270>)
 800ec32:	4605      	mov	r5, r0
 800ec34:	6f73      	ldr	r3, [r6, #116]	; 0x74
 800ec36:	0798      	lsls	r0, r3, #30
 800ec38:	f57f af42 	bpl.w	800eac0 <HAL_RCC_OscConfig+0x1c>
 800ec3c:	f7fd fd0a 	bl	800c654 <HAL_GetTick>
 800ec40:	1b40      	subs	r0, r0, r5
 800ec42:	2802      	cmp	r0, #2
 800ec44:	d9f6      	bls.n	800ec34 <HAL_RCC_OscConfig+0x190>
 800ec46:	e770      	b.n	800eb2a <HAL_RCC_OscConfig+0x86>
 800ec48:	4b32      	ldr	r3, [pc, #200]	; (800ed14 <HAL_RCC_OscConfig+0x270>)
 800ec4a:	6c1a      	ldr	r2, [r3, #64]	; 0x40
 800ec4c:	f012 5280 	ands.w	r2, r2, #268435456	; 0x10000000
 800ec50:	d128      	bne.n	800eca4 <HAL_RCC_OscConfig+0x200>
 800ec52:	9201      	str	r2, [sp, #4]
 800ec54:	6c1a      	ldr	r2, [r3, #64]	; 0x40
 800ec56:	f042 5280 	orr.w	r2, r2, #268435456	; 0x10000000
 800ec5a:	641a      	str	r2, [r3, #64]	; 0x40
 800ec5c:	6c1b      	ldr	r3, [r3, #64]	; 0x40
 800ec5e:	f003 5380 	and.w	r3, r3, #268435456	; 0x10000000
 800ec62:	9301      	str	r3, [sp, #4]
 800ec64:	9b01      	ldr	r3, [sp, #4]
 800ec66:	2701      	movs	r7, #1
 800ec68:	4d2c      	ldr	r5, [pc, #176]	; (800ed1c <HAL_RCC_OscConfig+0x278>)
 800ec6a:	682b      	ldr	r3, [r5, #0]
 800ec6c:	05d9      	lsls	r1, r3, #23
 800ec6e:	d51b      	bpl.n	800eca8 <HAL_RCC_OscConfig+0x204>
 800ec70:	68a3      	ldr	r3, [r4, #8]
 800ec72:	4d28      	ldr	r5, [pc, #160]	; (800ed14 <HAL_RCC_OscConfig+0x270>)
 800ec74:	2b01      	cmp	r3, #1
 800ec76:	d127      	bne.n	800ecc8 <HAL_RCC_OscConfig+0x224>
 800ec78:	6f2b      	ldr	r3, [r5, #112]	; 0x70
 800ec7a:	f043 0301 	orr.w	r3, r3, #1
 800ec7e:	672b      	str	r3, [r5, #112]	; 0x70
 800ec80:	f7fd fce8 	bl	800c654 <HAL_GetTick>
 800ec84:	4e23      	ldr	r6, [pc, #140]	; (800ed14 <HAL_RCC_OscConfig+0x270>)
 800ec86:	4605      	mov	r5, r0
 800ec88:	f241 3888 	movw	r8, #5000	; 0x1388
 800ec8c:	6f33      	ldr	r3, [r6, #112]	; 0x70
 800ec8e:	079b      	lsls	r3, r3, #30
 800ec90:	d539      	bpl.n	800ed06 <HAL_RCC_OscConfig+0x262>
 800ec92:	2f00      	cmp	r7, #0
 800ec94:	f43f af18 	beq.w	800eac8 <HAL_RCC_OscConfig+0x24>
 800ec98:	4a1e      	ldr	r2, [pc, #120]	; (800ed14 <HAL_RCC_OscConfig+0x270>)
 800ec9a:	6c13      	ldr	r3, [r2, #64]	; 0x40
 800ec9c:	f023 5380 	bic.w	r3, r3, #268435456	; 0x10000000
 800eca0:	6413      	str	r3, [r2, #64]	; 0x40
 800eca2:	e711      	b.n	800eac8 <HAL_RCC_OscConfig+0x24>
 800eca4:	2700      	movs	r7, #0
 800eca6:	e7df      	b.n	800ec68 <HAL_RCC_OscConfig+0x1c4>
 800eca8:	682b      	ldr	r3, [r5, #0]
 800ecaa:	f443 7380 	orr.w	r3, r3, #256	; 0x100
 800ecae:	602b      	str	r3, [r5, #0]
 800ecb0:	f7fd fcd0 	bl	800c654 <HAL_GetTick>
 800ecb4:	4606      	mov	r6, r0
 800ecb6:	682b      	ldr	r3, [r5, #0]
 800ecb8:	05da      	lsls	r2, r3, #23
 800ecba:	d4d9      	bmi.n	800ec70 <HAL_RCC_OscConfig+0x1cc>
 800ecbc:	f7fd fcca 	bl	800c654 <HAL_GetTick>
 800ecc0:	1b80      	subs	r0, r0, r6
 800ecc2:	2802      	cmp	r0, #2
 800ecc4:	d9f7      	bls.n	800ecb6 <HAL_RCC_OscConfig+0x212>
 800ecc6:	e730      	b.n	800eb2a <HAL_RCC_OscConfig+0x86>
 800ecc8:	2b05      	cmp	r3, #5
 800ecca:	d104      	bne.n	800ecd6 <HAL_RCC_OscConfig+0x232>
 800eccc:	6f2b      	ldr	r3, [r5, #112]	; 0x70
 800ecce:	f043 0304 	orr.w	r3, r3, #4
 800ecd2:	672b      	str	r3, [r5, #112]	; 0x70
 800ecd4:	e7d0      	b.n	800ec78 <HAL_RCC_OscConfig+0x1d4>
 800ecd6:	6f2a      	ldr	r2, [r5, #112]	; 0x70
 800ecd8:	f022 0201 	bic.w	r2, r2, #1
 800ecdc:	672a      	str	r2, [r5, #112]	; 0x70
 800ecde:	6f2a      	ldr	r2, [r5, #112]	; 0x70
 800ece0:	f022 0204 	bic.w	r2, r2, #4
 800ece4:	672a      	str	r2, [r5, #112]	; 0x70
 800ece6:	2b00      	cmp	r3, #0
 800ece8:	d1ca      	bne.n	800ec80 <HAL_RCC_OscConfig+0x1dc>
 800ecea:	f7fd fcb3 	bl	800c654 <HAL_GetTick>
 800ecee:	f241 3888 	movw	r8, #5000	; 0x1388
 800ecf2:	4606      	mov	r6, r0
 800ecf4:	6f2b      	ldr	r3, [r5, #112]	; 0x70
 800ecf6:	0798      	lsls	r0, r3, #30
 800ecf8:	d5cb      	bpl.n	800ec92 <HAL_RCC_OscConfig+0x1ee>
 800ecfa:	f7fd fcab 	bl	800c654 <HAL_GetTick>
 800ecfe:	1b80      	subs	r0, r0, r6
 800ed00:	4540      	cmp	r0, r8
 800ed02:	d9f7      	bls.n	800ecf4 <HAL_RCC_OscConfig+0x250>
 800ed04:	e711      	b.n	800eb2a <HAL_RCC_OscConfig+0x86>
 800ed06:	f7fd fca5 	bl	800c654 <HAL_GetTick>
 800ed0a:	1b40      	subs	r0, r0, r5
 800ed0c:	4540      	cmp	r0, r8
 800ed0e:	d9bd      	bls.n	800ec8c <HAL_RCC_OscConfig+0x1e8>
 800ed10:	e70b      	b.n	800eb2a <HAL_RCC_OscConfig+0x86>
 800ed12:	bf00      	nop
 800ed14:	40023800 	.word	0x40023800
 800ed18:	42470000 	.word	0x42470000
 800ed1c:	40007000 	.word	0x40007000
 800ed20:	4d36      	ldr	r5, [pc, #216]	; (800edfc <HAL_RCC_OscConfig+0x358>)
 800ed22:	68ab      	ldr	r3, [r5, #8]
 800ed24:	f003 030c 	and.w	r3, r3, #12
 800ed28:	2b08      	cmp	r3, #8
 800ed2a:	d03d      	beq.n	800eda8 <HAL_RCC_OscConfig+0x304>
 800ed2c:	4b34      	ldr	r3, [pc, #208]	; (800ee00 <HAL_RCC_OscConfig+0x35c>)
 800ed2e:	2200      	movs	r2, #0
 800ed30:	2802      	cmp	r0, #2
 800ed32:	661a      	str	r2, [r3, #96]	; 0x60
 800ed34:	d12b      	bne.n	800ed8e <HAL_RCC_OscConfig+0x2ea>
 800ed36:	f7fd fc8d 	bl	800c654 <HAL_GetTick>
 800ed3a:	4606      	mov	r6, r0
 800ed3c:	682b      	ldr	r3, [r5, #0]
 800ed3e:	0199      	lsls	r1, r3, #6
 800ed40:	d41f      	bmi.n	800ed82 <HAL_RCC_OscConfig+0x2de>
 800ed42:	e9d4 3207 	ldrd	r3, r2, [r4, #28]
 800ed46:	4313      	orrs	r3, r2
 800ed48:	6a62      	ldr	r2, [r4, #36]	; 0x24
 800ed4a:	ea43 1382 	orr.w	r3, r3, r2, lsl #6
 800ed4e:	6ae2      	ldr	r2, [r4, #44]	; 0x2c
 800ed50:	ea43 6302 	orr.w	r3, r3, r2, lsl #24
 800ed54:	6aa2      	ldr	r2, [r4, #40]	; 0x28
 800ed56:	0852      	lsrs	r2, r2, #1
 800ed58:	3a01      	subs	r2, #1
 800ed5a:	ea43 4302 	orr.w	r3, r3, r2, lsl #16
 800ed5e:	606b      	str	r3, [r5, #4]
 800ed60:	4b27      	ldr	r3, [pc, #156]	; (800ee00 <HAL_RCC_OscConfig+0x35c>)
 800ed62:	4d26      	ldr	r5, [pc, #152]	; (800edfc <HAL_RCC_OscConfig+0x358>)
 800ed64:	2201      	movs	r2, #1
 800ed66:	661a      	str	r2, [r3, #96]	; 0x60
 800ed68:	f7fd fc74 	bl	800c654 <HAL_GetTick>
 800ed6c:	4604      	mov	r4, r0
 800ed6e:	682b      	ldr	r3, [r5, #0]
 800ed70:	019a      	lsls	r2, r3, #6
 800ed72:	f53f aead 	bmi.w	800ead0 <HAL_RCC_OscConfig+0x2c>
 800ed76:	f7fd fc6d 	bl	800c654 <HAL_GetTick>
 800ed7a:	1b00      	subs	r0, r0, r4
 800ed7c:	2802      	cmp	r0, #2
 800ed7e:	d9f6      	bls.n	800ed6e <HAL_RCC_OscConfig+0x2ca>
 800ed80:	e6d3      	b.n	800eb2a <HAL_RCC_OscConfig+0x86>
 800ed82:	f7fd fc67 	bl	800c654 <HAL_GetTick>
 800ed86:	1b80      	subs	r0, r0, r6
 800ed88:	2802      	cmp	r0, #2
 800ed8a:	d9d7      	bls.n	800ed3c <HAL_RCC_OscConfig+0x298>
 800ed8c:	e6cd      	b.n	800eb2a <HAL_RCC_OscConfig+0x86>
 800ed8e:	f7fd fc61 	bl	800c654 <HAL_GetTick>
 800ed92:	4604      	mov	r4, r0
 800ed94:	682b      	ldr	r3, [r5, #0]
 800ed96:	019b      	lsls	r3, r3, #6
 800ed98:	f57f ae9a 	bpl.w	800ead0 <HAL_RCC_OscConfig+0x2c>
 800ed9c:	f7fd fc5a 	bl	800c654 <HAL_GetTick>
 800eda0:	1b00      	subs	r0, r0, r4
 800eda2:	2802      	cmp	r0, #2
 800eda4:	d9f6      	bls.n	800ed94 <HAL_RCC_OscConfig+0x2f0>
 800eda6:	e6c0      	b.n	800eb2a <HAL_RCC_OscConfig+0x86>
 800eda8:	2801      	cmp	r0, #1
 800edaa:	f43f aebf 	beq.w	800eb2c <HAL_RCC_OscConfig+0x88>
 800edae:	686b      	ldr	r3, [r5, #4]
 800edb0:	69e2      	ldr	r2, [r4, #28]
 800edb2:	f403 0180 	and.w	r1, r3, #4194304	; 0x400000
 800edb6:	4291      	cmp	r1, r2
 800edb8:	f47f aea1 	bne.w	800eafe <HAL_RCC_OscConfig+0x5a>
 800edbc:	6a21      	ldr	r1, [r4, #32]
 800edbe:	f003 023f 	and.w	r2, r3, #63	; 0x3f
 800edc2:	428a      	cmp	r2, r1
 800edc4:	f47f ae9b 	bne.w	800eafe <HAL_RCC_OscConfig+0x5a>
 800edc8:	6a61      	ldr	r1, [r4, #36]	; 0x24
 800edca:	f647 72c0 	movw	r2, #32704	; 0x7fc0
 800edce:	401a      	ands	r2, r3
 800edd0:	ebb2 1f81 	cmp.w	r2, r1, lsl #6
 800edd4:	f47f ae93 	bne.w	800eafe <HAL_RCC_OscConfig+0x5a>
 800edd8:	6aa2      	ldr	r2, [r4, #40]	; 0x28
 800edda:	0852      	lsrs	r2, r2, #1
 800eddc:	f403 3140 	and.w	r1, r3, #196608	; 0x30000
 800ede0:	3a01      	subs	r2, #1
 800ede2:	ebb1 4f02 	cmp.w	r1, r2, lsl #16
 800ede6:	f47f ae8a 	bne.w	800eafe <HAL_RCC_OscConfig+0x5a>
 800edea:	6ae2      	ldr	r2, [r4, #44]	; 0x2c
 800edec:	f003 6370 	and.w	r3, r3, #251658240	; 0xf000000
 800edf0:	ebb3 6f02 	cmp.w	r3, r2, lsl #24
 800edf4:	f43f ae6c 	beq.w	800ead0 <HAL_RCC_OscConfig+0x2c>
 800edf8:	e681      	b.n	800eafe <HAL_RCC_OscConfig+0x5a>
 800edfa:	bf00      	nop
 800edfc:	40023800 	.word	0x40023800
 800ee00:	42470000 	.word	0x42470000

0800ee04 <HAL_RCC_GetSysClockFreq>:
 800ee04:	4913      	ldr	r1, [pc, #76]	; (800ee54 <HAL_RCC_GetSysClockFreq+0x50>)
 800ee06:	b508      	push	{r3, lr}
 800ee08:	688b      	ldr	r3, [r1, #8]
 800ee0a:	f003 030c 	and.w	r3, r3, #12
 800ee0e:	2b04      	cmp	r3, #4
 800ee10:	d01c      	beq.n	800ee4c <HAL_RCC_GetSysClockFreq+0x48>
 800ee12:	2b08      	cmp	r3, #8
 800ee14:	d11c      	bne.n	800ee50 <HAL_RCC_GetSysClockFreq+0x4c>
 800ee16:	684a      	ldr	r2, [r1, #4]
 800ee18:	684b      	ldr	r3, [r1, #4]
 800ee1a:	6849      	ldr	r1, [r1, #4]
 800ee1c:	f413 0380 	ands.w	r3, r3, #4194304	; 0x400000
 800ee20:	bf14      	ite	ne
 800ee22:	480d      	ldrne	r0, [pc, #52]	; (800ee58 <HAL_RCC_GetSysClockFreq+0x54>)
 800ee24:	480d      	ldreq	r0, [pc, #52]	; (800ee5c <HAL_RCC_GetSysClockFreq+0x58>)
 800ee26:	f3c1 1188 	ubfx	r1, r1, #6, #9
 800ee2a:	bf18      	it	ne
 800ee2c:	2300      	movne	r3, #0
 800ee2e:	f002 023f 	and.w	r2, r2, #63	; 0x3f
 800ee32:	fba1 0100 	umull	r0, r1, r1, r0
 800ee36:	f7f9 fea1 	bl	8008b7c <__aeabi_uldivmod>
 800ee3a:	4b06      	ldr	r3, [pc, #24]	; (800ee54 <HAL_RCC_GetSysClockFreq+0x50>)
 800ee3c:	685b      	ldr	r3, [r3, #4]
 800ee3e:	f3c3 4301 	ubfx	r3, r3, #16, #2
 800ee42:	3301      	adds	r3, #1
 800ee44:	005b      	lsls	r3, r3, #1
 800ee46:	fbb0 f0f3 	udiv	r0, r0, r3
 800ee4a:	bd08      	pop	{r3, pc}
 800ee4c:	4802      	ldr	r0, [pc, #8]	; (800ee58 <HAL_RCC_GetSysClockFreq+0x54>)
 800ee4e:	e7fc      	b.n	800ee4a <HAL_RCC_GetSysClockFreq+0x46>
 800ee50:	4802      	ldr	r0, [pc, #8]	; (800ee5c <HAL_RCC_GetSysClockFreq+0x58>)
 800ee52:	e7fa      	b.n	800ee4a <HAL_RCC_GetSysClockFreq+0x46>
 800ee54:	40023800 	.word	0x40023800
 800ee58:	017d7840 	.word	0x017d7840
 800ee5c:	00f42400 	.word	0x00f42400

0800ee60 <HAL_RCC_ClockConfig>:
 800ee60:	e92d 41f0 	stmdb	sp!, {r4, r5, r6, r7, r8, lr}
 800ee64:	460d      	mov	r5, r1
 800ee66:	4604      	mov	r4, r0
 800ee68:	b910      	cbnz	r0, 800ee70 <HAL_RCC_ClockConfig+0x10>
 800ee6a:	2001      	movs	r0, #1
 800ee6c:	e8bd 81f0 	ldmia.w	sp!, {r4, r5, r6, r7, r8, pc}
 800ee70:	4b44      	ldr	r3, [pc, #272]	; (800ef84 <HAL_RCC_ClockConfig+0x124>)
 800ee72:	681a      	ldr	r2, [r3, #0]
 800ee74:	f002 0207 	and.w	r2, r2, #7
 800ee78:	428a      	cmp	r2, r1
 800ee7a:	d328      	bcc.n	800eece <HAL_RCC_ClockConfig+0x6e>
 800ee7c:	6822      	ldr	r2, [r4, #0]
 800ee7e:	0797      	lsls	r7, r2, #30
 800ee80:	d42d      	bmi.n	800eede <HAL_RCC_ClockConfig+0x7e>
 800ee82:	07d0      	lsls	r0, r2, #31
 800ee84:	d441      	bmi.n	800ef0a <HAL_RCC_ClockConfig+0xaa>
 800ee86:	4b3f      	ldr	r3, [pc, #252]	; (800ef84 <HAL_RCC_ClockConfig+0x124>)
 800ee88:	681a      	ldr	r2, [r3, #0]
 800ee8a:	f002 0207 	and.w	r2, r2, #7
 800ee8e:	42aa      	cmp	r2, r5
 800ee90:	d866      	bhi.n	800ef60 <HAL_RCC_ClockConfig+0x100>
 800ee92:	6822      	ldr	r2, [r4, #0]
 800ee94:	0751      	lsls	r1, r2, #29
 800ee96:	d46c      	bmi.n	800ef72 <HAL_RCC_ClockConfig+0x112>
 800ee98:	0713      	lsls	r3, r2, #28
 800ee9a:	d507      	bpl.n	800eeac <HAL_RCC_ClockConfig+0x4c>
 800ee9c:	4a3a      	ldr	r2, [pc, #232]	; (800ef88 <HAL_RCC_ClockConfig+0x128>)
 800ee9e:	6921      	ldr	r1, [r4, #16]
 800eea0:	6893      	ldr	r3, [r2, #8]
 800eea2:	f423 4360 	bic.w	r3, r3, #57344	; 0xe000
 800eea6:	ea43 03c1 	orr.w	r3, r3, r1, lsl #3
 800eeaa:	6093      	str	r3, [r2, #8]
 800eeac:	f7ff ffaa 	bl	800ee04 <HAL_RCC_GetSysClockFreq>
 800eeb0:	4b35      	ldr	r3, [pc, #212]	; (800ef88 <HAL_RCC_ClockConfig+0x128>)
 800eeb2:	4a36      	ldr	r2, [pc, #216]	; (800ef8c <HAL_RCC_ClockConfig+0x12c>)
 800eeb4:	689b      	ldr	r3, [r3, #8]
 800eeb6:	f3c3 1303 	ubfx	r3, r3, #4, #4
 800eeba:	5cd3      	ldrb	r3, [r2, r3]
 800eebc:	40d8      	lsrs	r0, r3
 800eebe:	4b34      	ldr	r3, [pc, #208]	; (800ef90 <HAL_RCC_ClockConfig+0x130>)
 800eec0:	6018      	str	r0, [r3, #0]
 800eec2:	4b34      	ldr	r3, [pc, #208]	; (800ef94 <HAL_RCC_ClockConfig+0x134>)
 800eec4:	6818      	ldr	r0, [r3, #0]
 800eec6:	f7fd fa81 	bl	800c3cc <HAL_InitTick>
 800eeca:	2000      	movs	r0, #0
 800eecc:	e7ce      	b.n	800ee6c <HAL_RCC_ClockConfig+0xc>
 800eece:	b2ca      	uxtb	r2, r1
 800eed0:	701a      	strb	r2, [r3, #0]
 800eed2:	681b      	ldr	r3, [r3, #0]
 800eed4:	f003 0307 	and.w	r3, r3, #7
 800eed8:	428b      	cmp	r3, r1
 800eeda:	d1c6      	bne.n	800ee6a <HAL_RCC_ClockConfig+0xa>
 800eedc:	e7ce      	b.n	800ee7c <HAL_RCC_ClockConfig+0x1c>
 800eede:	4b2a      	ldr	r3, [pc, #168]	; (800ef88 <HAL_RCC_ClockConfig+0x128>)
 800eee0:	f012 0f04 	tst.w	r2, #4
 800eee4:	bf1e      	ittt	ne
 800eee6:	6899      	ldrne	r1, [r3, #8]
 800eee8:	f441 51e0 	orrne.w	r1, r1, #7168	; 0x1c00
 800eeec:	6099      	strne	r1, [r3, #8]
 800eeee:	0716      	lsls	r6, r2, #28
 800eef0:	bf42      	ittt	mi
 800eef2:	6899      	ldrmi	r1, [r3, #8]
 800eef4:	f441 4160 	orrmi.w	r1, r1, #57344	; 0xe000
 800eef8:	6099      	strmi	r1, [r3, #8]
 800eefa:	4923      	ldr	r1, [pc, #140]	; (800ef88 <HAL_RCC_ClockConfig+0x128>)
 800eefc:	68a0      	ldr	r0, [r4, #8]
 800eefe:	688b      	ldr	r3, [r1, #8]
 800ef00:	f023 03f0 	bic.w	r3, r3, #240	; 0xf0
 800ef04:	4303      	orrs	r3, r0
 800ef06:	608b      	str	r3, [r1, #8]
 800ef08:	e7bb      	b.n	800ee82 <HAL_RCC_ClockConfig+0x22>
 800ef0a:	6862      	ldr	r2, [r4, #4]
 800ef0c:	4b1e      	ldr	r3, [pc, #120]	; (800ef88 <HAL_RCC_ClockConfig+0x128>)
 800ef0e:	2a01      	cmp	r2, #1
 800ef10:	d11c      	bne.n	800ef4c <HAL_RCC_ClockConfig+0xec>
 800ef12:	681b      	ldr	r3, [r3, #0]
 800ef14:	f413 3f00 	tst.w	r3, #131072	; 0x20000
 800ef18:	d0a7      	beq.n	800ee6a <HAL_RCC_ClockConfig+0xa>
 800ef1a:	4e1b      	ldr	r6, [pc, #108]	; (800ef88 <HAL_RCC_ClockConfig+0x128>)
 800ef1c:	68b3      	ldr	r3, [r6, #8]
 800ef1e:	f023 0303 	bic.w	r3, r3, #3
 800ef22:	4313      	orrs	r3, r2
 800ef24:	60b3      	str	r3, [r6, #8]
 800ef26:	f7fd fb95 	bl	800c654 <HAL_GetTick>
 800ef2a:	f241 3888 	movw	r8, #5000	; 0x1388
 800ef2e:	4607      	mov	r7, r0
 800ef30:	68b3      	ldr	r3, [r6, #8]
 800ef32:	6862      	ldr	r2, [r4, #4]
 800ef34:	f003 030c 	and.w	r3, r3, #12
 800ef38:	ebb3 0f82 	cmp.w	r3, r2, lsl #2
 800ef3c:	d0a3      	beq.n	800ee86 <HAL_RCC_ClockConfig+0x26>
 800ef3e:	f7fd fb89 	bl	800c654 <HAL_GetTick>
 800ef42:	1bc0      	subs	r0, r0, r7
 800ef44:	4540      	cmp	r0, r8
 800ef46:	d9f3      	bls.n	800ef30 <HAL_RCC_ClockConfig+0xd0>
 800ef48:	2003      	movs	r0, #3
 800ef4a:	e78f      	b.n	800ee6c <HAL_RCC_ClockConfig+0xc>
 800ef4c:	1e91      	subs	r1, r2, #2
 800ef4e:	2901      	cmp	r1, #1
 800ef50:	681b      	ldr	r3, [r3, #0]
 800ef52:	d802      	bhi.n	800ef5a <HAL_RCC_ClockConfig+0xfa>
 800ef54:	f013 7f00 	tst.w	r3, #33554432	; 0x2000000
 800ef58:	e7de      	b.n	800ef18 <HAL_RCC_ClockConfig+0xb8>
 800ef5a:	f013 0f02 	tst.w	r3, #2
 800ef5e:	e7db      	b.n	800ef18 <HAL_RCC_ClockConfig+0xb8>
 800ef60:	b2ea      	uxtb	r2, r5
 800ef62:	701a      	strb	r2, [r3, #0]
 800ef64:	681b      	ldr	r3, [r3, #0]
 800ef66:	f003 0307 	and.w	r3, r3, #7
 800ef6a:	42ab      	cmp	r3, r5
 800ef6c:	f47f af7d 	bne.w	800ee6a <HAL_RCC_ClockConfig+0xa>
 800ef70:	e78f      	b.n	800ee92 <HAL_RCC_ClockConfig+0x32>
 800ef72:	4905      	ldr	r1, [pc, #20]	; (800ef88 <HAL_RCC_ClockConfig+0x128>)
 800ef74:	68e0      	ldr	r0, [r4, #12]
 800ef76:	688b      	ldr	r3, [r1, #8]
 800ef78:	f423 53e0 	bic.w	r3, r3, #7168	; 0x1c00
 800ef7c:	4303      	orrs	r3, r0
 800ef7e:	608b      	str	r3, [r1, #8]
 800ef80:	e78a      	b.n	800ee98 <HAL_RCC_ClockConfig+0x38>
 800ef82:	bf00      	nop
 800ef84:	40023c00 	.word	0x40023c00
 800ef88:	40023800 	.word	0x40023800
 800ef8c:	08015b2c 	.word	0x08015b2c
 800ef90:	20000000 	.word	0x20000000
 800ef94:	20000008 	.word	0x20000008

0800ef98 <HAL_RCC_GetHCLKFreq>:
 800ef98:	4b01      	ldr	r3, [pc, #4]	; (800efa0 <HAL_RCC_GetHCLKFreq+0x8>)
 800ef9a:	6818      	ldr	r0, [r3, #0]
 800ef9c:	4770      	bx	lr
 800ef9e:	bf00      	nop
 800efa0:	20000000 	.word	0x20000000

0800efa4 <HAL_RCC_GetPCLK1Freq>:
 800efa4:	4b04      	ldr	r3, [pc, #16]	; (800efb8 <HAL_RCC_GetPCLK1Freq+0x14>)
 800efa6:	4a05      	ldr	r2, [pc, #20]	; (800efbc <HAL_RCC_GetPCLK1Freq+0x18>)
 800efa8:	689b      	ldr	r3, [r3, #8]
 800efaa:	f3c3 2382 	ubfx	r3, r3, #10, #3
 800efae:	5cd3      	ldrb	r3, [r2, r3]
 800efb0:	4a03      	ldr	r2, [pc, #12]	; (800efc0 <HAL_RCC_GetPCLK1Freq+0x1c>)
 800efb2:	6810      	ldr	r0, [r2, #0]
 800efb4:	40d8      	lsrs	r0, r3
 800efb6:	4770      	bx	lr
 800efb8:	40023800 	.word	0x40023800
 800efbc:	08015b3c 	.word	0x08015b3c
 800efc0:	20000000 	.word	0x20000000

0800efc4 <HAL_RCC_GetPCLK2Freq>:
 800efc4:	4b04      	ldr	r3, [pc, #16]	; (800efd8 <HAL_RCC_GetPCLK2Freq+0x14>)
 800efc6:	4a05      	ldr	r2, [pc, #20]	; (800efdc <HAL_RCC_GetPCLK2Freq+0x18>)
 800efc8:	689b      	ldr	r3, [r3, #8]
 800efca:	f3c3 3342 	ubfx	r3, r3, #13, #3
 800efce:	5cd3      	ldrb	r3, [r2, r3]
 800efd0:	4a03      	ldr	r2, [pc, #12]	; (800efe0 <HAL_RCC_GetPCLK2Freq+0x1c>)
 800efd2:	6810      	ldr	r0, [r2, #0]
 800efd4:	40d8      	lsrs	r0, r3
 800efd6:	4770      	bx	lr
 800efd8:	40023800 	.word	0x40023800
 800efdc:	08015b3c 	.word	0x08015b3c
 800efe0:	20000000 	.word	0x20000000

0800efe4 <HAL_RCC_GetClockConfig>:
 800efe4:	230f      	movs	r3, #15
 800efe6:	6003      	str	r3, [r0, #0]
 800efe8:	4b0b      	ldr	r3, [pc, #44]	; (800f018 <HAL_RCC_GetClockConfig+0x34>)
 800efea:	689a      	ldr	r2, [r3, #8]
 800efec:	f002 0203 	and.w	r2, r2, #3
 800eff0:	6042      	str	r2, [r0, #4]
 800eff2:	689a      	ldr	r2, [r3, #8]
 800eff4:	f002 02f0 	and.w	r2, r2, #240	; 0xf0
 800eff8:	6082      	str	r2, [r0, #8]
 800effa:	689a      	ldr	r2, [r3, #8]
 800effc:	f402 52e0 	and.w	r2, r2, #7168	; 0x1c00
 800f000:	60c2      	str	r2, [r0, #12]
 800f002:	689b      	ldr	r3, [r3, #8]
 800f004:	08db      	lsrs	r3, r3, #3
 800f006:	f403 53e0 	and.w	r3, r3, #7168	; 0x1c00
 800f00a:	6103      	str	r3, [r0, #16]
 800f00c:	4b03      	ldr	r3, [pc, #12]	; (800f01c <HAL_RCC_GetClockConfig+0x38>)
 800f00e:	681b      	ldr	r3, [r3, #0]
 800f010:	f003 0307 	and.w	r3, r3, #7
 800f014:	600b      	str	r3, [r1, #0]
 800f016:	4770      	bx	lr
 800f018:	40023800 	.word	0x40023800
 800f01c:	40023c00 	.word	0x40023c00

0800f020 <HAL_RCCEx_PeriphCLKConfig>:
 800f020:	6803      	ldr	r3, [r0, #0]
 800f022:	f013 0f05 	tst.w	r3, #5
 800f026:	b5f7      	push	{r0, r1, r2, r4, r5, r6, r7, lr}
 800f028:	4604      	mov	r4, r0
 800f02a:	d13d      	bne.n	800f0a8 <HAL_RCCEx_PeriphCLKConfig+0x88>
 800f02c:	6823      	ldr	r3, [r4, #0]
 800f02e:	079b      	lsls	r3, r3, #30
 800f030:	d530      	bpl.n	800f094 <HAL_RCCEx_PeriphCLKConfig+0x74>
 800f032:	2300      	movs	r3, #0
 800f034:	9301      	str	r3, [sp, #4]
 800f036:	4b47      	ldr	r3, [pc, #284]	; (800f154 <HAL_RCCEx_PeriphCLKConfig+0x134>)
 800f038:	4d47      	ldr	r5, [pc, #284]	; (800f158 <HAL_RCCEx_PeriphCLKConfig+0x138>)
 800f03a:	6c1a      	ldr	r2, [r3, #64]	; 0x40
 800f03c:	f042 5280 	orr.w	r2, r2, #268435456	; 0x10000000
 800f040:	641a      	str	r2, [r3, #64]	; 0x40
 800f042:	6c1b      	ldr	r3, [r3, #64]	; 0x40
 800f044:	f003 5380 	and.w	r3, r3, #268435456	; 0x10000000
 800f048:	9301      	str	r3, [sp, #4]
 800f04a:	9b01      	ldr	r3, [sp, #4]
 800f04c:	682b      	ldr	r3, [r5, #0]
 800f04e:	f443 7380 	orr.w	r3, r3, #256	; 0x100
 800f052:	602b      	str	r3, [r5, #0]
 800f054:	f7fd fafe 	bl	800c654 <HAL_GetTick>
 800f058:	4606      	mov	r6, r0
 800f05a:	682b      	ldr	r3, [r5, #0]
 800f05c:	05d9      	lsls	r1, r3, #23
 800f05e:	d54e      	bpl.n	800f0fe <HAL_RCCEx_PeriphCLKConfig+0xde>
 800f060:	4d3c      	ldr	r5, [pc, #240]	; (800f154 <HAL_RCCEx_PeriphCLKConfig+0x134>)
 800f062:	6f2b      	ldr	r3, [r5, #112]	; 0x70
 800f064:	f413 7340 	ands.w	r3, r3, #768	; 0x300
 800f068:	d14f      	bne.n	800f10a <HAL_RCCEx_PeriphCLKConfig+0xea>
 800f06a:	6923      	ldr	r3, [r4, #16]
 800f06c:	f403 7240 	and.w	r2, r3, #768	; 0x300
 800f070:	f5b2 7f40 	cmp.w	r2, #768	; 0x300
 800f074:	4a37      	ldr	r2, [pc, #220]	; (800f154 <HAL_RCCEx_PeriphCLKConfig+0x134>)
 800f076:	d169      	bne.n	800f14c <HAL_RCCEx_PeriphCLKConfig+0x12c>
 800f078:	6891      	ldr	r1, [r2, #8]
 800f07a:	f023 4070 	bic.w	r0, r3, #4026531840	; 0xf0000000
 800f07e:	f421 11f8 	bic.w	r1, r1, #2031616	; 0x1f0000
 800f082:	f420 7040 	bic.w	r0, r0, #768	; 0x300
 800f086:	4301      	orrs	r1, r0
 800f088:	6091      	str	r1, [r2, #8]
 800f08a:	6f11      	ldr	r1, [r2, #112]	; 0x70
 800f08c:	f3c3 030b 	ubfx	r3, r3, #0, #12
 800f090:	430b      	orrs	r3, r1
 800f092:	6713      	str	r3, [r2, #112]	; 0x70
 800f094:	6820      	ldr	r0, [r4, #0]
 800f096:	f010 0008 	ands.w	r0, r0, #8
 800f09a:	bf1f      	itttt	ne
 800f09c:	4b2f      	ldrne	r3, [pc, #188]	; (800f15c <HAL_RCCEx_PeriphCLKConfig+0x13c>)
 800f09e:	7d22      	ldrbne	r2, [r4, #20]
 800f0a0:	f8c3 21e0 	strne.w	r2, [r3, #480]	; 0x1e0
 800f0a4:	2000      	movne	r0, #0
 800f0a6:	e028      	b.n	800f0fa <HAL_RCCEx_PeriphCLKConfig+0xda>
 800f0a8:	4b2d      	ldr	r3, [pc, #180]	; (800f160 <HAL_RCCEx_PeriphCLKConfig+0x140>)
 800f0aa:	4e2a      	ldr	r6, [pc, #168]	; (800f154 <HAL_RCCEx_PeriphCLKConfig+0x134>)
 800f0ac:	2200      	movs	r2, #0
 800f0ae:	669a      	str	r2, [r3, #104]	; 0x68
 800f0b0:	f7fd fad0 	bl	800c654 <HAL_GetTick>
 800f0b4:	4605      	mov	r5, r0
 800f0b6:	6833      	ldr	r3, [r6, #0]
 800f0b8:	011f      	lsls	r7, r3, #4
 800f0ba:	d418      	bmi.n	800f0ee <HAL_RCCEx_PeriphCLKConfig+0xce>
 800f0bc:	e9d4 2302 	ldrd	r2, r3, [r4, #8]
 800f0c0:	071b      	lsls	r3, r3, #28
 800f0c2:	ea43 1382 	orr.w	r3, r3, r2, lsl #6
 800f0c6:	6862      	ldr	r2, [r4, #4]
 800f0c8:	4313      	orrs	r3, r2
 800f0ca:	f8c6 3084 	str.w	r3, [r6, #132]	; 0x84
 800f0ce:	4b24      	ldr	r3, [pc, #144]	; (800f160 <HAL_RCCEx_PeriphCLKConfig+0x140>)
 800f0d0:	4e20      	ldr	r6, [pc, #128]	; (800f154 <HAL_RCCEx_PeriphCLKConfig+0x134>)
 800f0d2:	2201      	movs	r2, #1
 800f0d4:	669a      	str	r2, [r3, #104]	; 0x68
 800f0d6:	f7fd fabd 	bl	800c654 <HAL_GetTick>
 800f0da:	4605      	mov	r5, r0
 800f0dc:	6833      	ldr	r3, [r6, #0]
 800f0de:	0118      	lsls	r0, r3, #4
 800f0e0:	d4a4      	bmi.n	800f02c <HAL_RCCEx_PeriphCLKConfig+0xc>
 800f0e2:	f7fd fab7 	bl	800c654 <HAL_GetTick>
 800f0e6:	1b40      	subs	r0, r0, r5
 800f0e8:	2802      	cmp	r0, #2
 800f0ea:	d9f7      	bls.n	800f0dc <HAL_RCCEx_PeriphCLKConfig+0xbc>
 800f0ec:	e004      	b.n	800f0f8 <HAL_RCCEx_PeriphCLKConfig+0xd8>
 800f0ee:	f7fd fab1 	bl	800c654 <HAL_GetTick>
 800f0f2:	1b40      	subs	r0, r0, r5
 800f0f4:	2802      	cmp	r0, #2
 800f0f6:	d9de      	bls.n	800f0b6 <HAL_RCCEx_PeriphCLKConfig+0x96>
 800f0f8:	2003      	movs	r0, #3
 800f0fa:	b003      	add	sp, #12
 800f0fc:	bdf0      	pop	{r4, r5, r6, r7, pc}
 800f0fe:	f7fd faa9 	bl	800c654 <HAL_GetTick>
 800f102:	1b80      	subs	r0, r0, r6
 800f104:	2802      	cmp	r0, #2
 800f106:	d9a8      	bls.n	800f05a <HAL_RCCEx_PeriphCLKConfig+0x3a>
 800f108:	e7f6      	b.n	800f0f8 <HAL_RCCEx_PeriphCLKConfig+0xd8>
 800f10a:	6922      	ldr	r2, [r4, #16]
 800f10c:	f402 7240 	and.w	r2, r2, #768	; 0x300
 800f110:	4293      	cmp	r3, r2
 800f112:	d0aa      	beq.n	800f06a <HAL_RCCEx_PeriphCLKConfig+0x4a>
 800f114:	6f2b      	ldr	r3, [r5, #112]	; 0x70
 800f116:	4a12      	ldr	r2, [pc, #72]	; (800f160 <HAL_RCCEx_PeriphCLKConfig+0x140>)
 800f118:	2101      	movs	r1, #1
 800f11a:	f8c2 1e40 	str.w	r1, [r2, #3648]	; 0xe40
 800f11e:	f423 7340 	bic.w	r3, r3, #768	; 0x300
 800f122:	2100      	movs	r1, #0
 800f124:	f8c2 1e40 	str.w	r1, [r2, #3648]	; 0xe40
 800f128:	672b      	str	r3, [r5, #112]	; 0x70
 800f12a:	6f2b      	ldr	r3, [r5, #112]	; 0x70
 800f12c:	07da      	lsls	r2, r3, #31
 800f12e:	d59c      	bpl.n	800f06a <HAL_RCCEx_PeriphCLKConfig+0x4a>
 800f130:	f7fd fa90 	bl	800c654 <HAL_GetTick>
 800f134:	f241 3788 	movw	r7, #5000	; 0x1388
 800f138:	4606      	mov	r6, r0
 800f13a:	6f2b      	ldr	r3, [r5, #112]	; 0x70
 800f13c:	079b      	lsls	r3, r3, #30
 800f13e:	d494      	bmi.n	800f06a <HAL_RCCEx_PeriphCLKConfig+0x4a>
 800f140:	f7fd fa88 	bl	800c654 <HAL_GetTick>
 800f144:	1b80      	subs	r0, r0, r6
 800f146:	42b8      	cmp	r0, r7
 800f148:	d9f7      	bls.n	800f13a <HAL_RCCEx_PeriphCLKConfig+0x11a>
 800f14a:	e7d5      	b.n	800f0f8 <HAL_RCCEx_PeriphCLKConfig+0xd8>
 800f14c:	6891      	ldr	r1, [r2, #8]
 800f14e:	f421 11f8 	bic.w	r1, r1, #2031616	; 0x1f0000
 800f152:	e799      	b.n	800f088 <HAL_RCCEx_PeriphCLKConfig+0x68>
 800f154:	40023800 	.word	0x40023800
 800f158:	40007000 	.word	0x40007000
 800f15c:	42471000 	.word	0x42471000
 800f160:	42470000 	.word	0x42470000

0800f164 <HAL_RTC_WaitForSynchro>:
 800f164:	6802      	ldr	r2, [r0, #0]
 800f166:	b538      	push	{r3, r4, r5, lr}
 800f168:	68d3      	ldr	r3, [r2, #12]
 800f16a:	f023 03a0 	bic.w	r3, r3, #160	; 0xa0
 800f16e:	60d3      	str	r3, [r2, #12]
 800f170:	4604      	mov	r4, r0
 800f172:	f7fd fa6f 	bl	800c654 <HAL_GetTick>
 800f176:	4605      	mov	r5, r0
 800f178:	6823      	ldr	r3, [r4, #0]
 800f17a:	68db      	ldr	r3, [r3, #12]
 800f17c:	069b      	lsls	r3, r3, #26
 800f17e:	d501      	bpl.n	800f184 <HAL_RTC_WaitForSynchro+0x20>
 800f180:	2000      	movs	r0, #0
 800f182:	bd38      	pop	{r3, r4, r5, pc}
 800f184:	f7fd fa66 	bl	800c654 <HAL_GetTick>
 800f188:	1b40      	subs	r0, r0, r5
 800f18a:	f5b0 7f7a 	cmp.w	r0, #1000	; 0x3e8
 800f18e:	d9f3      	bls.n	800f178 <HAL_RTC_WaitForSynchro+0x14>
 800f190:	2003      	movs	r0, #3
 800f192:	e7f6      	b.n	800f182 <HAL_RTC_WaitForSynchro+0x1e>

0800f194 <RTC_EnterInitMode>:
 800f194:	b5f8      	push	{r3, r4, r5, r6, r7, lr}
 800f196:	6803      	ldr	r3, [r0, #0]
 800f198:	68dc      	ldr	r4, [r3, #12]
 800f19a:	f014 0440 	ands.w	r4, r4, #64	; 0x40
 800f19e:	4605      	mov	r5, r0
 800f1a0:	d117      	bne.n	800f1d2 <RTC_EnterInitMode+0x3e>
 800f1a2:	68da      	ldr	r2, [r3, #12]
 800f1a4:	f042 0280 	orr.w	r2, r2, #128	; 0x80
 800f1a8:	60da      	str	r2, [r3, #12]
 800f1aa:	f7fd fa53 	bl	800c654 <HAL_GetTick>
 800f1ae:	2704      	movs	r7, #4
 800f1b0:	4606      	mov	r6, r0
 800f1b2:	682b      	ldr	r3, [r5, #0]
 800f1b4:	68db      	ldr	r3, [r3, #12]
 800f1b6:	065b      	lsls	r3, r3, #25
 800f1b8:	d400      	bmi.n	800f1bc <RTC_EnterInitMode+0x28>
 800f1ba:	b10c      	cbz	r4, 800f1c0 <RTC_EnterInitMode+0x2c>
 800f1bc:	4620      	mov	r0, r4
 800f1be:	bdf8      	pop	{r3, r4, r5, r6, r7, pc}
 800f1c0:	f7fd fa48 	bl	800c654 <HAL_GetTick>
 800f1c4:	1b80      	subs	r0, r0, r6
 800f1c6:	f5b0 7f7a 	cmp.w	r0, #1000	; 0x3e8
 800f1ca:	bf84      	itt	hi
 800f1cc:	776f      	strbhi	r7, [r5, #29]
 800f1ce:	2401      	movhi	r4, #1
 800f1d0:	e7ef      	b.n	800f1b2 <RTC_EnterInitMode+0x1e>
 800f1d2:	2400      	movs	r4, #0
 800f1d4:	e7f2      	b.n	800f1bc <RTC_EnterInitMode+0x28>

0800f1d6 <RTC_ExitInitMode>:
 800f1d6:	6803      	ldr	r3, [r0, #0]
 800f1d8:	68da      	ldr	r2, [r3, #12]
 800f1da:	f022 0280 	bic.w	r2, r2, #128	; 0x80
 800f1de:	b510      	push	{r4, lr}
 800f1e0:	60da      	str	r2, [r3, #12]
 800f1e2:	689b      	ldr	r3, [r3, #8]
 800f1e4:	069b      	lsls	r3, r3, #26
 800f1e6:	4604      	mov	r4, r0
 800f1e8:	d501      	bpl.n	800f1ee <RTC_ExitInitMode+0x18>
 800f1ea:	2000      	movs	r0, #0
 800f1ec:	bd10      	pop	{r4, pc}
 800f1ee:	f7ff ffb9 	bl	800f164 <HAL_RTC_WaitForSynchro>
 800f1f2:	2800      	cmp	r0, #0
 800f1f4:	d0f9      	beq.n	800f1ea <RTC_ExitInitMode+0x14>
 800f1f6:	2304      	movs	r3, #4
 800f1f8:	7763      	strb	r3, [r4, #29]
 800f1fa:	2001      	movs	r0, #1
 800f1fc:	e7f6      	b.n	800f1ec <RTC_ExitInitMode+0x16>

0800f1fe <HAL_RTC_Init>:
 800f1fe:	b510      	push	{r4, lr}
 800f200:	4604      	mov	r4, r0
 800f202:	2800      	cmp	r0, #0
 800f204:	d03a      	beq.n	800f27c <HAL_RTC_Init+0x7e>
 800f206:	7f43      	ldrb	r3, [r0, #29]
 800f208:	f003 02ff 	and.w	r2, r3, #255	; 0xff
 800f20c:	b913      	cbnz	r3, 800f214 <HAL_RTC_Init+0x16>
 800f20e:	7702      	strb	r2, [r0, #28]
 800f210:	f7fc ffac 	bl	800c16c <HAL_RTC_MspInit>
 800f214:	2302      	movs	r3, #2
 800f216:	7763      	strb	r3, [r4, #29]
 800f218:	6823      	ldr	r3, [r4, #0]
 800f21a:	22ca      	movs	r2, #202	; 0xca
 800f21c:	625a      	str	r2, [r3, #36]	; 0x24
 800f21e:	2253      	movs	r2, #83	; 0x53
 800f220:	625a      	str	r2, [r3, #36]	; 0x24
 800f222:	4620      	mov	r0, r4
 800f224:	f7ff ffb6 	bl	800f194 <RTC_EnterInitMode>
 800f228:	bb20      	cbnz	r0, 800f274 <HAL_RTC_Init+0x76>
 800f22a:	6823      	ldr	r3, [r4, #0]
 800f22c:	6920      	ldr	r0, [r4, #16]
 800f22e:	689a      	ldr	r2, [r3, #8]
 800f230:	f422 02e0 	bic.w	r2, r2, #7340032	; 0x700000
 800f234:	f022 0240 	bic.w	r2, r2, #64	; 0x40
 800f238:	609a      	str	r2, [r3, #8]
 800f23a:	6862      	ldr	r2, [r4, #4]
 800f23c:	6899      	ldr	r1, [r3, #8]
 800f23e:	4302      	orrs	r2, r0
 800f240:	6960      	ldr	r0, [r4, #20]
 800f242:	4302      	orrs	r2, r0
 800f244:	430a      	orrs	r2, r1
 800f246:	609a      	str	r2, [r3, #8]
 800f248:	68e2      	ldr	r2, [r4, #12]
 800f24a:	611a      	str	r2, [r3, #16]
 800f24c:	691a      	ldr	r2, [r3, #16]
 800f24e:	68a1      	ldr	r1, [r4, #8]
 800f250:	ea42 4201 	orr.w	r2, r2, r1, lsl #16
 800f254:	611a      	str	r2, [r3, #16]
 800f256:	4620      	mov	r0, r4
 800f258:	f7ff ffbd 	bl	800f1d6 <RTC_ExitInitMode>
 800f25c:	b950      	cbnz	r0, 800f274 <HAL_RTC_Init+0x76>
 800f25e:	6823      	ldr	r3, [r4, #0]
 800f260:	69a1      	ldr	r1, [r4, #24]
 800f262:	6c1a      	ldr	r2, [r3, #64]	; 0x40
 800f264:	f422 2280 	bic.w	r2, r2, #262144	; 0x40000
 800f268:	641a      	str	r2, [r3, #64]	; 0x40
 800f26a:	6c1a      	ldr	r2, [r3, #64]	; 0x40
 800f26c:	430a      	orrs	r2, r1
 800f26e:	641a      	str	r2, [r3, #64]	; 0x40
 800f270:	2301      	movs	r3, #1
 800f272:	7763      	strb	r3, [r4, #29]
 800f274:	6823      	ldr	r3, [r4, #0]
 800f276:	22ff      	movs	r2, #255	; 0xff
 800f278:	625a      	str	r2, [r3, #36]	; 0x24
 800f27a:	bd10      	pop	{r4, pc}
 800f27c:	2001      	movs	r0, #1
 800f27e:	e7fc      	b.n	800f27a <HAL_RTC_Init+0x7c>

0800f280 <SPI_WaitFlagStateUntilTimeout.constprop.0>:
 800f280:	e92d 41f3 	stmdb	sp!, {r0, r1, r4, r5, r6, r7, r8, lr}
 800f284:	461d      	mov	r5, r3
 800f286:	4617      	mov	r7, r2
 800f288:	4688      	mov	r8, r1
 800f28a:	4606      	mov	r6, r0
 800f28c:	f7fd f9e2 	bl	800c654 <HAL_GetTick>
 800f290:	443d      	add	r5, r7
 800f292:	1a2c      	subs	r4, r5, r0
 800f294:	f7fd f9de 	bl	800c654 <HAL_GetTick>
 800f298:	4b22      	ldr	r3, [pc, #136]	; (800f324 <SPI_WaitFlagStateUntilTimeout.constprop.0+0xa4>)
 800f29a:	681b      	ldr	r3, [r3, #0]
 800f29c:	f3c3 33cb 	ubfx	r3, r3, #15, #12
 800f2a0:	4605      	mov	r5, r0
 800f2a2:	4363      	muls	r3, r4
 800f2a4:	6832      	ldr	r2, [r6, #0]
 800f2a6:	9301      	str	r3, [sp, #4]
 800f2a8:	6893      	ldr	r3, [r2, #8]
 800f2aa:	ea38 0303 	bics.w	r3, r8, r3
 800f2ae:	d001      	beq.n	800f2b4 <SPI_WaitFlagStateUntilTimeout.constprop.0+0x34>
 800f2b0:	2000      	movs	r0, #0
 800f2b2:	e02d      	b.n	800f310 <SPI_WaitFlagStateUntilTimeout.constprop.0+0x90>
 800f2b4:	1c7b      	adds	r3, r7, #1
 800f2b6:	d0f7      	beq.n	800f2a8 <SPI_WaitFlagStateUntilTimeout.constprop.0+0x28>
 800f2b8:	f7fd f9cc 	bl	800c654 <HAL_GetTick>
 800f2bc:	1b40      	subs	r0, r0, r5
 800f2be:	42a0      	cmp	r0, r4
 800f2c0:	d329      	bcc.n	800f316 <SPI_WaitFlagStateUntilTimeout.constprop.0+0x96>
 800f2c2:	6833      	ldr	r3, [r6, #0]
 800f2c4:	685a      	ldr	r2, [r3, #4]
 800f2c6:	f022 02e0 	bic.w	r2, r2, #224	; 0xe0
 800f2ca:	605a      	str	r2, [r3, #4]
 800f2cc:	6872      	ldr	r2, [r6, #4]
 800f2ce:	f5b2 7f82 	cmp.w	r2, #260	; 0x104
 800f2d2:	d10a      	bne.n	800f2ea <SPI_WaitFlagStateUntilTimeout.constprop.0+0x6a>
 800f2d4:	68b2      	ldr	r2, [r6, #8]
 800f2d6:	f5b2 4f00 	cmp.w	r2, #32768	; 0x8000
 800f2da:	d002      	beq.n	800f2e2 <SPI_WaitFlagStateUntilTimeout.constprop.0+0x62>
 800f2dc:	f5b2 6f80 	cmp.w	r2, #1024	; 0x400
 800f2e0:	d103      	bne.n	800f2ea <SPI_WaitFlagStateUntilTimeout.constprop.0+0x6a>
 800f2e2:	681a      	ldr	r2, [r3, #0]
 800f2e4:	f022 0240 	bic.w	r2, r2, #64	; 0x40
 800f2e8:	601a      	str	r2, [r3, #0]
 800f2ea:	6ab2      	ldr	r2, [r6, #40]	; 0x28
 800f2ec:	f5b2 5f00 	cmp.w	r2, #8192	; 0x2000
 800f2f0:	d107      	bne.n	800f302 <SPI_WaitFlagStateUntilTimeout.constprop.0+0x82>
 800f2f2:	681a      	ldr	r2, [r3, #0]
 800f2f4:	f422 5200 	bic.w	r2, r2, #8192	; 0x2000
 800f2f8:	601a      	str	r2, [r3, #0]
 800f2fa:	681a      	ldr	r2, [r3, #0]
 800f2fc:	f442 5200 	orr.w	r2, r2, #8192	; 0x2000
 800f300:	601a      	str	r2, [r3, #0]
 800f302:	2301      	movs	r3, #1
 800f304:	f886 3051 	strb.w	r3, [r6, #81]	; 0x51
 800f308:	2300      	movs	r3, #0
 800f30a:	f886 3050 	strb.w	r3, [r6, #80]	; 0x50
 800f30e:	2003      	movs	r0, #3
 800f310:	b002      	add	sp, #8
 800f312:	e8bd 81f0 	ldmia.w	sp!, {r4, r5, r6, r7, r8, pc}
 800f316:	9b01      	ldr	r3, [sp, #4]
 800f318:	2b00      	cmp	r3, #0
 800f31a:	9b01      	ldr	r3, [sp, #4]
 800f31c:	bf08      	it	eq
 800f31e:	2400      	moveq	r4, #0
 800f320:	3b01      	subs	r3, #1
 800f322:	e7bf      	b.n	800f2a4 <SPI_WaitFlagStateUntilTimeout.constprop.0+0x24>
 800f324:	20000000 	.word	0x20000000

0800f328 <SPI_EndRxTransaction>:
 800f328:	b538      	push	{r3, r4, r5, lr}
 800f32a:	4613      	mov	r3, r2
 800f32c:	6842      	ldr	r2, [r0, #4]
 800f32e:	f5b2 7f82 	cmp.w	r2, #260	; 0x104
 800f332:	4604      	mov	r4, r0
 800f334:	d11f      	bne.n	800f376 <SPI_EndRxTransaction+0x4e>
 800f336:	6882      	ldr	r2, [r0, #8]
 800f338:	f5b2 4f00 	cmp.w	r2, #32768	; 0x8000
 800f33c:	d002      	beq.n	800f344 <SPI_EndRxTransaction+0x1c>
 800f33e:	f5b2 6f80 	cmp.w	r2, #1024	; 0x400
 800f342:	d107      	bne.n	800f354 <SPI_EndRxTransaction+0x2c>
 800f344:	6825      	ldr	r5, [r4, #0]
 800f346:	6828      	ldr	r0, [r5, #0]
 800f348:	f5b2 6f80 	cmp.w	r2, #1024	; 0x400
 800f34c:	f020 0040 	bic.w	r0, r0, #64	; 0x40
 800f350:	6028      	str	r0, [r5, #0]
 800f352:	d007      	beq.n	800f364 <SPI_EndRxTransaction+0x3c>
 800f354:	460a      	mov	r2, r1
 800f356:	2180      	movs	r1, #128	; 0x80
 800f358:	4620      	mov	r0, r4
 800f35a:	f7ff ff91 	bl	800f280 <SPI_WaitFlagStateUntilTimeout.constprop.0>
 800f35e:	b920      	cbnz	r0, 800f36a <SPI_EndRxTransaction+0x42>
 800f360:	2000      	movs	r0, #0
 800f362:	bd38      	pop	{r3, r4, r5, pc}
 800f364:	460a      	mov	r2, r1
 800f366:	2101      	movs	r1, #1
 800f368:	e7f6      	b.n	800f358 <SPI_EndRxTransaction+0x30>
 800f36a:	6d63      	ldr	r3, [r4, #84]	; 0x54
 800f36c:	f043 0320 	orr.w	r3, r3, #32
 800f370:	6563      	str	r3, [r4, #84]	; 0x54
 800f372:	2003      	movs	r0, #3
 800f374:	e7f5      	b.n	800f362 <SPI_EndRxTransaction+0x3a>
 800f376:	460a      	mov	r2, r1
 800f378:	2101      	movs	r1, #1
 800f37a:	e7ee      	b.n	800f35a <SPI_EndRxTransaction+0x32>

0800f37c <SPI_EndRxTxTransaction>:
 800f37c:	b537      	push	{r0, r1, r2, r4, r5, lr}
 800f37e:	4613      	mov	r3, r2
 800f380:	4a12      	ldr	r2, [pc, #72]	; (800f3cc <SPI_EndRxTxTransaction+0x50>)
 800f382:	6815      	ldr	r5, [r2, #0]
 800f384:	4a12      	ldr	r2, [pc, #72]	; (800f3d0 <SPI_EndRxTxTransaction+0x54>)
 800f386:	fbb5 f5f2 	udiv	r5, r5, r2
 800f38a:	f44f 727a 	mov.w	r2, #1000	; 0x3e8
 800f38e:	4355      	muls	r5, r2
 800f390:	6842      	ldr	r2, [r0, #4]
 800f392:	9501      	str	r5, [sp, #4]
 800f394:	f5b2 7f82 	cmp.w	r2, #260	; 0x104
 800f398:	4604      	mov	r4, r0
 800f39a:	d10b      	bne.n	800f3b4 <SPI_EndRxTxTransaction+0x38>
 800f39c:	460a      	mov	r2, r1
 800f39e:	2180      	movs	r1, #128	; 0x80
 800f3a0:	f7ff ff6e 	bl	800f280 <SPI_WaitFlagStateUntilTimeout.constprop.0>
 800f3a4:	b178      	cbz	r0, 800f3c6 <SPI_EndRxTxTransaction+0x4a>
 800f3a6:	6d63      	ldr	r3, [r4, #84]	; 0x54
 800f3a8:	f043 0320 	orr.w	r3, r3, #32
 800f3ac:	6563      	str	r3, [r4, #84]	; 0x54
 800f3ae:	2003      	movs	r0, #3
 800f3b0:	b003      	add	sp, #12
 800f3b2:	bd30      	pop	{r4, r5, pc}
 800f3b4:	9b01      	ldr	r3, [sp, #4]
 800f3b6:	b133      	cbz	r3, 800f3c6 <SPI_EndRxTxTransaction+0x4a>
 800f3b8:	9b01      	ldr	r3, [sp, #4]
 800f3ba:	3b01      	subs	r3, #1
 800f3bc:	9301      	str	r3, [sp, #4]
 800f3be:	6823      	ldr	r3, [r4, #0]
 800f3c0:	689b      	ldr	r3, [r3, #8]
 800f3c2:	061b      	lsls	r3, r3, #24
 800f3c4:	d4f6      	bmi.n	800f3b4 <SPI_EndRxTxTransaction+0x38>
 800f3c6:	2000      	movs	r0, #0
 800f3c8:	e7f2      	b.n	800f3b0 <SPI_EndRxTxTransaction+0x34>
 800f3ca:	bf00      	nop
 800f3cc:	20000000 	.word	0x20000000
 800f3d0:	016e3600 	.word	0x016e3600

0800f3d4 <HAL_SPI_Init>:
 800f3d4:	b510      	push	{r4, lr}
 800f3d6:	4604      	mov	r4, r0
 800f3d8:	2800      	cmp	r0, #0
 800f3da:	d055      	beq.n	800f488 <HAL_SPI_Init+0xb4>
 800f3dc:	6a43      	ldr	r3, [r0, #36]	; 0x24
 800f3de:	2b00      	cmp	r3, #0
 800f3e0:	d14e      	bne.n	800f480 <HAL_SPI_Init+0xac>
 800f3e2:	6842      	ldr	r2, [r0, #4]
 800f3e4:	f5b2 7f82 	cmp.w	r2, #260	; 0x104
 800f3e8:	d000      	beq.n	800f3ec <HAL_SPI_Init+0x18>
 800f3ea:	61c3      	str	r3, [r0, #28]
 800f3ec:	2300      	movs	r3, #0
 800f3ee:	62a3      	str	r3, [r4, #40]	; 0x28
 800f3f0:	f894 3051 	ldrb.w	r3, [r4, #81]	; 0x51
 800f3f4:	f003 02ff 	and.w	r2, r3, #255	; 0xff
 800f3f8:	b923      	cbnz	r3, 800f404 <HAL_SPI_Init+0x30>
 800f3fa:	f884 2050 	strb.w	r2, [r4, #80]	; 0x50
 800f3fe:	4620      	mov	r0, r4
 800f400:	f7fc fed6 	bl	800c1b0 <HAL_SPI_MspInit>
 800f404:	6821      	ldr	r1, [r4, #0]
 800f406:	68a0      	ldr	r0, [r4, #8]
 800f408:	69a2      	ldr	r2, [r4, #24]
 800f40a:	2302      	movs	r3, #2
 800f40c:	f884 3051 	strb.w	r3, [r4, #81]	; 0x51
 800f410:	680b      	ldr	r3, [r1, #0]
 800f412:	f023 0340 	bic.w	r3, r3, #64	; 0x40
 800f416:	600b      	str	r3, [r1, #0]
 800f418:	6863      	ldr	r3, [r4, #4]
 800f41a:	f400 4004 	and.w	r0, r0, #33792	; 0x8400
 800f41e:	f403 7382 	and.w	r3, r3, #260	; 0x104
 800f422:	4303      	orrs	r3, r0
 800f424:	68e0      	ldr	r0, [r4, #12]
 800f426:	f400 6000 	and.w	r0, r0, #2048	; 0x800
 800f42a:	4303      	orrs	r3, r0
 800f42c:	6920      	ldr	r0, [r4, #16]
 800f42e:	f000 0002 	and.w	r0, r0, #2
 800f432:	4303      	orrs	r3, r0
 800f434:	6960      	ldr	r0, [r4, #20]
 800f436:	f000 0001 	and.w	r0, r0, #1
 800f43a:	4303      	orrs	r3, r0
 800f43c:	f402 7000 	and.w	r0, r2, #512	; 0x200
 800f440:	4303      	orrs	r3, r0
 800f442:	69e0      	ldr	r0, [r4, #28]
 800f444:	f000 0038 	and.w	r0, r0, #56	; 0x38
 800f448:	4303      	orrs	r3, r0
 800f44a:	6a20      	ldr	r0, [r4, #32]
 800f44c:	f000 0080 	and.w	r0, r0, #128	; 0x80
 800f450:	4303      	orrs	r3, r0
 800f452:	6aa0      	ldr	r0, [r4, #40]	; 0x28
 800f454:	f400 5000 	and.w	r0, r0, #8192	; 0x2000
 800f458:	4303      	orrs	r3, r0
 800f45a:	600b      	str	r3, [r1, #0]
 800f45c:	6a63      	ldr	r3, [r4, #36]	; 0x24
 800f45e:	0c12      	lsrs	r2, r2, #16
 800f460:	f003 0310 	and.w	r3, r3, #16
 800f464:	f002 0204 	and.w	r2, r2, #4
 800f468:	431a      	orrs	r2, r3
 800f46a:	604a      	str	r2, [r1, #4]
 800f46c:	69cb      	ldr	r3, [r1, #28]
 800f46e:	f423 6300 	bic.w	r3, r3, #2048	; 0x800
 800f472:	61cb      	str	r3, [r1, #28]
 800f474:	2000      	movs	r0, #0
 800f476:	2301      	movs	r3, #1
 800f478:	6560      	str	r0, [r4, #84]	; 0x54
 800f47a:	f884 3051 	strb.w	r3, [r4, #81]	; 0x51
 800f47e:	bd10      	pop	{r4, pc}
 800f480:	2300      	movs	r3, #0
 800f482:	e9c0 3304 	strd	r3, r3, [r0, #16]
 800f486:	e7b1      	b.n	800f3ec <HAL_SPI_Init+0x18>
 800f488:	2001      	movs	r0, #1
 800f48a:	e7f8      	b.n	800f47e <HAL_SPI_Init+0xaa>

0800f48c <HAL_SPI_TransmitReceive>:
 800f48c:	e92d 43f7 	stmdb	sp!, {r0, r1, r2, r4, r5, r6, r7, r8, r9, lr}
 800f490:	461e      	mov	r6, r3
 800f492:	f890 3050 	ldrb.w	r3, [r0, #80]	; 0x50
 800f496:	9f0a      	ldr	r7, [sp, #40]	; 0x28
 800f498:	2b01      	cmp	r3, #1
 800f49a:	4604      	mov	r4, r0
 800f49c:	460d      	mov	r5, r1
 800f49e:	4691      	mov	r9, r2
 800f4a0:	f000 80e6 	beq.w	800f670 <HAL_SPI_TransmitReceive+0x1e4>
 800f4a4:	2301      	movs	r3, #1
 800f4a6:	f880 3050 	strb.w	r3, [r0, #80]	; 0x50
 800f4aa:	f7fd f8d3 	bl	800c654 <HAL_GetTick>
 800f4ae:	f894 3051 	ldrb.w	r3, [r4, #81]	; 0x51
 800f4b2:	6862      	ldr	r2, [r4, #4]
 800f4b4:	2b01      	cmp	r3, #1
 800f4b6:	4680      	mov	r8, r0
 800f4b8:	b2d9      	uxtb	r1, r3
 800f4ba:	d00a      	beq.n	800f4d2 <HAL_SPI_TransmitReceive+0x46>
 800f4bc:	f5b2 7f82 	cmp.w	r2, #260	; 0x104
 800f4c0:	f040 80d4 	bne.w	800f66c <HAL_SPI_TransmitReceive+0x1e0>
 800f4c4:	68a3      	ldr	r3, [r4, #8]
 800f4c6:	2b00      	cmp	r3, #0
 800f4c8:	f040 80d0 	bne.w	800f66c <HAL_SPI_TransmitReceive+0x1e0>
 800f4cc:	2904      	cmp	r1, #4
 800f4ce:	f040 80cd 	bne.w	800f66c <HAL_SPI_TransmitReceive+0x1e0>
 800f4d2:	2d00      	cmp	r5, #0
 800f4d4:	d040      	beq.n	800f558 <HAL_SPI_TransmitReceive+0xcc>
 800f4d6:	f1b9 0f00 	cmp.w	r9, #0
 800f4da:	d03d      	beq.n	800f558 <HAL_SPI_TransmitReceive+0xcc>
 800f4dc:	2e00      	cmp	r6, #0
 800f4de:	d03b      	beq.n	800f558 <HAL_SPI_TransmitReceive+0xcc>
 800f4e0:	f894 3051 	ldrb.w	r3, [r4, #81]	; 0x51
 800f4e4:	f8c4 9038 	str.w	r9, [r4, #56]	; 0x38
 800f4e8:	2b04      	cmp	r3, #4
 800f4ea:	bf1c      	itt	ne
 800f4ec:	2305      	movne	r3, #5
 800f4ee:	f884 3051 	strbne.w	r3, [r4, #81]	; 0x51
 800f4f2:	2300      	movs	r3, #0
 800f4f4:	6563      	str	r3, [r4, #84]	; 0x54
 800f4f6:	e9c4 3310 	strd	r3, r3, [r4, #64]	; 0x40
 800f4fa:	6823      	ldr	r3, [r4, #0]
 800f4fc:	87e6      	strh	r6, [r4, #62]	; 0x3e
 800f4fe:	86e6      	strh	r6, [r4, #54]	; 0x36
 800f500:	6819      	ldr	r1, [r3, #0]
 800f502:	87a6      	strh	r6, [r4, #60]	; 0x3c
 800f504:	0649      	lsls	r1, r1, #25
 800f506:	bf58      	it	pl
 800f508:	6819      	ldrpl	r1, [r3, #0]
 800f50a:	6325      	str	r5, [r4, #48]	; 0x30
 800f50c:	bf58      	it	pl
 800f50e:	f041 0140 	orrpl.w	r1, r1, #64	; 0x40
 800f512:	86a6      	strh	r6, [r4, #52]	; 0x34
 800f514:	bf58      	it	pl
 800f516:	6019      	strpl	r1, [r3, #0]
 800f518:	68e1      	ldr	r1, [r4, #12]
 800f51a:	f5b1 6f00 	cmp.w	r1, #2048	; 0x800
 800f51e:	d152      	bne.n	800f5c6 <HAL_SPI_TransmitReceive+0x13a>
 800f520:	b10a      	cbz	r2, 800f526 <HAL_SPI_TransmitReceive+0x9a>
 800f522:	2e01      	cmp	r6, #1
 800f524:	d107      	bne.n	800f536 <HAL_SPI_TransmitReceive+0xaa>
 800f526:	f835 2b02 	ldrh.w	r2, [r5], #2
 800f52a:	60da      	str	r2, [r3, #12]
 800f52c:	8ee3      	ldrh	r3, [r4, #54]	; 0x36
 800f52e:	6325      	str	r5, [r4, #48]	; 0x30
 800f530:	3b01      	subs	r3, #1
 800f532:	b29b      	uxth	r3, r3
 800f534:	86e3      	strh	r3, [r4, #54]	; 0x36
 800f536:	2501      	movs	r5, #1
 800f538:	8ee3      	ldrh	r3, [r4, #54]	; 0x36
 800f53a:	b29b      	uxth	r3, r3
 800f53c:	b973      	cbnz	r3, 800f55c <HAL_SPI_TransmitReceive+0xd0>
 800f53e:	8fe3      	ldrh	r3, [r4, #62]	; 0x3e
 800f540:	b29b      	uxth	r3, r3
 800f542:	b95b      	cbnz	r3, 800f55c <HAL_SPI_TransmitReceive+0xd0>
 800f544:	4642      	mov	r2, r8
 800f546:	4639      	mov	r1, r7
 800f548:	4620      	mov	r0, r4
 800f54a:	f7ff ff17 	bl	800f37c <SPI_EndRxTxTransaction>
 800f54e:	2800      	cmp	r0, #0
 800f550:	f000 8081 	beq.w	800f656 <HAL_SPI_TransmitReceive+0x1ca>
 800f554:	2320      	movs	r3, #32
 800f556:	6563      	str	r3, [r4, #84]	; 0x54
 800f558:	2001      	movs	r0, #1
 800f55a:	e02b      	b.n	800f5b4 <HAL_SPI_TransmitReceive+0x128>
 800f55c:	6821      	ldr	r1, [r4, #0]
 800f55e:	688b      	ldr	r3, [r1, #8]
 800f560:	079e      	lsls	r6, r3, #30
 800f562:	d50d      	bpl.n	800f580 <HAL_SPI_TransmitReceive+0xf4>
 800f564:	8ee3      	ldrh	r3, [r4, #54]	; 0x36
 800f566:	b29b      	uxth	r3, r3
 800f568:	b153      	cbz	r3, 800f580 <HAL_SPI_TransmitReceive+0xf4>
 800f56a:	b14d      	cbz	r5, 800f580 <HAL_SPI_TransmitReceive+0xf4>
 800f56c:	6b23      	ldr	r3, [r4, #48]	; 0x30
 800f56e:	f833 2b02 	ldrh.w	r2, [r3], #2
 800f572:	60ca      	str	r2, [r1, #12]
 800f574:	6323      	str	r3, [r4, #48]	; 0x30
 800f576:	8ee3      	ldrh	r3, [r4, #54]	; 0x36
 800f578:	3b01      	subs	r3, #1
 800f57a:	b29b      	uxth	r3, r3
 800f57c:	86e3      	strh	r3, [r4, #54]	; 0x36
 800f57e:	2500      	movs	r5, #0
 800f580:	688a      	ldr	r2, [r1, #8]
 800f582:	f012 0201 	ands.w	r2, r2, #1
 800f586:	d00c      	beq.n	800f5a2 <HAL_SPI_TransmitReceive+0x116>
 800f588:	8fe3      	ldrh	r3, [r4, #62]	; 0x3e
 800f58a:	b29b      	uxth	r3, r3
 800f58c:	b14b      	cbz	r3, 800f5a2 <HAL_SPI_TransmitReceive+0x116>
 800f58e:	6ba3      	ldr	r3, [r4, #56]	; 0x38
 800f590:	68c9      	ldr	r1, [r1, #12]
 800f592:	f823 1b02 	strh.w	r1, [r3], #2
 800f596:	63a3      	str	r3, [r4, #56]	; 0x38
 800f598:	8fe3      	ldrh	r3, [r4, #62]	; 0x3e
 800f59a:	3b01      	subs	r3, #1
 800f59c:	b29b      	uxth	r3, r3
 800f59e:	87e3      	strh	r3, [r4, #62]	; 0x3e
 800f5a0:	4615      	mov	r5, r2
 800f5a2:	f7fd f857 	bl	800c654 <HAL_GetTick>
 800f5a6:	eba0 0008 	sub.w	r0, r0, r8
 800f5aa:	42b8      	cmp	r0, r7
 800f5ac:	d3c4      	bcc.n	800f538 <HAL_SPI_TransmitReceive+0xac>
 800f5ae:	1c78      	adds	r0, r7, #1
 800f5b0:	d0c2      	beq.n	800f538 <HAL_SPI_TransmitReceive+0xac>
 800f5b2:	2003      	movs	r0, #3
 800f5b4:	2301      	movs	r3, #1
 800f5b6:	f884 3051 	strb.w	r3, [r4, #81]	; 0x51
 800f5ba:	2300      	movs	r3, #0
 800f5bc:	f884 3050 	strb.w	r3, [r4, #80]	; 0x50
 800f5c0:	b003      	add	sp, #12
 800f5c2:	e8bd 83f0 	ldmia.w	sp!, {r4, r5, r6, r7, r8, r9, pc}
 800f5c6:	b10a      	cbz	r2, 800f5cc <HAL_SPI_TransmitReceive+0x140>
 800f5c8:	2e01      	cmp	r6, #1
 800f5ca:	d108      	bne.n	800f5de <HAL_SPI_TransmitReceive+0x152>
 800f5cc:	782a      	ldrb	r2, [r5, #0]
 800f5ce:	731a      	strb	r2, [r3, #12]
 800f5d0:	6b23      	ldr	r3, [r4, #48]	; 0x30
 800f5d2:	3301      	adds	r3, #1
 800f5d4:	6323      	str	r3, [r4, #48]	; 0x30
 800f5d6:	8ee3      	ldrh	r3, [r4, #54]	; 0x36
 800f5d8:	3b01      	subs	r3, #1
 800f5da:	b29b      	uxth	r3, r3
 800f5dc:	86e3      	strh	r3, [r4, #54]	; 0x36
 800f5de:	2501      	movs	r5, #1
 800f5e0:	e02d      	b.n	800f63e <HAL_SPI_TransmitReceive+0x1b2>
 800f5e2:	6822      	ldr	r2, [r4, #0]
 800f5e4:	6893      	ldr	r3, [r2, #8]
 800f5e6:	0799      	lsls	r1, r3, #30
 800f5e8:	d50e      	bpl.n	800f608 <HAL_SPI_TransmitReceive+0x17c>
 800f5ea:	8ee3      	ldrh	r3, [r4, #54]	; 0x36
 800f5ec:	b29b      	uxth	r3, r3
 800f5ee:	b15b      	cbz	r3, 800f608 <HAL_SPI_TransmitReceive+0x17c>
 800f5f0:	b155      	cbz	r5, 800f608 <HAL_SPI_TransmitReceive+0x17c>
 800f5f2:	6b23      	ldr	r3, [r4, #48]	; 0x30
 800f5f4:	781b      	ldrb	r3, [r3, #0]
 800f5f6:	7313      	strb	r3, [r2, #12]
 800f5f8:	6b23      	ldr	r3, [r4, #48]	; 0x30
 800f5fa:	3301      	adds	r3, #1
 800f5fc:	6323      	str	r3, [r4, #48]	; 0x30
 800f5fe:	8ee3      	ldrh	r3, [r4, #54]	; 0x36
 800f600:	3b01      	subs	r3, #1
 800f602:	b29b      	uxth	r3, r3
 800f604:	86e3      	strh	r3, [r4, #54]	; 0x36
 800f606:	2500      	movs	r5, #0
 800f608:	6822      	ldr	r2, [r4, #0]
 800f60a:	6891      	ldr	r1, [r2, #8]
 800f60c:	f011 0101 	ands.w	r1, r1, #1
 800f610:	d00d      	beq.n	800f62e <HAL_SPI_TransmitReceive+0x1a2>
 800f612:	8fe3      	ldrh	r3, [r4, #62]	; 0x3e
 800f614:	b29b      	uxth	r3, r3
 800f616:	b153      	cbz	r3, 800f62e <HAL_SPI_TransmitReceive+0x1a2>
 800f618:	6ba3      	ldr	r3, [r4, #56]	; 0x38
 800f61a:	68d2      	ldr	r2, [r2, #12]
 800f61c:	701a      	strb	r2, [r3, #0]
 800f61e:	6ba3      	ldr	r3, [r4, #56]	; 0x38
 800f620:	3301      	adds	r3, #1
 800f622:	63a3      	str	r3, [r4, #56]	; 0x38
 800f624:	8fe3      	ldrh	r3, [r4, #62]	; 0x3e
 800f626:	3b01      	subs	r3, #1
 800f628:	b29b      	uxth	r3, r3
 800f62a:	87e3      	strh	r3, [r4, #62]	; 0x3e
 800f62c:	460d      	mov	r5, r1
 800f62e:	f7fd f811 	bl	800c654 <HAL_GetTick>
 800f632:	eba0 0008 	sub.w	r0, r0, r8
 800f636:	42b8      	cmp	r0, r7
 800f638:	d30a      	bcc.n	800f650 <HAL_SPI_TransmitReceive+0x1c4>
 800f63a:	1c7b      	adds	r3, r7, #1
 800f63c:	d1b9      	bne.n	800f5b2 <HAL_SPI_TransmitReceive+0x126>
 800f63e:	8ee3      	ldrh	r3, [r4, #54]	; 0x36
 800f640:	b29b      	uxth	r3, r3
 800f642:	2b00      	cmp	r3, #0
 800f644:	d1cd      	bne.n	800f5e2 <HAL_SPI_TransmitReceive+0x156>
 800f646:	8fe3      	ldrh	r3, [r4, #62]	; 0x3e
 800f648:	b29b      	uxth	r3, r3
 800f64a:	2b00      	cmp	r3, #0
 800f64c:	d1c9      	bne.n	800f5e2 <HAL_SPI_TransmitReceive+0x156>
 800f64e:	e779      	b.n	800f544 <HAL_SPI_TransmitReceive+0xb8>
 800f650:	2f00      	cmp	r7, #0
 800f652:	d1f4      	bne.n	800f63e <HAL_SPI_TransmitReceive+0x1b2>
 800f654:	e7ad      	b.n	800f5b2 <HAL_SPI_TransmitReceive+0x126>
 800f656:	68a3      	ldr	r3, [r4, #8]
 800f658:	2b00      	cmp	r3, #0
 800f65a:	d1ab      	bne.n	800f5b4 <HAL_SPI_TransmitReceive+0x128>
 800f65c:	6823      	ldr	r3, [r4, #0]
 800f65e:	9001      	str	r0, [sp, #4]
 800f660:	68da      	ldr	r2, [r3, #12]
 800f662:	9201      	str	r2, [sp, #4]
 800f664:	689b      	ldr	r3, [r3, #8]
 800f666:	9301      	str	r3, [sp, #4]
 800f668:	9b01      	ldr	r3, [sp, #4]
 800f66a:	e7a3      	b.n	800f5b4 <HAL_SPI_TransmitReceive+0x128>
 800f66c:	2002      	movs	r0, #2
 800f66e:	e7a1      	b.n	800f5b4 <HAL_SPI_TransmitReceive+0x128>
 800f670:	2002      	movs	r0, #2
 800f672:	e7a5      	b.n	800f5c0 <HAL_SPI_TransmitReceive+0x134>

0800f674 <HAL_SPI_TransmitReceive_DMA>:
 800f674:	b538      	push	{r3, r4, r5, lr}
 800f676:	4604      	mov	r4, r0
 800f678:	f890 0050 	ldrb.w	r0, [r0, #80]	; 0x50
 800f67c:	2801      	cmp	r0, #1
 800f67e:	d072      	beq.n	800f766 <HAL_SPI_TransmitReceive_DMA+0xf2>
 800f680:	2001      	movs	r0, #1
 800f682:	f884 0050 	strb.w	r0, [r4, #80]	; 0x50
 800f686:	f894 0051 	ldrb.w	r0, [r4, #81]	; 0x51
 800f68a:	2801      	cmp	r0, #1
 800f68c:	b2c5      	uxtb	r5, r0
 800f68e:	d008      	beq.n	800f6a2 <HAL_SPI_TransmitReceive_DMA+0x2e>
 800f690:	6860      	ldr	r0, [r4, #4]
 800f692:	f5b0 7f82 	cmp.w	r0, #260	; 0x104
 800f696:	d162      	bne.n	800f75e <HAL_SPI_TransmitReceive_DMA+0xea>
 800f698:	68a0      	ldr	r0, [r4, #8]
 800f69a:	2800      	cmp	r0, #0
 800f69c:	d15f      	bne.n	800f75e <HAL_SPI_TransmitReceive_DMA+0xea>
 800f69e:	2d04      	cmp	r5, #4
 800f6a0:	d15d      	bne.n	800f75e <HAL_SPI_TransmitReceive_DMA+0xea>
 800f6a2:	2900      	cmp	r1, #0
 800f6a4:	d05d      	beq.n	800f762 <HAL_SPI_TransmitReceive_DMA+0xee>
 800f6a6:	2a00      	cmp	r2, #0
 800f6a8:	d05b      	beq.n	800f762 <HAL_SPI_TransmitReceive_DMA+0xee>
 800f6aa:	2b00      	cmp	r3, #0
 800f6ac:	d059      	beq.n	800f762 <HAL_SPI_TransmitReceive_DMA+0xee>
 800f6ae:	f894 0051 	ldrb.w	r0, [r4, #81]	; 0x51
 800f6b2:	86a3      	strh	r3, [r4, #52]	; 0x34
 800f6b4:	2804      	cmp	r0, #4
 800f6b6:	bf1c      	itt	ne
 800f6b8:	2005      	movne	r0, #5
 800f6ba:	f884 0051 	strbne.w	r0, [r4, #81]	; 0x51
 800f6be:	2000      	movs	r0, #0
 800f6c0:	6560      	str	r0, [r4, #84]	; 0x54
 800f6c2:	86e3      	strh	r3, [r4, #54]	; 0x36
 800f6c4:	87e3      	strh	r3, [r4, #62]	; 0x3e
 800f6c6:	87a3      	strh	r3, [r4, #60]	; 0x3c
 800f6c8:	f894 3051 	ldrb.w	r3, [r4, #81]	; 0x51
 800f6cc:	6321      	str	r1, [r4, #48]	; 0x30
 800f6ce:	2b04      	cmp	r3, #4
 800f6d0:	e9c4 0010 	strd	r0, r0, [r4, #64]	; 0x40
 800f6d4:	6ce0      	ldr	r0, [r4, #76]	; 0x4c
 800f6d6:	bf0c      	ite	eq
 800f6d8:	4b24      	ldreq	r3, [pc, #144]	; (800f76c <HAL_SPI_TransmitReceive_DMA+0xf8>)
 800f6da:	4b25      	ldrne	r3, [pc, #148]	; (800f770 <HAL_SPI_TransmitReceive_DMA+0xfc>)
 800f6dc:	63a2      	str	r2, [r4, #56]	; 0x38
 800f6de:	bf0b      	itete	eq
 800f6e0:	6403      	streq	r3, [r0, #64]	; 0x40
 800f6e2:	6403      	strne	r3, [r0, #64]	; 0x40
 800f6e4:	4b23      	ldreq	r3, [pc, #140]	; (800f774 <HAL_SPI_TransmitReceive_DMA+0x100>)
 800f6e6:	4b24      	ldrne	r3, [pc, #144]	; (800f778 <HAL_SPI_TransmitReceive_DMA+0x104>)
 800f6e8:	63c3      	str	r3, [r0, #60]	; 0x3c
 800f6ea:	4b24      	ldr	r3, [pc, #144]	; (800f77c <HAL_SPI_TransmitReceive_DMA+0x108>)
 800f6ec:	64c3      	str	r3, [r0, #76]	; 0x4c
 800f6ee:	2300      	movs	r3, #0
 800f6f0:	6821      	ldr	r1, [r4, #0]
 800f6f2:	6503      	str	r3, [r0, #80]	; 0x50
 800f6f4:	8fe3      	ldrh	r3, [r4, #62]	; 0x3e
 800f6f6:	310c      	adds	r1, #12
 800f6f8:	b29b      	uxth	r3, r3
 800f6fa:	f7fd f8ad 	bl	800c858 <HAL_DMA_Start_IT>
 800f6fe:	b150      	cbz	r0, 800f716 <HAL_SPI_TransmitReceive_DMA+0xa2>
 800f700:	6d63      	ldr	r3, [r4, #84]	; 0x54
 800f702:	2001      	movs	r0, #1
 800f704:	f043 0310 	orr.w	r3, r3, #16
 800f708:	6563      	str	r3, [r4, #84]	; 0x54
 800f70a:	f884 0051 	strb.w	r0, [r4, #81]	; 0x51
 800f70e:	2300      	movs	r3, #0
 800f710:	f884 3050 	strb.w	r3, [r4, #80]	; 0x50
 800f714:	bd38      	pop	{r3, r4, r5, pc}
 800f716:	6822      	ldr	r2, [r4, #0]
 800f718:	6ca5      	ldr	r5, [r4, #72]	; 0x48
 800f71a:	6853      	ldr	r3, [r2, #4]
 800f71c:	6b21      	ldr	r1, [r4, #48]	; 0x30
 800f71e:	f043 0301 	orr.w	r3, r3, #1
 800f722:	6053      	str	r3, [r2, #4]
 800f724:	8ee3      	ldrh	r3, [r4, #54]	; 0x36
 800f726:	e9c5 000f 	strd	r0, r0, [r5, #60]	; 0x3c
 800f72a:	e9c5 0013 	strd	r0, r0, [r5, #76]	; 0x4c
 800f72e:	b29b      	uxth	r3, r3
 800f730:	320c      	adds	r2, #12
 800f732:	4628      	mov	r0, r5
 800f734:	f7fd f890 	bl	800c858 <HAL_DMA_Start_IT>
 800f738:	2800      	cmp	r0, #0
 800f73a:	d1e1      	bne.n	800f700 <HAL_SPI_TransmitReceive_DMA+0x8c>
 800f73c:	6823      	ldr	r3, [r4, #0]
 800f73e:	681a      	ldr	r2, [r3, #0]
 800f740:	0652      	lsls	r2, r2, #25
 800f742:	bf5e      	ittt	pl
 800f744:	681a      	ldrpl	r2, [r3, #0]
 800f746:	f042 0240 	orrpl.w	r2, r2, #64	; 0x40
 800f74a:	601a      	strpl	r2, [r3, #0]
 800f74c:	685a      	ldr	r2, [r3, #4]
 800f74e:	f042 0220 	orr.w	r2, r2, #32
 800f752:	605a      	str	r2, [r3, #4]
 800f754:	685a      	ldr	r2, [r3, #4]
 800f756:	f042 0202 	orr.w	r2, r2, #2
 800f75a:	605a      	str	r2, [r3, #4]
 800f75c:	e7d7      	b.n	800f70e <HAL_SPI_TransmitReceive_DMA+0x9a>
 800f75e:	2002      	movs	r0, #2
 800f760:	e7d5      	b.n	800f70e <HAL_SPI_TransmitReceive_DMA+0x9a>
 800f762:	2001      	movs	r0, #1
 800f764:	e7d3      	b.n	800f70e <HAL_SPI_TransmitReceive_DMA+0x9a>
 800f766:	2002      	movs	r0, #2
 800f768:	e7d4      	b.n	800f714 <HAL_SPI_TransmitReceive_DMA+0xa0>
 800f76a:	bf00      	nop
 800f76c:	0800f785 	.word	0x0800f785
 800f770:	0800f791 	.word	0x0800f791
 800f774:	0800f7bf 	.word	0x0800f7bf
 800f778:	0800f825 	.word	0x0800f825
 800f77c:	0800f79d 	.word	0x0800f79d

0800f780 <HAL_SPI_RxCpltCallback>:
 800f780:	4770      	bx	lr

0800f782 <HAL_SPI_RxHalfCpltCallback>:
 800f782:	4770      	bx	lr

0800f784 <SPI_DMAHalfReceiveCplt>:
 800f784:	b508      	push	{r3, lr}
 800f786:	6b80      	ldr	r0, [r0, #56]	; 0x38
 800f788:	f7ff fffb 	bl	800f782 <HAL_SPI_RxHalfCpltCallback>
 800f78c:	bd08      	pop	{r3, pc}

0800f78e <HAL_SPI_TxRxHalfCpltCallback>:
 800f78e:	4770      	bx	lr

0800f790 <SPI_DMAHalfTransmitReceiveCplt>:
 800f790:	b508      	push	{r3, lr}
 800f792:	6b80      	ldr	r0, [r0, #56]	; 0x38
 800f794:	f7ff fffb 	bl	800f78e <HAL_SPI_TxRxHalfCpltCallback>
 800f798:	bd08      	pop	{r3, pc}

0800f79a <HAL_SPI_ErrorCallback>:
 800f79a:	4770      	bx	lr

0800f79c <SPI_DMAError>:
 800f79c:	6b80      	ldr	r0, [r0, #56]	; 0x38
 800f79e:	6802      	ldr	r2, [r0, #0]
 800f7a0:	b508      	push	{r3, lr}
 800f7a2:	6853      	ldr	r3, [r2, #4]
 800f7a4:	f023 0303 	bic.w	r3, r3, #3
 800f7a8:	6053      	str	r3, [r2, #4]
 800f7aa:	6d43      	ldr	r3, [r0, #84]	; 0x54
 800f7ac:	f043 0310 	orr.w	r3, r3, #16
 800f7b0:	6543      	str	r3, [r0, #84]	; 0x54
 800f7b2:	2301      	movs	r3, #1
 800f7b4:	f880 3051 	strb.w	r3, [r0, #81]	; 0x51
 800f7b8:	f7ff ffef 	bl	800f79a <HAL_SPI_ErrorCallback>
 800f7bc:	bd08      	pop	{r3, pc}

0800f7be <SPI_DMAReceiveCplt>:
 800f7be:	b538      	push	{r3, r4, r5, lr}
 800f7c0:	4605      	mov	r5, r0
 800f7c2:	6b84      	ldr	r4, [r0, #56]	; 0x38
 800f7c4:	f7fc ff46 	bl	800c654 <HAL_GetTick>
 800f7c8:	682b      	ldr	r3, [r5, #0]
 800f7ca:	681b      	ldr	r3, [r3, #0]
 800f7cc:	05db      	lsls	r3, r3, #23
 800f7ce:	4602      	mov	r2, r0
 800f7d0:	d424      	bmi.n	800f81c <SPI_DMAReceiveCplt+0x5e>
 800f7d2:	6823      	ldr	r3, [r4, #0]
 800f7d4:	6859      	ldr	r1, [r3, #4]
 800f7d6:	f021 0120 	bic.w	r1, r1, #32
 800f7da:	6059      	str	r1, [r3, #4]
 800f7dc:	68a1      	ldr	r1, [r4, #8]
 800f7de:	b9c9      	cbnz	r1, 800f814 <SPI_DMAReceiveCplt+0x56>
 800f7e0:	6861      	ldr	r1, [r4, #4]
 800f7e2:	f5b1 7f82 	cmp.w	r1, #260	; 0x104
 800f7e6:	d115      	bne.n	800f814 <SPI_DMAReceiveCplt+0x56>
 800f7e8:	6859      	ldr	r1, [r3, #4]
 800f7ea:	f021 0103 	bic.w	r1, r1, #3
 800f7ee:	6059      	str	r1, [r3, #4]
 800f7f0:	4620      	mov	r0, r4
 800f7f2:	2164      	movs	r1, #100	; 0x64
 800f7f4:	f7ff fd98 	bl	800f328 <SPI_EndRxTransaction>
 800f7f8:	b108      	cbz	r0, 800f7fe <SPI_DMAReceiveCplt+0x40>
 800f7fa:	2320      	movs	r3, #32
 800f7fc:	6563      	str	r3, [r4, #84]	; 0x54
 800f7fe:	2300      	movs	r3, #0
 800f800:	87e3      	strh	r3, [r4, #62]	; 0x3e
 800f802:	2301      	movs	r3, #1
 800f804:	f884 3051 	strb.w	r3, [r4, #81]	; 0x51
 800f808:	6d63      	ldr	r3, [r4, #84]	; 0x54
 800f80a:	b13b      	cbz	r3, 800f81c <SPI_DMAReceiveCplt+0x5e>
 800f80c:	4620      	mov	r0, r4
 800f80e:	f7ff ffc4 	bl	800f79a <HAL_SPI_ErrorCallback>
 800f812:	bd38      	pop	{r3, r4, r5, pc}
 800f814:	6859      	ldr	r1, [r3, #4]
 800f816:	f021 0101 	bic.w	r1, r1, #1
 800f81a:	e7e8      	b.n	800f7ee <SPI_DMAReceiveCplt+0x30>
 800f81c:	4620      	mov	r0, r4
 800f81e:	f7ff ffaf 	bl	800f780 <HAL_SPI_RxCpltCallback>
 800f822:	e7f6      	b.n	800f812 <SPI_DMAReceiveCplt+0x54>

0800f824 <SPI_DMATransmitReceiveCplt>:
 800f824:	b538      	push	{r3, r4, r5, lr}
 800f826:	4605      	mov	r5, r0
 800f828:	6b84      	ldr	r4, [r0, #56]	; 0x38
 800f82a:	f7fc ff13 	bl	800c654 <HAL_GetTick>
 800f82e:	682b      	ldr	r3, [r5, #0]
 800f830:	681b      	ldr	r3, [r3, #0]
 800f832:	05db      	lsls	r3, r3, #23
 800f834:	4602      	mov	r2, r0
 800f836:	d41e      	bmi.n	800f876 <SPI_DMATransmitReceiveCplt+0x52>
 800f838:	6821      	ldr	r1, [r4, #0]
 800f83a:	684b      	ldr	r3, [r1, #4]
 800f83c:	f023 0320 	bic.w	r3, r3, #32
 800f840:	604b      	str	r3, [r1, #4]
 800f842:	4620      	mov	r0, r4
 800f844:	2164      	movs	r1, #100	; 0x64
 800f846:	f7ff fd99 	bl	800f37c <SPI_EndRxTxTransaction>
 800f84a:	b118      	cbz	r0, 800f854 <SPI_DMATransmitReceiveCplt+0x30>
 800f84c:	6d63      	ldr	r3, [r4, #84]	; 0x54
 800f84e:	f043 0320 	orr.w	r3, r3, #32
 800f852:	6563      	str	r3, [r4, #84]	; 0x54
 800f854:	6822      	ldr	r2, [r4, #0]
 800f856:	6853      	ldr	r3, [r2, #4]
 800f858:	f023 0303 	bic.w	r3, r3, #3
 800f85c:	6053      	str	r3, [r2, #4]
 800f85e:	2300      	movs	r3, #0
 800f860:	86e3      	strh	r3, [r4, #54]	; 0x36
 800f862:	87e3      	strh	r3, [r4, #62]	; 0x3e
 800f864:	2301      	movs	r3, #1
 800f866:	f884 3051 	strb.w	r3, [r4, #81]	; 0x51
 800f86a:	6d63      	ldr	r3, [r4, #84]	; 0x54
 800f86c:	b11b      	cbz	r3, 800f876 <SPI_DMATransmitReceiveCplt+0x52>
 800f86e:	4620      	mov	r0, r4
 800f870:	f7ff ff93 	bl	800f79a <HAL_SPI_ErrorCallback>
 800f874:	bd38      	pop	{r3, r4, r5, pc}
 800f876:	4620      	mov	r0, r4
 800f878:	f7fc fb7a 	bl	800bf70 <HAL_SPI_TxRxCpltCallback>
 800f87c:	e7fa      	b.n	800f874 <SPI_DMATransmitReceiveCplt+0x50>
	...

0800f880 <HAL_SPI_IRQHandler>:
 800f880:	b5f0      	push	{r4, r5, r6, r7, lr}
 800f882:	6803      	ldr	r3, [r0, #0]
 800f884:	685d      	ldr	r5, [r3, #4]
 800f886:	689a      	ldr	r2, [r3, #8]
 800f888:	0656      	lsls	r6, r2, #25
 800f88a:	b085      	sub	sp, #20
 800f88c:	4604      	mov	r4, r0
 800f88e:	ea4f 1192 	mov.w	r1, r2, lsr #6
 800f892:	f3c2 1780 	ubfx	r7, r2, #6, #1
 800f896:	d408      	bmi.n	800f8aa <HAL_SPI_IRQHandler+0x2a>
 800f898:	07d6      	lsls	r6, r2, #31
 800f89a:	d506      	bpl.n	800f8aa <HAL_SPI_IRQHandler+0x2a>
 800f89c:	066e      	lsls	r6, r5, #25
 800f89e:	d504      	bpl.n	800f8aa <HAL_SPI_IRQHandler+0x2a>
 800f8a0:	6c03      	ldr	r3, [r0, #64]	; 0x40
 800f8a2:	b005      	add	sp, #20
 800f8a4:	e8bd 40f0 	ldmia.w	sp!, {r4, r5, r6, r7, lr}
 800f8a8:	4718      	bx	r3
 800f8aa:	0796      	lsls	r6, r2, #30
 800f8ac:	d504      	bpl.n	800f8b8 <HAL_SPI_IRQHandler+0x38>
 800f8ae:	0628      	lsls	r0, r5, #24
 800f8b0:	d502      	bpl.n	800f8b8 <HAL_SPI_IRQHandler+0x38>
 800f8b2:	6c63      	ldr	r3, [r4, #68]	; 0x44
 800f8b4:	4620      	mov	r0, r4
 800f8b6:	e7f4      	b.n	800f8a2 <HAL_SPI_IRQHandler+0x22>
 800f8b8:	ea41 1152 	orr.w	r1, r1, r2, lsr #5
 800f8bc:	f3c2 2000 	ubfx	r0, r2, #8, #1
 800f8c0:	f001 0101 	and.w	r1, r1, #1
 800f8c4:	0956      	lsrs	r6, r2, #5
 800f8c6:	ea51 0200 	orrs.w	r2, r1, r0
 800f8ca:	d057      	beq.n	800f97c <HAL_SPI_IRQHandler+0xfc>
 800f8cc:	06aa      	lsls	r2, r5, #26
 800f8ce:	d555      	bpl.n	800f97c <HAL_SPI_IRQHandler+0xfc>
 800f8d0:	b17f      	cbz	r7, 800f8f2 <HAL_SPI_IRQHandler+0x72>
 800f8d2:	f894 2051 	ldrb.w	r2, [r4, #81]	; 0x51
 800f8d6:	2a03      	cmp	r2, #3
 800f8d8:	f04f 0100 	mov.w	r1, #0
 800f8dc:	d048      	beq.n	800f970 <HAL_SPI_IRQHandler+0xf0>
 800f8de:	6d62      	ldr	r2, [r4, #84]	; 0x54
 800f8e0:	f042 0204 	orr.w	r2, r2, #4
 800f8e4:	6562      	str	r2, [r4, #84]	; 0x54
 800f8e6:	9100      	str	r1, [sp, #0]
 800f8e8:	68da      	ldr	r2, [r3, #12]
 800f8ea:	9200      	str	r2, [sp, #0]
 800f8ec:	689a      	ldr	r2, [r3, #8]
 800f8ee:	9200      	str	r2, [sp, #0]
 800f8f0:	9a00      	ldr	r2, [sp, #0]
 800f8f2:	07f1      	lsls	r1, r6, #31
 800f8f4:	d50c      	bpl.n	800f910 <HAL_SPI_IRQHandler+0x90>
 800f8f6:	6d62      	ldr	r2, [r4, #84]	; 0x54
 800f8f8:	f042 0201 	orr.w	r2, r2, #1
 800f8fc:	6562      	str	r2, [r4, #84]	; 0x54
 800f8fe:	2200      	movs	r2, #0
 800f900:	9202      	str	r2, [sp, #8]
 800f902:	689a      	ldr	r2, [r3, #8]
 800f904:	9202      	str	r2, [sp, #8]
 800f906:	681a      	ldr	r2, [r3, #0]
 800f908:	f022 0240 	bic.w	r2, r2, #64	; 0x40
 800f90c:	601a      	str	r2, [r3, #0]
 800f90e:	9a02      	ldr	r2, [sp, #8]
 800f910:	b140      	cbz	r0, 800f924 <HAL_SPI_IRQHandler+0xa4>
 800f912:	6d62      	ldr	r2, [r4, #84]	; 0x54
 800f914:	f042 0208 	orr.w	r2, r2, #8
 800f918:	6562      	str	r2, [r4, #84]	; 0x54
 800f91a:	2200      	movs	r2, #0
 800f91c:	9203      	str	r2, [sp, #12]
 800f91e:	689a      	ldr	r2, [r3, #8]
 800f920:	9203      	str	r2, [sp, #12]
 800f922:	9a03      	ldr	r2, [sp, #12]
 800f924:	6d62      	ldr	r2, [r4, #84]	; 0x54
 800f926:	b34a      	cbz	r2, 800f97c <HAL_SPI_IRQHandler+0xfc>
 800f928:	685a      	ldr	r2, [r3, #4]
 800f92a:	f022 02e0 	bic.w	r2, r2, #224	; 0xe0
 800f92e:	605a      	str	r2, [r3, #4]
 800f930:	2201      	movs	r2, #1
 800f932:	f884 2051 	strb.w	r2, [r4, #81]	; 0x51
 800f936:	07aa      	lsls	r2, r5, #30
 800f938:	d022      	beq.n	800f980 <HAL_SPI_IRQHandler+0x100>
 800f93a:	685a      	ldr	r2, [r3, #4]
 800f93c:	6ce0      	ldr	r0, [r4, #76]	; 0x4c
 800f93e:	f022 0203 	bic.w	r2, r2, #3
 800f942:	605a      	str	r2, [r3, #4]
 800f944:	b140      	cbz	r0, 800f958 <HAL_SPI_IRQHandler+0xd8>
 800f946:	4b10      	ldr	r3, [pc, #64]	; (800f988 <HAL_SPI_IRQHandler+0x108>)
 800f948:	6503      	str	r3, [r0, #80]	; 0x50
 800f94a:	f7fc ffbf 	bl	800c8cc <HAL_DMA_Abort_IT>
 800f94e:	b118      	cbz	r0, 800f958 <HAL_SPI_IRQHandler+0xd8>
 800f950:	6d63      	ldr	r3, [r4, #84]	; 0x54
 800f952:	f043 0340 	orr.w	r3, r3, #64	; 0x40
 800f956:	6563      	str	r3, [r4, #84]	; 0x54
 800f958:	6ca0      	ldr	r0, [r4, #72]	; 0x48
 800f95a:	b178      	cbz	r0, 800f97c <HAL_SPI_IRQHandler+0xfc>
 800f95c:	4b0a      	ldr	r3, [pc, #40]	; (800f988 <HAL_SPI_IRQHandler+0x108>)
 800f95e:	6503      	str	r3, [r0, #80]	; 0x50
 800f960:	f7fc ffb4 	bl	800c8cc <HAL_DMA_Abort_IT>
 800f964:	b150      	cbz	r0, 800f97c <HAL_SPI_IRQHandler+0xfc>
 800f966:	6d63      	ldr	r3, [r4, #84]	; 0x54
 800f968:	f043 0340 	orr.w	r3, r3, #64	; 0x40
 800f96c:	6563      	str	r3, [r4, #84]	; 0x54
 800f96e:	e005      	b.n	800f97c <HAL_SPI_IRQHandler+0xfc>
 800f970:	9101      	str	r1, [sp, #4]
 800f972:	68da      	ldr	r2, [r3, #12]
 800f974:	9201      	str	r2, [sp, #4]
 800f976:	689b      	ldr	r3, [r3, #8]
 800f978:	9301      	str	r3, [sp, #4]
 800f97a:	9b01      	ldr	r3, [sp, #4]
 800f97c:	b005      	add	sp, #20
 800f97e:	bdf0      	pop	{r4, r5, r6, r7, pc}
 800f980:	4620      	mov	r0, r4
 800f982:	f7ff ff0a 	bl	800f79a <HAL_SPI_ErrorCallback>
 800f986:	e7f9      	b.n	800f97c <HAL_SPI_IRQHandler+0xfc>
 800f988:	0800f98d 	.word	0x0800f98d

0800f98c <SPI_DMAAbortOnError>:
 800f98c:	b508      	push	{r3, lr}
 800f98e:	6b80      	ldr	r0, [r0, #56]	; 0x38
 800f990:	2300      	movs	r3, #0
 800f992:	87c3      	strh	r3, [r0, #62]	; 0x3e
 800f994:	86c3      	strh	r3, [r0, #54]	; 0x36
 800f996:	f7ff ff00 	bl	800f79a <HAL_SPI_ErrorCallback>
 800f99a:	bd08      	pop	{r3, pc}

0800f99c <HAL_SPI_GetState>:
 800f99c:	f890 0051 	ldrb.w	r0, [r0, #81]	; 0x51
 800f9a0:	4770      	bx	lr
	...

0800f9a4 <TIM_OC1_SetConfig>:
 800f9a4:	6a03      	ldr	r3, [r0, #32]
 800f9a6:	f023 0301 	bic.w	r3, r3, #1
 800f9aa:	6203      	str	r3, [r0, #32]
 800f9ac:	6a03      	ldr	r3, [r0, #32]
 800f9ae:	b570      	push	{r4, r5, r6, lr}
 800f9b0:	6844      	ldr	r4, [r0, #4]
 800f9b2:	6982      	ldr	r2, [r0, #24]
 800f9b4:	680d      	ldr	r5, [r1, #0]
 800f9b6:	f022 0273 	bic.w	r2, r2, #115	; 0x73
 800f9ba:	432a      	orrs	r2, r5
 800f9bc:	688d      	ldr	r5, [r1, #8]
 800f9be:	f023 0302 	bic.w	r3, r3, #2
 800f9c2:	432b      	orrs	r3, r5
 800f9c4:	4d0a      	ldr	r5, [pc, #40]	; (800f9f0 <TIM_OC1_SetConfig+0x4c>)
 800f9c6:	42a8      	cmp	r0, r5
 800f9c8:	d10b      	bne.n	800f9e2 <TIM_OC1_SetConfig+0x3e>
 800f9ca:	68cd      	ldr	r5, [r1, #12]
 800f9cc:	f023 0308 	bic.w	r3, r3, #8
 800f9d0:	432b      	orrs	r3, r5
 800f9d2:	e9d1 5605 	ldrd	r5, r6, [r1, #20]
 800f9d6:	f424 7440 	bic.w	r4, r4, #768	; 0x300
 800f9da:	4335      	orrs	r5, r6
 800f9dc:	f023 0304 	bic.w	r3, r3, #4
 800f9e0:	432c      	orrs	r4, r5
 800f9e2:	6044      	str	r4, [r0, #4]
 800f9e4:	6182      	str	r2, [r0, #24]
 800f9e6:	684a      	ldr	r2, [r1, #4]
 800f9e8:	6342      	str	r2, [r0, #52]	; 0x34
 800f9ea:	6203      	str	r3, [r0, #32]
 800f9ec:	bd70      	pop	{r4, r5, r6, pc}
 800f9ee:	bf00      	nop
 800f9f0:	40010000 	.word	0x40010000

0800f9f4 <TIM_OC3_SetConfig>:
 800f9f4:	6a03      	ldr	r3, [r0, #32]
 800f9f6:	f423 7380 	bic.w	r3, r3, #256	; 0x100
 800f9fa:	6203      	str	r3, [r0, #32]
 800f9fc:	6a03      	ldr	r3, [r0, #32]
 800f9fe:	b570      	push	{r4, r5, r6, lr}
 800fa00:	6844      	ldr	r4, [r0, #4]
 800fa02:	69c2      	ldr	r2, [r0, #28]
 800fa04:	680d      	ldr	r5, [r1, #0]
 800fa06:	f022 0273 	bic.w	r2, r2, #115	; 0x73
 800fa0a:	432a      	orrs	r2, r5
 800fa0c:	688d      	ldr	r5, [r1, #8]
 800fa0e:	f423 7300 	bic.w	r3, r3, #512	; 0x200
 800fa12:	ea43 2305 	orr.w	r3, r3, r5, lsl #8
 800fa16:	4d0b      	ldr	r5, [pc, #44]	; (800fa44 <TIM_OC3_SetConfig+0x50>)
 800fa18:	42a8      	cmp	r0, r5
 800fa1a:	d10d      	bne.n	800fa38 <TIM_OC3_SetConfig+0x44>
 800fa1c:	68cd      	ldr	r5, [r1, #12]
 800fa1e:	f423 6300 	bic.w	r3, r3, #2048	; 0x800
 800fa22:	ea43 2305 	orr.w	r3, r3, r5, lsl #8
 800fa26:	e9d1 5605 	ldrd	r5, r6, [r1, #20]
 800fa2a:	f424 5440 	bic.w	r4, r4, #12288	; 0x3000
 800fa2e:	4335      	orrs	r5, r6
 800fa30:	f423 6380 	bic.w	r3, r3, #1024	; 0x400
 800fa34:	ea44 1405 	orr.w	r4, r4, r5, lsl #4
 800fa38:	6044      	str	r4, [r0, #4]
 800fa3a:	61c2      	str	r2, [r0, #28]
 800fa3c:	684a      	ldr	r2, [r1, #4]
 800fa3e:	63c2      	str	r2, [r0, #60]	; 0x3c
 800fa40:	6203      	str	r3, [r0, #32]
 800fa42:	bd70      	pop	{r4, r5, r6, pc}
 800fa44:	40010000 	.word	0x40010000

0800fa48 <TIM_OC4_SetConfig>:
 800fa48:	6a03      	ldr	r3, [r0, #32]
 800fa4a:	f423 5380 	bic.w	r3, r3, #4096	; 0x1000
 800fa4e:	6203      	str	r3, [r0, #32]
 800fa50:	6a03      	ldr	r3, [r0, #32]
 800fa52:	b530      	push	{r4, r5, lr}
 800fa54:	6844      	ldr	r4, [r0, #4]
 800fa56:	69c2      	ldr	r2, [r0, #28]
 800fa58:	680d      	ldr	r5, [r1, #0]
 800fa5a:	f422 42e6 	bic.w	r2, r2, #29440	; 0x7300
 800fa5e:	ea42 2205 	orr.w	r2, r2, r5, lsl #8
 800fa62:	688d      	ldr	r5, [r1, #8]
 800fa64:	f423 5300 	bic.w	r3, r3, #8192	; 0x2000
 800fa68:	ea43 3305 	orr.w	r3, r3, r5, lsl #12
 800fa6c:	4d06      	ldr	r5, [pc, #24]	; (800fa88 <TIM_OC4_SetConfig+0x40>)
 800fa6e:	42a8      	cmp	r0, r5
 800fa70:	bf02      	ittt	eq
 800fa72:	694d      	ldreq	r5, [r1, #20]
 800fa74:	f424 4480 	biceq.w	r4, r4, #16384	; 0x4000
 800fa78:	ea44 1485 	orreq.w	r4, r4, r5, lsl #6
 800fa7c:	6044      	str	r4, [r0, #4]
 800fa7e:	61c2      	str	r2, [r0, #28]
 800fa80:	684a      	ldr	r2, [r1, #4]
 800fa82:	6402      	str	r2, [r0, #64]	; 0x40
 800fa84:	6203      	str	r3, [r0, #32]
 800fa86:	bd30      	pop	{r4, r5, pc}
 800fa88:	40010000 	.word	0x40010000

0800fa8c <HAL_TIM_Base_Start_IT>:
 800fa8c:	f890 303d 	ldrb.w	r3, [r0, #61]	; 0x3d
 800fa90:	2b01      	cmp	r3, #1
 800fa92:	d128      	bne.n	800fae6 <HAL_TIM_Base_Start_IT+0x5a>
 800fa94:	2302      	movs	r3, #2
 800fa96:	f880 303d 	strb.w	r3, [r0, #61]	; 0x3d
 800fa9a:	6803      	ldr	r3, [r0, #0]
 800fa9c:	68da      	ldr	r2, [r3, #12]
 800fa9e:	f042 0201 	orr.w	r2, r2, #1
 800faa2:	60da      	str	r2, [r3, #12]
 800faa4:	4a11      	ldr	r2, [pc, #68]	; (800faec <HAL_TIM_Base_Start_IT+0x60>)
 800faa6:	4293      	cmp	r3, r2
 800faa8:	d012      	beq.n	800fad0 <HAL_TIM_Base_Start_IT+0x44>
 800faaa:	f1b3 4f80 	cmp.w	r3, #1073741824	; 0x40000000
 800faae:	d00f      	beq.n	800fad0 <HAL_TIM_Base_Start_IT+0x44>
 800fab0:	f5a2 427c 	sub.w	r2, r2, #64512	; 0xfc00
 800fab4:	4293      	cmp	r3, r2
 800fab6:	d00b      	beq.n	800fad0 <HAL_TIM_Base_Start_IT+0x44>
 800fab8:	f502 6280 	add.w	r2, r2, #1024	; 0x400
 800fabc:	4293      	cmp	r3, r2
 800fabe:	d007      	beq.n	800fad0 <HAL_TIM_Base_Start_IT+0x44>
 800fac0:	f502 6280 	add.w	r2, r2, #1024	; 0x400
 800fac4:	4293      	cmp	r3, r2
 800fac6:	d003      	beq.n	800fad0 <HAL_TIM_Base_Start_IT+0x44>
 800fac8:	f502 329a 	add.w	r2, r2, #78848	; 0x13400
 800facc:	4293      	cmp	r3, r2
 800face:	d104      	bne.n	800fada <HAL_TIM_Base_Start_IT+0x4e>
 800fad0:	689a      	ldr	r2, [r3, #8]
 800fad2:	f002 0207 	and.w	r2, r2, #7
 800fad6:	2a06      	cmp	r2, #6
 800fad8:	d003      	beq.n	800fae2 <HAL_TIM_Base_Start_IT+0x56>
 800fada:	681a      	ldr	r2, [r3, #0]
 800fadc:	f042 0201 	orr.w	r2, r2, #1
 800fae0:	601a      	str	r2, [r3, #0]
 800fae2:	2000      	movs	r0, #0
 800fae4:	4770      	bx	lr
 800fae6:	2001      	movs	r0, #1
 800fae8:	4770      	bx	lr
 800faea:	bf00      	nop
 800faec:	40010000 	.word	0x40010000

0800faf0 <HAL_TIM_PWM_MspInit>:
 800faf0:	4770      	bx	lr

0800faf2 <HAL_TIM_OC_DelayElapsedCallback>:
 800faf2:	4770      	bx	lr

0800faf4 <HAL_TIM_IC_CaptureCallback>:
 800faf4:	4770      	bx	lr

0800faf6 <HAL_TIM_PWM_PulseFinishedCallback>:
 800faf6:	4770      	bx	lr

0800faf8 <HAL_TIM_TriggerCallback>:
 800faf8:	4770      	bx	lr

0800fafa <HAL_TIM_IRQHandler>:
 800fafa:	6803      	ldr	r3, [r0, #0]
 800fafc:	691a      	ldr	r2, [r3, #16]
 800fafe:	0791      	lsls	r1, r2, #30
 800fb00:	b510      	push	{r4, lr}
 800fb02:	4604      	mov	r4, r0
 800fb04:	d50e      	bpl.n	800fb24 <HAL_TIM_IRQHandler+0x2a>
 800fb06:	68da      	ldr	r2, [r3, #12]
 800fb08:	0792      	lsls	r2, r2, #30
 800fb0a:	d50b      	bpl.n	800fb24 <HAL_TIM_IRQHandler+0x2a>
 800fb0c:	f06f 0202 	mvn.w	r2, #2
 800fb10:	611a      	str	r2, [r3, #16]
 800fb12:	2201      	movs	r2, #1
 800fb14:	7702      	strb	r2, [r0, #28]
 800fb16:	699b      	ldr	r3, [r3, #24]
 800fb18:	079b      	lsls	r3, r3, #30
 800fb1a:	d077      	beq.n	800fc0c <HAL_TIM_IRQHandler+0x112>
 800fb1c:	f7ff ffea 	bl	800faf4 <HAL_TIM_IC_CaptureCallback>
 800fb20:	2300      	movs	r3, #0
 800fb22:	7723      	strb	r3, [r4, #28]
 800fb24:	6823      	ldr	r3, [r4, #0]
 800fb26:	691a      	ldr	r2, [r3, #16]
 800fb28:	0750      	lsls	r0, r2, #29
 800fb2a:	d510      	bpl.n	800fb4e <HAL_TIM_IRQHandler+0x54>
 800fb2c:	68da      	ldr	r2, [r3, #12]
 800fb2e:	0751      	lsls	r1, r2, #29
 800fb30:	d50d      	bpl.n	800fb4e <HAL_TIM_IRQHandler+0x54>
 800fb32:	f06f 0204 	mvn.w	r2, #4
 800fb36:	611a      	str	r2, [r3, #16]
 800fb38:	2202      	movs	r2, #2
 800fb3a:	7722      	strb	r2, [r4, #28]
 800fb3c:	699b      	ldr	r3, [r3, #24]
 800fb3e:	f413 7f40 	tst.w	r3, #768	; 0x300
 800fb42:	4620      	mov	r0, r4
 800fb44:	d068      	beq.n	800fc18 <HAL_TIM_IRQHandler+0x11e>
 800fb46:	f7ff ffd5 	bl	800faf4 <HAL_TIM_IC_CaptureCallback>
 800fb4a:	2300      	movs	r3, #0
 800fb4c:	7723      	strb	r3, [r4, #28]
 800fb4e:	6823      	ldr	r3, [r4, #0]
 800fb50:	691a      	ldr	r2, [r3, #16]
 800fb52:	0712      	lsls	r2, r2, #28
 800fb54:	d50f      	bpl.n	800fb76 <HAL_TIM_IRQHandler+0x7c>
 800fb56:	68da      	ldr	r2, [r3, #12]
 800fb58:	0710      	lsls	r0, r2, #28
 800fb5a:	d50c      	bpl.n	800fb76 <HAL_TIM_IRQHandler+0x7c>
 800fb5c:	f06f 0208 	mvn.w	r2, #8
 800fb60:	611a      	str	r2, [r3, #16]
 800fb62:	2204      	movs	r2, #4
 800fb64:	7722      	strb	r2, [r4, #28]
 800fb66:	69db      	ldr	r3, [r3, #28]
 800fb68:	0799      	lsls	r1, r3, #30
 800fb6a:	4620      	mov	r0, r4
 800fb6c:	d05a      	beq.n	800fc24 <HAL_TIM_IRQHandler+0x12a>
 800fb6e:	f7ff ffc1 	bl	800faf4 <HAL_TIM_IC_CaptureCallback>
 800fb72:	2300      	movs	r3, #0
 800fb74:	7723      	strb	r3, [r4, #28]
 800fb76:	6823      	ldr	r3, [r4, #0]
 800fb78:	691a      	ldr	r2, [r3, #16]
 800fb7a:	06d2      	lsls	r2, r2, #27
 800fb7c:	d510      	bpl.n	800fba0 <HAL_TIM_IRQHandler+0xa6>
 800fb7e:	68da      	ldr	r2, [r3, #12]
 800fb80:	06d0      	lsls	r0, r2, #27
 800fb82:	d50d      	bpl.n	800fba0 <HAL_TIM_IRQHandler+0xa6>
 800fb84:	f06f 0210 	mvn.w	r2, #16
 800fb88:	611a      	str	r2, [r3, #16]
 800fb8a:	2208      	movs	r2, #8
 800fb8c:	7722      	strb	r2, [r4, #28]
 800fb8e:	69db      	ldr	r3, [r3, #28]
 800fb90:	f413 7f40 	tst.w	r3, #768	; 0x300
 800fb94:	4620      	mov	r0, r4
 800fb96:	d04b      	beq.n	800fc30 <HAL_TIM_IRQHandler+0x136>
 800fb98:	f7ff ffac 	bl	800faf4 <HAL_TIM_IC_CaptureCallback>
 800fb9c:	2300      	movs	r3, #0
 800fb9e:	7723      	strb	r3, [r4, #28]
 800fba0:	6823      	ldr	r3, [r4, #0]
 800fba2:	691a      	ldr	r2, [r3, #16]
 800fba4:	07d1      	lsls	r1, r2, #31
 800fba6:	d508      	bpl.n	800fbba <HAL_TIM_IRQHandler+0xc0>
 800fba8:	68da      	ldr	r2, [r3, #12]
 800fbaa:	07d2      	lsls	r2, r2, #31
 800fbac:	d505      	bpl.n	800fbba <HAL_TIM_IRQHandler+0xc0>
 800fbae:	f06f 0201 	mvn.w	r2, #1
 800fbb2:	611a      	str	r2, [r3, #16]
 800fbb4:	4620      	mov	r0, r4
 800fbb6:	f7fc fa47 	bl	800c048 <HAL_TIM_PeriodElapsedCallback>
 800fbba:	6823      	ldr	r3, [r4, #0]
 800fbbc:	691a      	ldr	r2, [r3, #16]
 800fbbe:	0610      	lsls	r0, r2, #24
 800fbc0:	d508      	bpl.n	800fbd4 <HAL_TIM_IRQHandler+0xda>
 800fbc2:	68da      	ldr	r2, [r3, #12]
 800fbc4:	0611      	lsls	r1, r2, #24
 800fbc6:	d505      	bpl.n	800fbd4 <HAL_TIM_IRQHandler+0xda>
 800fbc8:	f06f 0280 	mvn.w	r2, #128	; 0x80
 800fbcc:	611a      	str	r2, [r3, #16]
 800fbce:	4620      	mov	r0, r4
 800fbd0:	f000 fad1 	bl	8010176 <HAL_TIMEx_BreakCallback>
 800fbd4:	6823      	ldr	r3, [r4, #0]
 800fbd6:	691a      	ldr	r2, [r3, #16]
 800fbd8:	0652      	lsls	r2, r2, #25
 800fbda:	d508      	bpl.n	800fbee <HAL_TIM_IRQHandler+0xf4>
 800fbdc:	68da      	ldr	r2, [r3, #12]
 800fbde:	0650      	lsls	r0, r2, #25
 800fbe0:	d505      	bpl.n	800fbee <HAL_TIM_IRQHandler+0xf4>
 800fbe2:	f06f 0240 	mvn.w	r2, #64	; 0x40
 800fbe6:	611a      	str	r2, [r3, #16]
 800fbe8:	4620      	mov	r0, r4
 800fbea:	f7ff ff85 	bl	800faf8 <HAL_TIM_TriggerCallback>
 800fbee:	6823      	ldr	r3, [r4, #0]
 800fbf0:	691a      	ldr	r2, [r3, #16]
 800fbf2:	0691      	lsls	r1, r2, #26
 800fbf4:	d522      	bpl.n	800fc3c <HAL_TIM_IRQHandler+0x142>
 800fbf6:	68da      	ldr	r2, [r3, #12]
 800fbf8:	0692      	lsls	r2, r2, #26
 800fbfa:	d51f      	bpl.n	800fc3c <HAL_TIM_IRQHandler+0x142>
 800fbfc:	f06f 0220 	mvn.w	r2, #32
 800fc00:	4620      	mov	r0, r4
 800fc02:	611a      	str	r2, [r3, #16]
 800fc04:	e8bd 4010 	ldmia.w	sp!, {r4, lr}
 800fc08:	f000 bab4 	b.w	8010174 <HAL_TIMEx_CommutCallback>
 800fc0c:	f7ff ff71 	bl	800faf2 <HAL_TIM_OC_DelayElapsedCallback>
 800fc10:	4620      	mov	r0, r4
 800fc12:	f7ff ff70 	bl	800faf6 <HAL_TIM_PWM_PulseFinishedCallback>
 800fc16:	e783      	b.n	800fb20 <HAL_TIM_IRQHandler+0x26>
 800fc18:	f7ff ff6b 	bl	800faf2 <HAL_TIM_OC_DelayElapsedCallback>
 800fc1c:	4620      	mov	r0, r4
 800fc1e:	f7ff ff6a 	bl	800faf6 <HAL_TIM_PWM_PulseFinishedCallback>
 800fc22:	e792      	b.n	800fb4a <HAL_TIM_IRQHandler+0x50>
 800fc24:	f7ff ff65 	bl	800faf2 <HAL_TIM_OC_DelayElapsedCallback>
 800fc28:	4620      	mov	r0, r4
 800fc2a:	f7ff ff64 	bl	800faf6 <HAL_TIM_PWM_PulseFinishedCallback>
 800fc2e:	e7a0      	b.n	800fb72 <HAL_TIM_IRQHandler+0x78>
 800fc30:	f7ff ff5f 	bl	800faf2 <HAL_TIM_OC_DelayElapsedCallback>
 800fc34:	4620      	mov	r0, r4
 800fc36:	f7ff ff5e 	bl	800faf6 <HAL_TIM_PWM_PulseFinishedCallback>
 800fc3a:	e7af      	b.n	800fb9c <HAL_TIM_IRQHandler+0xa2>
 800fc3c:	bd10      	pop	{r4, pc}
	...

0800fc40 <TIM_Base_SetConfig>:
 800fc40:	4a24      	ldr	r2, [pc, #144]	; (800fcd4 <TIM_Base_SetConfig+0x94>)
 800fc42:	6803      	ldr	r3, [r0, #0]
 800fc44:	4290      	cmp	r0, r2
 800fc46:	d00e      	beq.n	800fc66 <TIM_Base_SetConfig+0x26>
 800fc48:	f1b0 4f80 	cmp.w	r0, #1073741824	; 0x40000000
 800fc4c:	d00b      	beq.n	800fc66 <TIM_Base_SetConfig+0x26>
 800fc4e:	f5a2 427c 	sub.w	r2, r2, #64512	; 0xfc00
 800fc52:	4290      	cmp	r0, r2
 800fc54:	d007      	beq.n	800fc66 <TIM_Base_SetConfig+0x26>
 800fc56:	f502 6280 	add.w	r2, r2, #1024	; 0x400
 800fc5a:	4290      	cmp	r0, r2
 800fc5c:	d003      	beq.n	800fc66 <TIM_Base_SetConfig+0x26>
 800fc5e:	f502 6280 	add.w	r2, r2, #1024	; 0x400
 800fc62:	4290      	cmp	r0, r2
 800fc64:	d115      	bne.n	800fc92 <TIM_Base_SetConfig+0x52>
 800fc66:	684a      	ldr	r2, [r1, #4]
 800fc68:	f023 0370 	bic.w	r3, r3, #112	; 0x70
 800fc6c:	4313      	orrs	r3, r2
 800fc6e:	4a19      	ldr	r2, [pc, #100]	; (800fcd4 <TIM_Base_SetConfig+0x94>)
 800fc70:	4290      	cmp	r0, r2
 800fc72:	d019      	beq.n	800fca8 <TIM_Base_SetConfig+0x68>
 800fc74:	f1b0 4f80 	cmp.w	r0, #1073741824	; 0x40000000
 800fc78:	d016      	beq.n	800fca8 <TIM_Base_SetConfig+0x68>
 800fc7a:	f5a2 427c 	sub.w	r2, r2, #64512	; 0xfc00
 800fc7e:	4290      	cmp	r0, r2
 800fc80:	d012      	beq.n	800fca8 <TIM_Base_SetConfig+0x68>
 800fc82:	f502 6280 	add.w	r2, r2, #1024	; 0x400
 800fc86:	4290      	cmp	r0, r2
 800fc88:	d00e      	beq.n	800fca8 <TIM_Base_SetConfig+0x68>
 800fc8a:	f502 6280 	add.w	r2, r2, #1024	; 0x400
 800fc8e:	4290      	cmp	r0, r2
 800fc90:	d00a      	beq.n	800fca8 <TIM_Base_SetConfig+0x68>
 800fc92:	4a11      	ldr	r2, [pc, #68]	; (800fcd8 <TIM_Base_SetConfig+0x98>)
 800fc94:	4290      	cmp	r0, r2
 800fc96:	d007      	beq.n	800fca8 <TIM_Base_SetConfig+0x68>
 800fc98:	f502 6280 	add.w	r2, r2, #1024	; 0x400
 800fc9c:	4290      	cmp	r0, r2
 800fc9e:	d003      	beq.n	800fca8 <TIM_Base_SetConfig+0x68>
 800fca0:	f502 6280 	add.w	r2, r2, #1024	; 0x400
 800fca4:	4290      	cmp	r0, r2
 800fca6:	d103      	bne.n	800fcb0 <TIM_Base_SetConfig+0x70>
 800fca8:	68ca      	ldr	r2, [r1, #12]
 800fcaa:	f423 7340 	bic.w	r3, r3, #768	; 0x300
 800fcae:	4313      	orrs	r3, r2
 800fcb0:	694a      	ldr	r2, [r1, #20]
 800fcb2:	f023 0380 	bic.w	r3, r3, #128	; 0x80
 800fcb6:	4313      	orrs	r3, r2
 800fcb8:	6003      	str	r3, [r0, #0]
 800fcba:	688b      	ldr	r3, [r1, #8]
 800fcbc:	62c3      	str	r3, [r0, #44]	; 0x2c
 800fcbe:	680b      	ldr	r3, [r1, #0]
 800fcc0:	6283      	str	r3, [r0, #40]	; 0x28
 800fcc2:	4b04      	ldr	r3, [pc, #16]	; (800fcd4 <TIM_Base_SetConfig+0x94>)
 800fcc4:	4298      	cmp	r0, r3
 800fcc6:	bf04      	itt	eq
 800fcc8:	690b      	ldreq	r3, [r1, #16]
 800fcca:	6303      	streq	r3, [r0, #48]	; 0x30
 800fccc:	2301      	movs	r3, #1
 800fcce:	6143      	str	r3, [r0, #20]
 800fcd0:	4770      	bx	lr
 800fcd2:	bf00      	nop
 800fcd4:	40010000 	.word	0x40010000
 800fcd8:	40014000 	.word	0x40014000

0800fcdc <HAL_TIM_Base_Init>:
 800fcdc:	b510      	push	{r4, lr}
 800fcde:	4604      	mov	r4, r0
 800fce0:	b330      	cbz	r0, 800fd30 <HAL_TIM_Base_Init+0x54>
 800fce2:	f890 303d 	ldrb.w	r3, [r0, #61]	; 0x3d
 800fce6:	f003 02ff 	and.w	r2, r3, #255	; 0xff
 800fcea:	b91b      	cbnz	r3, 800fcf4 <HAL_TIM_Base_Init+0x18>
 800fcec:	f880 203c 	strb.w	r2, [r0, #60]	; 0x3c
 800fcf0:	f7fc fada 	bl	800c2a8 <HAL_TIM_Base_MspInit>
 800fcf4:	2302      	movs	r3, #2
 800fcf6:	6820      	ldr	r0, [r4, #0]
 800fcf8:	f884 303d 	strb.w	r3, [r4, #61]	; 0x3d
 800fcfc:	1d21      	adds	r1, r4, #4
 800fcfe:	f7ff ff9f 	bl	800fc40 <TIM_Base_SetConfig>
 800fd02:	2301      	movs	r3, #1
 800fd04:	f884 3046 	strb.w	r3, [r4, #70]	; 0x46
 800fd08:	2000      	movs	r0, #0
 800fd0a:	f884 303e 	strb.w	r3, [r4, #62]	; 0x3e
 800fd0e:	f884 303f 	strb.w	r3, [r4, #63]	; 0x3f
 800fd12:	f884 3040 	strb.w	r3, [r4, #64]	; 0x40
 800fd16:	f884 3041 	strb.w	r3, [r4, #65]	; 0x41
 800fd1a:	f884 3042 	strb.w	r3, [r4, #66]	; 0x42
 800fd1e:	f884 3043 	strb.w	r3, [r4, #67]	; 0x43
 800fd22:	f884 3044 	strb.w	r3, [r4, #68]	; 0x44
 800fd26:	f884 3045 	strb.w	r3, [r4, #69]	; 0x45
 800fd2a:	f884 303d 	strb.w	r3, [r4, #61]	; 0x3d
 800fd2e:	bd10      	pop	{r4, pc}
 800fd30:	2001      	movs	r0, #1
 800fd32:	e7fc      	b.n	800fd2e <HAL_TIM_Base_Init+0x52>

0800fd34 <HAL_TIM_PWM_Init>:
 800fd34:	b510      	push	{r4, lr}
 800fd36:	4604      	mov	r4, r0
 800fd38:	b330      	cbz	r0, 800fd88 <HAL_TIM_PWM_Init+0x54>
 800fd3a:	f890 303d 	ldrb.w	r3, [r0, #61]	; 0x3d
 800fd3e:	f003 02ff 	and.w	r2, r3, #255	; 0xff
 800fd42:	b91b      	cbnz	r3, 800fd4c <HAL_TIM_PWM_Init+0x18>
 800fd44:	f880 203c 	strb.w	r2, [r0, #60]	; 0x3c
 800fd48:	f7ff fed2 	bl	800faf0 <HAL_TIM_PWM_MspInit>
 800fd4c:	2302      	movs	r3, #2
 800fd4e:	6820      	ldr	r0, [r4, #0]
 800fd50:	f884 303d 	strb.w	r3, [r4, #61]	; 0x3d
 800fd54:	1d21      	adds	r1, r4, #4
 800fd56:	f7ff ff73 	bl	800fc40 <TIM_Base_SetConfig>
 800fd5a:	2301      	movs	r3, #1
 800fd5c:	f884 3046 	strb.w	r3, [r4, #70]	; 0x46
 800fd60:	2000      	movs	r0, #0
 800fd62:	f884 303e 	strb.w	r3, [r4, #62]	; 0x3e
 800fd66:	f884 303f 	strb.w	r3, [r4, #63]	; 0x3f
 800fd6a:	f884 3040 	strb.w	r3, [r4, #64]	; 0x40
 800fd6e:	f884 3041 	strb.w	r3, [r4, #65]	; 0x41
 800fd72:	f884 3042 	strb.w	r3, [r4, #66]	; 0x42
 800fd76:	f884 3043 	strb.w	r3, [r4, #67]	; 0x43
 800fd7a:	f884 3044 	strb.w	r3, [r4, #68]	; 0x44
 800fd7e:	f884 3045 	strb.w	r3, [r4, #69]	; 0x45
 800fd82:	f884 303d 	strb.w	r3, [r4, #61]	; 0x3d
 800fd86:	bd10      	pop	{r4, pc}
 800fd88:	2001      	movs	r0, #1
 800fd8a:	e7fc      	b.n	800fd86 <HAL_TIM_PWM_Init+0x52>

0800fd8c <TIM_OC2_SetConfig>:
 800fd8c:	6a03      	ldr	r3, [r0, #32]
 800fd8e:	f023 0310 	bic.w	r3, r3, #16
 800fd92:	6203      	str	r3, [r0, #32]
 800fd94:	6a03      	ldr	r3, [r0, #32]
 800fd96:	b570      	push	{r4, r5, r6, lr}
 800fd98:	6844      	ldr	r4, [r0, #4]
 800fd9a:	6982      	ldr	r2, [r0, #24]
 800fd9c:	680d      	ldr	r5, [r1, #0]
 800fd9e:	f422 42e6 	bic.w	r2, r2, #29440	; 0x7300
 800fda2:	ea42 2205 	orr.w	r2, r2, r5, lsl #8
 800fda6:	688d      	ldr	r5, [r1, #8]
 800fda8:	f023 0320 	bic.w	r3, r3, #32
 800fdac:	ea43 1305 	orr.w	r3, r3, r5, lsl #4
 800fdb0:	4d0b      	ldr	r5, [pc, #44]	; (800fde0 <TIM_OC2_SetConfig+0x54>)
 800fdb2:	42a8      	cmp	r0, r5
 800fdb4:	d10d      	bne.n	800fdd2 <TIM_OC2_SetConfig+0x46>
 800fdb6:	68cd      	ldr	r5, [r1, #12]
 800fdb8:	f023 0380 	bic.w	r3, r3, #128	; 0x80
 800fdbc:	ea43 1305 	orr.w	r3, r3, r5, lsl #4
 800fdc0:	e9d1 5605 	ldrd	r5, r6, [r1, #20]
 800fdc4:	f424 6440 	bic.w	r4, r4, #3072	; 0xc00
 800fdc8:	4335      	orrs	r5, r6
 800fdca:	f023 0340 	bic.w	r3, r3, #64	; 0x40
 800fdce:	ea44 0485 	orr.w	r4, r4, r5, lsl #2
 800fdd2:	6044      	str	r4, [r0, #4]
 800fdd4:	6182      	str	r2, [r0, #24]
 800fdd6:	684a      	ldr	r2, [r1, #4]
 800fdd8:	6382      	str	r2, [r0, #56]	; 0x38
 800fdda:	6203      	str	r3, [r0, #32]
 800fddc:	bd70      	pop	{r4, r5, r6, pc}
 800fdde:	bf00      	nop
 800fde0:	40010000 	.word	0x40010000

0800fde4 <HAL_TIM_PWM_ConfigChannel>:
 800fde4:	b570      	push	{r4, r5, r6, lr}
 800fde6:	f890 303c 	ldrb.w	r3, [r0, #60]	; 0x3c
 800fdea:	2b01      	cmp	r3, #1
 800fdec:	4605      	mov	r5, r0
 800fdee:	d053      	beq.n	800fe98 <HAL_TIM_PWM_ConfigChannel+0xb4>
 800fdf0:	2001      	movs	r0, #1
 800fdf2:	2a08      	cmp	r2, #8
 800fdf4:	f885 003c 	strb.w	r0, [r5, #60]	; 0x3c
 800fdf8:	d03d      	beq.n	800fe76 <HAL_TIM_PWM_ConfigChannel+0x92>
 800fdfa:	d806      	bhi.n	800fe0a <HAL_TIM_PWM_ConfigChannel+0x26>
 800fdfc:	b1c2      	cbz	r2, 800fe30 <HAL_TIM_PWM_ConfigChannel+0x4c>
 800fdfe:	2a04      	cmp	r2, #4
 800fe00:	d028      	beq.n	800fe54 <HAL_TIM_PWM_ConfigChannel+0x70>
 800fe02:	2300      	movs	r3, #0
 800fe04:	f885 303c 	strb.w	r3, [r5, #60]	; 0x3c
 800fe08:	bd70      	pop	{r4, r5, r6, pc}
 800fe0a:	2a0c      	cmp	r2, #12
 800fe0c:	d1f9      	bne.n	800fe02 <HAL_TIM_PWM_ConfigChannel+0x1e>
 800fe0e:	6828      	ldr	r0, [r5, #0]
 800fe10:	f7ff fe1a 	bl	800fa48 <TIM_OC4_SetConfig>
 800fe14:	682b      	ldr	r3, [r5, #0]
 800fe16:	6909      	ldr	r1, [r1, #16]
 800fe18:	69da      	ldr	r2, [r3, #28]
 800fe1a:	f442 6200 	orr.w	r2, r2, #2048	; 0x800
 800fe1e:	61da      	str	r2, [r3, #28]
 800fe20:	69da      	ldr	r2, [r3, #28]
 800fe22:	f422 6280 	bic.w	r2, r2, #1024	; 0x400
 800fe26:	61da      	str	r2, [r3, #28]
 800fe28:	69da      	ldr	r2, [r3, #28]
 800fe2a:	ea42 2201 	orr.w	r2, r2, r1, lsl #8
 800fe2e:	e031      	b.n	800fe94 <HAL_TIM_PWM_ConfigChannel+0xb0>
 800fe30:	6828      	ldr	r0, [r5, #0]
 800fe32:	f7ff fdb7 	bl	800f9a4 <TIM_OC1_SetConfig>
 800fe36:	682b      	ldr	r3, [r5, #0]
 800fe38:	6909      	ldr	r1, [r1, #16]
 800fe3a:	699a      	ldr	r2, [r3, #24]
 800fe3c:	f042 0208 	orr.w	r2, r2, #8
 800fe40:	619a      	str	r2, [r3, #24]
 800fe42:	699a      	ldr	r2, [r3, #24]
 800fe44:	f022 0204 	bic.w	r2, r2, #4
 800fe48:	619a      	str	r2, [r3, #24]
 800fe4a:	699a      	ldr	r2, [r3, #24]
 800fe4c:	430a      	orrs	r2, r1
 800fe4e:	619a      	str	r2, [r3, #24]
 800fe50:	2000      	movs	r0, #0
 800fe52:	e7d6      	b.n	800fe02 <HAL_TIM_PWM_ConfigChannel+0x1e>
 800fe54:	6828      	ldr	r0, [r5, #0]
 800fe56:	f7ff ff99 	bl	800fd8c <TIM_OC2_SetConfig>
 800fe5a:	682b      	ldr	r3, [r5, #0]
 800fe5c:	6909      	ldr	r1, [r1, #16]
 800fe5e:	699a      	ldr	r2, [r3, #24]
 800fe60:	f442 6200 	orr.w	r2, r2, #2048	; 0x800
 800fe64:	619a      	str	r2, [r3, #24]
 800fe66:	699a      	ldr	r2, [r3, #24]
 800fe68:	f422 6280 	bic.w	r2, r2, #1024	; 0x400
 800fe6c:	619a      	str	r2, [r3, #24]
 800fe6e:	699a      	ldr	r2, [r3, #24]
 800fe70:	ea42 2201 	orr.w	r2, r2, r1, lsl #8
 800fe74:	e7eb      	b.n	800fe4e <HAL_TIM_PWM_ConfigChannel+0x6a>
 800fe76:	6828      	ldr	r0, [r5, #0]
 800fe78:	f7ff fdbc 	bl	800f9f4 <TIM_OC3_SetConfig>
 800fe7c:	682b      	ldr	r3, [r5, #0]
 800fe7e:	6909      	ldr	r1, [r1, #16]
 800fe80:	69da      	ldr	r2, [r3, #28]
 800fe82:	f042 0208 	orr.w	r2, r2, #8
 800fe86:	61da      	str	r2, [r3, #28]
 800fe88:	69da      	ldr	r2, [r3, #28]
 800fe8a:	f022 0204 	bic.w	r2, r2, #4
 800fe8e:	61da      	str	r2, [r3, #28]
 800fe90:	69da      	ldr	r2, [r3, #28]
 800fe92:	430a      	orrs	r2, r1
 800fe94:	61da      	str	r2, [r3, #28]
 800fe96:	e7db      	b.n	800fe50 <HAL_TIM_PWM_ConfigChannel+0x6c>
 800fe98:	2002      	movs	r0, #2
 800fe9a:	e7b5      	b.n	800fe08 <HAL_TIM_PWM_ConfigChannel+0x24>

0800fe9c <TIM_ETR_SetConfig>:
 800fe9c:	b510      	push	{r4, lr}
 800fe9e:	6884      	ldr	r4, [r0, #8]
 800fea0:	4311      	orrs	r1, r2
 800fea2:	f424 447f 	bic.w	r4, r4, #65280	; 0xff00
 800fea6:	ea41 2303 	orr.w	r3, r1, r3, lsl #8
 800feaa:	4323      	orrs	r3, r4
 800feac:	6083      	str	r3, [r0, #8]
 800feae:	bd10      	pop	{r4, pc}

0800feb0 <HAL_TIM_ConfigClockSource>:
 800feb0:	b570      	push	{r4, r5, r6, lr}
 800feb2:	f890 303c 	ldrb.w	r3, [r0, #60]	; 0x3c
 800feb6:	2b01      	cmp	r3, #1
 800feb8:	4604      	mov	r4, r0
 800feba:	f04f 0302 	mov.w	r3, #2
 800febe:	f000 8091 	beq.w	800ffe4 <HAL_TIM_ConfigClockSource+0x134>
 800fec2:	2201      	movs	r2, #1
 800fec4:	f880 303d 	strb.w	r3, [r0, #61]	; 0x3d
 800fec8:	f880 203c 	strb.w	r2, [r0, #60]	; 0x3c
 800fecc:	6800      	ldr	r0, [r0, #0]
 800fece:	6883      	ldr	r3, [r0, #8]
 800fed0:	f423 437f 	bic.w	r3, r3, #65280	; 0xff00
 800fed4:	f023 0377 	bic.w	r3, r3, #119	; 0x77
 800fed8:	6083      	str	r3, [r0, #8]
 800feda:	680b      	ldr	r3, [r1, #0]
 800fedc:	2b60      	cmp	r3, #96	; 0x60
 800fede:	d052      	beq.n	800ff86 <HAL_TIM_ConfigClockSource+0xd6>
 800fee0:	d833      	bhi.n	800ff4a <HAL_TIM_ConfigClockSource+0x9a>
 800fee2:	2b40      	cmp	r3, #64	; 0x40
 800fee4:	d067      	beq.n	800ffb6 <HAL_TIM_ConfigClockSource+0x106>
 800fee6:	d816      	bhi.n	800ff16 <HAL_TIM_ConfigClockSource+0x66>
 800fee8:	2b20      	cmp	r3, #32
 800feea:	d00d      	beq.n	800ff08 <HAL_TIM_ConfigClockSource+0x58>
 800feec:	d80a      	bhi.n	800ff04 <HAL_TIM_ConfigClockSource+0x54>
 800feee:	f033 0110 	bics.w	r1, r3, #16
 800fef2:	d009      	beq.n	800ff08 <HAL_TIM_ConfigClockSource+0x58>
 800fef4:	2301      	movs	r3, #1
 800fef6:	f884 303d 	strb.w	r3, [r4, #61]	; 0x3d
 800fefa:	2300      	movs	r3, #0
 800fefc:	f884 303c 	strb.w	r3, [r4, #60]	; 0x3c
 800ff00:	4610      	mov	r0, r2
 800ff02:	bd70      	pop	{r4, r5, r6, pc}
 800ff04:	2b30      	cmp	r3, #48	; 0x30
 800ff06:	d1f5      	bne.n	800fef4 <HAL_TIM_ConfigClockSource+0x44>
 800ff08:	6882      	ldr	r2, [r0, #8]
 800ff0a:	f022 0270 	bic.w	r2, r2, #112	; 0x70
 800ff0e:	4313      	orrs	r3, r2
 800ff10:	f043 0307 	orr.w	r3, r3, #7
 800ff14:	e017      	b.n	800ff46 <HAL_TIM_ConfigClockSource+0x96>
 800ff16:	2b50      	cmp	r3, #80	; 0x50
 800ff18:	d1ec      	bne.n	800fef4 <HAL_TIM_ConfigClockSource+0x44>
 800ff1a:	684a      	ldr	r2, [r1, #4]
 800ff1c:	68ce      	ldr	r6, [r1, #12]
 800ff1e:	6a01      	ldr	r1, [r0, #32]
 800ff20:	6a05      	ldr	r5, [r0, #32]
 800ff22:	f025 0501 	bic.w	r5, r5, #1
 800ff26:	6205      	str	r5, [r0, #32]
 800ff28:	6983      	ldr	r3, [r0, #24]
 800ff2a:	f021 010a 	bic.w	r1, r1, #10
 800ff2e:	f023 03f0 	bic.w	r3, r3, #240	; 0xf0
 800ff32:	ea43 1306 	orr.w	r3, r3, r6, lsl #4
 800ff36:	430a      	orrs	r2, r1
 800ff38:	6183      	str	r3, [r0, #24]
 800ff3a:	6202      	str	r2, [r0, #32]
 800ff3c:	6883      	ldr	r3, [r0, #8]
 800ff3e:	f023 0370 	bic.w	r3, r3, #112	; 0x70
 800ff42:	f043 0357 	orr.w	r3, r3, #87	; 0x57
 800ff46:	6083      	str	r3, [r0, #8]
 800ff48:	e011      	b.n	800ff6e <HAL_TIM_ConfigClockSource+0xbe>
 800ff4a:	f5b3 5f80 	cmp.w	r3, #4096	; 0x1000
 800ff4e:	d00e      	beq.n	800ff6e <HAL_TIM_ConfigClockSource+0xbe>
 800ff50:	f5b3 5f00 	cmp.w	r3, #8192	; 0x2000
 800ff54:	d00d      	beq.n	800ff72 <HAL_TIM_ConfigClockSource+0xc2>
 800ff56:	2b70      	cmp	r3, #112	; 0x70
 800ff58:	d1cc      	bne.n	800fef4 <HAL_TIM_ConfigClockSource+0x44>
 800ff5a:	68cb      	ldr	r3, [r1, #12]
 800ff5c:	e9d1 2101 	ldrd	r2, r1, [r1, #4]
 800ff60:	f7ff ff9c 	bl	800fe9c <TIM_ETR_SetConfig>
 800ff64:	6822      	ldr	r2, [r4, #0]
 800ff66:	6893      	ldr	r3, [r2, #8]
 800ff68:	f043 0377 	orr.w	r3, r3, #119	; 0x77
 800ff6c:	6093      	str	r3, [r2, #8]
 800ff6e:	2200      	movs	r2, #0
 800ff70:	e7c0      	b.n	800fef4 <HAL_TIM_ConfigClockSource+0x44>
 800ff72:	68cb      	ldr	r3, [r1, #12]
 800ff74:	e9d1 2101 	ldrd	r2, r1, [r1, #4]
 800ff78:	f7ff ff90 	bl	800fe9c <TIM_ETR_SetConfig>
 800ff7c:	6822      	ldr	r2, [r4, #0]
 800ff7e:	6893      	ldr	r3, [r2, #8]
 800ff80:	f443 4380 	orr.w	r3, r3, #16384	; 0x4000
 800ff84:	e7f2      	b.n	800ff6c <HAL_TIM_ConfigClockSource+0xbc>
 800ff86:	684d      	ldr	r5, [r1, #4]
 800ff88:	68ce      	ldr	r6, [r1, #12]
 800ff8a:	6a01      	ldr	r1, [r0, #32]
 800ff8c:	f021 0110 	bic.w	r1, r1, #16
 800ff90:	6201      	str	r1, [r0, #32]
 800ff92:	6982      	ldr	r2, [r0, #24]
 800ff94:	6a03      	ldr	r3, [r0, #32]
 800ff96:	f422 4270 	bic.w	r2, r2, #61440	; 0xf000
 800ff9a:	f023 03a0 	bic.w	r3, r3, #160	; 0xa0
 800ff9e:	ea43 1305 	orr.w	r3, r3, r5, lsl #4
 800ffa2:	ea42 3206 	orr.w	r2, r2, r6, lsl #12
 800ffa6:	6182      	str	r2, [r0, #24]
 800ffa8:	6203      	str	r3, [r0, #32]
 800ffaa:	6883      	ldr	r3, [r0, #8]
 800ffac:	f023 0370 	bic.w	r3, r3, #112	; 0x70
 800ffb0:	f043 0367 	orr.w	r3, r3, #103	; 0x67
 800ffb4:	e7c7      	b.n	800ff46 <HAL_TIM_ConfigClockSource+0x96>
 800ffb6:	684a      	ldr	r2, [r1, #4]
 800ffb8:	68ce      	ldr	r6, [r1, #12]
 800ffba:	6a01      	ldr	r1, [r0, #32]
 800ffbc:	6a05      	ldr	r5, [r0, #32]
 800ffbe:	f025 0501 	bic.w	r5, r5, #1
 800ffc2:	6205      	str	r5, [r0, #32]
 800ffc4:	6983      	ldr	r3, [r0, #24]
 800ffc6:	f021 010a 	bic.w	r1, r1, #10
 800ffca:	f023 03f0 	bic.w	r3, r3, #240	; 0xf0
 800ffce:	ea43 1306 	orr.w	r3, r3, r6, lsl #4
 800ffd2:	430a      	orrs	r2, r1
 800ffd4:	6183      	str	r3, [r0, #24]
 800ffd6:	6202      	str	r2, [r0, #32]
 800ffd8:	6883      	ldr	r3, [r0, #8]
 800ffda:	f023 0370 	bic.w	r3, r3, #112	; 0x70
 800ffde:	f043 0347 	orr.w	r3, r3, #71	; 0x47
 800ffe2:	e7b0      	b.n	800ff46 <HAL_TIM_ConfigClockSource+0x96>
 800ffe4:	461a      	mov	r2, r3
 800ffe6:	e78b      	b.n	800ff00 <HAL_TIM_ConfigClockSource+0x50>

0800ffe8 <TIM_CCxChannelCmd>:
 800ffe8:	6a03      	ldr	r3, [r0, #32]
 800ffea:	f001 011f 	and.w	r1, r1, #31
 800ffee:	b510      	push	{r4, lr}
 800fff0:	2401      	movs	r4, #1
 800fff2:	408c      	lsls	r4, r1
 800fff4:	ea23 0304 	bic.w	r3, r3, r4
 800fff8:	6203      	str	r3, [r0, #32]
 800fffa:	6a03      	ldr	r3, [r0, #32]
 800fffc:	408a      	lsls	r2, r1
 800fffe:	431a      	orrs	r2, r3
 8010000:	6202      	str	r2, [r0, #32]
 8010002:	bd10      	pop	{r4, pc}

08010004 <HAL_TIM_OC_Start>:
 8010004:	b510      	push	{r4, lr}
 8010006:	4604      	mov	r4, r0
 8010008:	b929      	cbnz	r1, 8010016 <HAL_TIM_OC_Start+0x12>
 801000a:	f890 303e 	ldrb.w	r3, [r0, #62]	; 0x3e
 801000e:	2b01      	cmp	r3, #1
 8010010:	d021      	beq.n	8010056 <HAL_TIM_OC_Start+0x52>
 8010012:	2001      	movs	r0, #1
 8010014:	bd10      	pop	{r4, pc}
 8010016:	2904      	cmp	r1, #4
 8010018:	d107      	bne.n	801002a <HAL_TIM_OC_Start+0x26>
 801001a:	f890 303f 	ldrb.w	r3, [r0, #63]	; 0x3f
 801001e:	2b01      	cmp	r3, #1
 8010020:	d1f7      	bne.n	8010012 <HAL_TIM_OC_Start+0xe>
 8010022:	2302      	movs	r3, #2
 8010024:	f884 303f 	strb.w	r3, [r4, #63]	; 0x3f
 8010028:	e018      	b.n	801005c <HAL_TIM_OC_Start+0x58>
 801002a:	2908      	cmp	r1, #8
 801002c:	d107      	bne.n	801003e <HAL_TIM_OC_Start+0x3a>
 801002e:	f890 3040 	ldrb.w	r3, [r0, #64]	; 0x40
 8010032:	2b01      	cmp	r3, #1
 8010034:	d1ed      	bne.n	8010012 <HAL_TIM_OC_Start+0xe>
 8010036:	2302      	movs	r3, #2
 8010038:	f884 3040 	strb.w	r3, [r4, #64]	; 0x40
 801003c:	e00e      	b.n	801005c <HAL_TIM_OC_Start+0x58>
 801003e:	f890 3041 	ldrb.w	r3, [r0, #65]	; 0x41
 8010042:	2b01      	cmp	r3, #1
 8010044:	d1e5      	bne.n	8010012 <HAL_TIM_OC_Start+0xe>
 8010046:	2904      	cmp	r1, #4
 8010048:	d0eb      	beq.n	8010022 <HAL_TIM_OC_Start+0x1e>
 801004a:	2908      	cmp	r1, #8
 801004c:	d0f3      	beq.n	8010036 <HAL_TIM_OC_Start+0x32>
 801004e:	2302      	movs	r3, #2
 8010050:	f880 3041 	strb.w	r3, [r0, #65]	; 0x41
 8010054:	e002      	b.n	801005c <HAL_TIM_OC_Start+0x58>
 8010056:	2302      	movs	r3, #2
 8010058:	f880 303e 	strb.w	r3, [r0, #62]	; 0x3e
 801005c:	2201      	movs	r2, #1
 801005e:	6820      	ldr	r0, [r4, #0]
 8010060:	f7ff ffc2 	bl	800ffe8 <TIM_CCxChannelCmd>
 8010064:	6823      	ldr	r3, [r4, #0]
 8010066:	4a12      	ldr	r2, [pc, #72]	; (80100b0 <HAL_TIM_OC_Start+0xac>)
 8010068:	4293      	cmp	r3, r2
 801006a:	d10a      	bne.n	8010082 <HAL_TIM_OC_Start+0x7e>
 801006c:	6c5a      	ldr	r2, [r3, #68]	; 0x44
 801006e:	f442 4200 	orr.w	r2, r2, #32768	; 0x8000
 8010072:	645a      	str	r2, [r3, #68]	; 0x44
 8010074:	689a      	ldr	r2, [r3, #8]
 8010076:	f002 0207 	and.w	r2, r2, #7
 801007a:	2a06      	cmp	r2, #6
 801007c:	d113      	bne.n	80100a6 <HAL_TIM_OC_Start+0xa2>
 801007e:	2000      	movs	r0, #0
 8010080:	e7c8      	b.n	8010014 <HAL_TIM_OC_Start+0x10>
 8010082:	f1b3 4f80 	cmp.w	r3, #1073741824	; 0x40000000
 8010086:	d0f5      	beq.n	8010074 <HAL_TIM_OC_Start+0x70>
 8010088:	4a0a      	ldr	r2, [pc, #40]	; (80100b4 <HAL_TIM_OC_Start+0xb0>)
 801008a:	4293      	cmp	r3, r2
 801008c:	d0f2      	beq.n	8010074 <HAL_TIM_OC_Start+0x70>
 801008e:	f502 6280 	add.w	r2, r2, #1024	; 0x400
 8010092:	4293      	cmp	r3, r2
 8010094:	d0ee      	beq.n	8010074 <HAL_TIM_OC_Start+0x70>
 8010096:	f502 6280 	add.w	r2, r2, #1024	; 0x400
 801009a:	4293      	cmp	r3, r2
 801009c:	d0ea      	beq.n	8010074 <HAL_TIM_OC_Start+0x70>
 801009e:	f502 329a 	add.w	r2, r2, #78848	; 0x13400
 80100a2:	4293      	cmp	r3, r2
 80100a4:	d0e6      	beq.n	8010074 <HAL_TIM_OC_Start+0x70>
 80100a6:	681a      	ldr	r2, [r3, #0]
 80100a8:	f042 0201 	orr.w	r2, r2, #1
 80100ac:	601a      	str	r2, [r3, #0]
 80100ae:	e7e6      	b.n	801007e <HAL_TIM_OC_Start+0x7a>
 80100b0:	40010000 	.word	0x40010000
 80100b4:	40000400 	.word	0x40000400

080100b8 <HAL_TIM_PWM_Start>:
 80100b8:	f7ff bfa4 	b.w	8010004 <HAL_TIM_OC_Start>

080100bc <HAL_TIMEx_MasterConfigSynchronization>:
 80100bc:	b530      	push	{r4, r5, lr}
 80100be:	f890 303c 	ldrb.w	r3, [r0, #60]	; 0x3c
 80100c2:	2b01      	cmp	r3, #1
 80100c4:	f04f 0302 	mov.w	r3, #2
 80100c8:	d02a      	beq.n	8010120 <HAL_TIMEx_MasterConfigSynchronization+0x64>
 80100ca:	f880 303d 	strb.w	r3, [r0, #61]	; 0x3d
 80100ce:	6803      	ldr	r3, [r0, #0]
 80100d0:	680d      	ldr	r5, [r1, #0]
 80100d2:	685c      	ldr	r4, [r3, #4]
 80100d4:	689a      	ldr	r2, [r3, #8]
 80100d6:	f024 0470 	bic.w	r4, r4, #112	; 0x70
 80100da:	432c      	orrs	r4, r5
 80100dc:	605c      	str	r4, [r3, #4]
 80100de:	4c11      	ldr	r4, [pc, #68]	; (8010124 <HAL_TIMEx_MasterConfigSynchronization+0x68>)
 80100e0:	42a3      	cmp	r3, r4
 80100e2:	d012      	beq.n	801010a <HAL_TIMEx_MasterConfigSynchronization+0x4e>
 80100e4:	f1b3 4f80 	cmp.w	r3, #1073741824	; 0x40000000
 80100e8:	d00f      	beq.n	801010a <HAL_TIMEx_MasterConfigSynchronization+0x4e>
 80100ea:	f5a4 447c 	sub.w	r4, r4, #64512	; 0xfc00
 80100ee:	42a3      	cmp	r3, r4
 80100f0:	d00b      	beq.n	801010a <HAL_TIMEx_MasterConfigSynchronization+0x4e>
 80100f2:	f504 6480 	add.w	r4, r4, #1024	; 0x400
 80100f6:	42a3      	cmp	r3, r4
 80100f8:	d007      	beq.n	801010a <HAL_TIMEx_MasterConfigSynchronization+0x4e>
 80100fa:	f504 6480 	add.w	r4, r4, #1024	; 0x400
 80100fe:	42a3      	cmp	r3, r4
 8010100:	d003      	beq.n	801010a <HAL_TIMEx_MasterConfigSynchronization+0x4e>
 8010102:	f504 349a 	add.w	r4, r4, #78848	; 0x13400
 8010106:	42a3      	cmp	r3, r4
 8010108:	d104      	bne.n	8010114 <HAL_TIMEx_MasterConfigSynchronization+0x58>
 801010a:	6849      	ldr	r1, [r1, #4]
 801010c:	f022 0280 	bic.w	r2, r2, #128	; 0x80
 8010110:	430a      	orrs	r2, r1
 8010112:	609a      	str	r2, [r3, #8]
 8010114:	2301      	movs	r3, #1
 8010116:	f880 303d 	strb.w	r3, [r0, #61]	; 0x3d
 801011a:	2300      	movs	r3, #0
 801011c:	f880 303c 	strb.w	r3, [r0, #60]	; 0x3c
 8010120:	4618      	mov	r0, r3
 8010122:	bd30      	pop	{r4, r5, pc}
 8010124:	40010000 	.word	0x40010000

08010128 <HAL_TIMEx_ConfigBreakDeadTime>:
 8010128:	f890 303c 	ldrb.w	r3, [r0, #60]	; 0x3c
 801012c:	2b01      	cmp	r3, #1
 801012e:	d01f      	beq.n	8010170 <HAL_TIMEx_ConfigBreakDeadTime+0x48>
 8010130:	68cb      	ldr	r3, [r1, #12]
 8010132:	688a      	ldr	r2, [r1, #8]
 8010134:	f423 7340 	bic.w	r3, r3, #768	; 0x300
 8010138:	4313      	orrs	r3, r2
 801013a:	684a      	ldr	r2, [r1, #4]
 801013c:	f423 6380 	bic.w	r3, r3, #1024	; 0x400
 8010140:	4313      	orrs	r3, r2
 8010142:	680a      	ldr	r2, [r1, #0]
 8010144:	f423 6300 	bic.w	r3, r3, #2048	; 0x800
 8010148:	4313      	orrs	r3, r2
 801014a:	690a      	ldr	r2, [r1, #16]
 801014c:	f423 5380 	bic.w	r3, r3, #4096	; 0x1000
 8010150:	4313      	orrs	r3, r2
 8010152:	694a      	ldr	r2, [r1, #20]
 8010154:	f423 5300 	bic.w	r3, r3, #8192	; 0x2000
 8010158:	4313      	orrs	r3, r2
 801015a:	69ca      	ldr	r2, [r1, #28]
 801015c:	f423 4380 	bic.w	r3, r3, #16384	; 0x4000
 8010160:	4313      	orrs	r3, r2
 8010162:	6802      	ldr	r2, [r0, #0]
 8010164:	6453      	str	r3, [r2, #68]	; 0x44
 8010166:	2300      	movs	r3, #0
 8010168:	f880 303c 	strb.w	r3, [r0, #60]	; 0x3c
 801016c:	4618      	mov	r0, r3
 801016e:	4770      	bx	lr
 8010170:	2002      	movs	r0, #2
 8010172:	4770      	bx	lr

08010174 <HAL_TIMEx_CommutCallback>:
 8010174:	4770      	bx	lr

08010176 <HAL_TIMEx_BreakCallback>:
 8010176:	4770      	bx	lr

08010178 <USB_CoreReset>:
 8010178:	b082      	sub	sp, #8
 801017a:	2300      	movs	r3, #0
 801017c:	4a10      	ldr	r2, [pc, #64]	; (80101c0 <USB_CoreReset+0x48>)
 801017e:	9301      	str	r3, [sp, #4]
 8010180:	9b01      	ldr	r3, [sp, #4]
 8010182:	3301      	adds	r3, #1
 8010184:	9301      	str	r3, [sp, #4]
 8010186:	9b01      	ldr	r3, [sp, #4]
 8010188:	4293      	cmp	r3, r2
 801018a:	d816      	bhi.n	80101ba <USB_CoreReset+0x42>
 801018c:	6903      	ldr	r3, [r0, #16]
 801018e:	2b00      	cmp	r3, #0
 8010190:	daf6      	bge.n	8010180 <USB_CoreReset+0x8>
 8010192:	2300      	movs	r3, #0
 8010194:	9301      	str	r3, [sp, #4]
 8010196:	6903      	ldr	r3, [r0, #16]
 8010198:	4a09      	ldr	r2, [pc, #36]	; (80101c0 <USB_CoreReset+0x48>)
 801019a:	f043 0301 	orr.w	r3, r3, #1
 801019e:	6103      	str	r3, [r0, #16]
 80101a0:	9b01      	ldr	r3, [sp, #4]
 80101a2:	3301      	adds	r3, #1
 80101a4:	9301      	str	r3, [sp, #4]
 80101a6:	9b01      	ldr	r3, [sp, #4]
 80101a8:	4293      	cmp	r3, r2
 80101aa:	d806      	bhi.n	80101ba <USB_CoreReset+0x42>
 80101ac:	6903      	ldr	r3, [r0, #16]
 80101ae:	f013 0301 	ands.w	r3, r3, #1
 80101b2:	d1f5      	bne.n	80101a0 <USB_CoreReset+0x28>
 80101b4:	4618      	mov	r0, r3
 80101b6:	b002      	add	sp, #8
 80101b8:	4770      	bx	lr
 80101ba:	2003      	movs	r0, #3
 80101bc:	e7fb      	b.n	80101b6 <USB_CoreReset+0x3e>
 80101be:	bf00      	nop
 80101c0:	00030d40 	.word	0x00030d40

080101c4 <USB_CoreInit>:
 80101c4:	b084      	sub	sp, #16
 80101c6:	b538      	push	{r3, r4, r5, lr}
 80101c8:	ad05      	add	r5, sp, #20
 80101ca:	e885 000e 	stmia.w	r5, {r1, r2, r3}
 80101ce:	9b0a      	ldr	r3, [sp, #40]	; 0x28
 80101d0:	2b01      	cmp	r3, #1
 80101d2:	4604      	mov	r4, r0
 80101d4:	d125      	bne.n	8010222 <USB_CoreInit+0x5e>
 80101d6:	6b83      	ldr	r3, [r0, #56]	; 0x38
 80101d8:	f423 3380 	bic.w	r3, r3, #65536	; 0x10000
 80101dc:	6383      	str	r3, [r0, #56]	; 0x38
 80101de:	68c3      	ldr	r3, [r0, #12]
 80101e0:	f423 0384 	bic.w	r3, r3, #4325376	; 0x420000
 80101e4:	f023 0340 	bic.w	r3, r3, #64	; 0x40
 80101e8:	60c3      	str	r3, [r0, #12]
 80101ea:	68c3      	ldr	r3, [r0, #12]
 80101ec:	f423 1340 	bic.w	r3, r3, #3145728	; 0x300000
 80101f0:	60c3      	str	r3, [r0, #12]
 80101f2:	9b11      	ldr	r3, [sp, #68]	; 0x44
 80101f4:	2b01      	cmp	r3, #1
 80101f6:	bf02      	ittt	eq
 80101f8:	68c3      	ldreq	r3, [r0, #12]
 80101fa:	f443 1380 	orreq.w	r3, r3, #1048576	; 0x100000
 80101fe:	60c3      	streq	r3, [r0, #12]
 8010200:	f7ff ffba 	bl	8010178 <USB_CoreReset>
 8010204:	9b08      	ldr	r3, [sp, #32]
 8010206:	2b01      	cmp	r3, #1
 8010208:	d107      	bne.n	801021a <USB_CoreInit+0x56>
 801020a:	68a3      	ldr	r3, [r4, #8]
 801020c:	f043 0306 	orr.w	r3, r3, #6
 8010210:	60a3      	str	r3, [r4, #8]
 8010212:	68a3      	ldr	r3, [r4, #8]
 8010214:	f043 0320 	orr.w	r3, r3, #32
 8010218:	60a3      	str	r3, [r4, #8]
 801021a:	e8bd 4038 	ldmia.w	sp!, {r3, r4, r5, lr}
 801021e:	b004      	add	sp, #16
 8010220:	4770      	bx	lr
 8010222:	68c3      	ldr	r3, [r0, #12]
 8010224:	f043 0340 	orr.w	r3, r3, #64	; 0x40
 8010228:	60c3      	str	r3, [r0, #12]
 801022a:	f7ff ffa5 	bl	8010178 <USB_CoreReset>
 801022e:	9b0e      	ldr	r3, [sp, #56]	; 0x38
 8010230:	b923      	cbnz	r3, 801023c <USB_CoreInit+0x78>
 8010232:	6ba3      	ldr	r3, [r4, #56]	; 0x38
 8010234:	f443 3380 	orr.w	r3, r3, #65536	; 0x10000
 8010238:	63a3      	str	r3, [r4, #56]	; 0x38
 801023a:	e7e3      	b.n	8010204 <USB_CoreInit+0x40>
 801023c:	6ba3      	ldr	r3, [r4, #56]	; 0x38
 801023e:	f423 3380 	bic.w	r3, r3, #65536	; 0x10000
 8010242:	e7f9      	b.n	8010238 <USB_CoreInit+0x74>

08010244 <USB_SetTurnaroundTime>:
 8010244:	2a02      	cmp	r2, #2
 8010246:	d14a      	bne.n	80102de <USB_SetTurnaroundTime+0x9a>
 8010248:	4b27      	ldr	r3, [pc, #156]	; (80102e8 <USB_SetTurnaroundTime+0xa4>)
 801024a:	4a28      	ldr	r2, [pc, #160]	; (80102ec <USB_SetTurnaroundTime+0xa8>)
 801024c:	440b      	add	r3, r1
 801024e:	4293      	cmp	r3, r2
 8010250:	d939      	bls.n	80102c6 <USB_SetTurnaroundTime+0x82>
 8010252:	4b27      	ldr	r3, [pc, #156]	; (80102f0 <USB_SetTurnaroundTime+0xac>)
 8010254:	4a27      	ldr	r2, [pc, #156]	; (80102f4 <USB_SetTurnaroundTime+0xb0>)
 8010256:	440b      	add	r3, r1
 8010258:	4293      	cmp	r3, r2
 801025a:	d936      	bls.n	80102ca <USB_SetTurnaroundTime+0x86>
 801025c:	4a26      	ldr	r2, [pc, #152]	; (80102f8 <USB_SetTurnaroundTime+0xb4>)
 801025e:	f5a1 0374 	sub.w	r3, r1, #15990784	; 0xf40000
 8010262:	f5a3 5310 	sub.w	r3, r3, #9216	; 0x2400
 8010266:	4293      	cmp	r3, r2
 8010268:	d931      	bls.n	80102ce <USB_SetTurnaroundTime+0x8a>
 801026a:	4a24      	ldr	r2, [pc, #144]	; (80102fc <USB_SetTurnaroundTime+0xb8>)
 801026c:	f1a1 7383 	sub.w	r3, r1, #17170432	; 0x1060000
 8010270:	f5a3 43e7 	sub.w	r3, r3, #29568	; 0x7380
 8010274:	4293      	cmp	r3, r2
 8010276:	d32c      	bcc.n	80102d2 <USB_SetTurnaroundTime+0x8e>
 8010278:	4b21      	ldr	r3, [pc, #132]	; (8010300 <USB_SetTurnaroundTime+0xbc>)
 801027a:	4a22      	ldr	r2, [pc, #136]	; (8010304 <USB_SetTurnaroundTime+0xc0>)
 801027c:	440b      	add	r3, r1
 801027e:	4293      	cmp	r3, r2
 8010280:	d929      	bls.n	80102d6 <USB_SetTurnaroundTime+0x92>
 8010282:	4b21      	ldr	r3, [pc, #132]	; (8010308 <USB_SetTurnaroundTime+0xc4>)
 8010284:	4a21      	ldr	r2, [pc, #132]	; (801030c <USB_SetTurnaroundTime+0xc8>)
 8010286:	440b      	add	r3, r1
 8010288:	4293      	cmp	r3, r2
 801028a:	d326      	bcc.n	80102da <USB_SetTurnaroundTime+0x96>
 801028c:	4b20      	ldr	r3, [pc, #128]	; (8010310 <USB_SetTurnaroundTime+0xcc>)
 801028e:	4a21      	ldr	r2, [pc, #132]	; (8010314 <USB_SetTurnaroundTime+0xd0>)
 8010290:	440b      	add	r3, r1
 8010292:	4293      	cmp	r3, r2
 8010294:	d323      	bcc.n	80102de <USB_SetTurnaroundTime+0x9a>
 8010296:	4a20      	ldr	r2, [pc, #128]	; (8010318 <USB_SetTurnaroundTime+0xd4>)
 8010298:	f1a1 73b7 	sub.w	r3, r1, #23986176	; 0x16e0000
 801029c:	f5a3 5358 	sub.w	r3, r3, #13824	; 0x3600
 80102a0:	4293      	cmp	r3, r2
 80102a2:	d31e      	bcc.n	80102e2 <USB_SetTurnaroundTime+0x9e>
 80102a4:	4b1d      	ldr	r3, [pc, #116]	; (801031c <USB_SetTurnaroundTime+0xd8>)
 80102a6:	4a1e      	ldr	r2, [pc, #120]	; (8010320 <USB_SetTurnaroundTime+0xdc>)
 80102a8:	440b      	add	r3, r1
 80102aa:	4293      	cmp	r3, r2
 80102ac:	bf34      	ite	cc
 80102ae:	2307      	movcc	r3, #7
 80102b0:	2306      	movcs	r3, #6
 80102b2:	68c2      	ldr	r2, [r0, #12]
 80102b4:	f422 5270 	bic.w	r2, r2, #15360	; 0x3c00
 80102b8:	60c2      	str	r2, [r0, #12]
 80102ba:	68c2      	ldr	r2, [r0, #12]
 80102bc:	ea42 2383 	orr.w	r3, r2, r3, lsl #10
 80102c0:	60c3      	str	r3, [r0, #12]
 80102c2:	2000      	movs	r0, #0
 80102c4:	4770      	bx	lr
 80102c6:	230f      	movs	r3, #15
 80102c8:	e7f3      	b.n	80102b2 <USB_SetTurnaroundTime+0x6e>
 80102ca:	230e      	movs	r3, #14
 80102cc:	e7f1      	b.n	80102b2 <USB_SetTurnaroundTime+0x6e>
 80102ce:	230d      	movs	r3, #13
 80102d0:	e7ef      	b.n	80102b2 <USB_SetTurnaroundTime+0x6e>
 80102d2:	230c      	movs	r3, #12
 80102d4:	e7ed      	b.n	80102b2 <USB_SetTurnaroundTime+0x6e>
 80102d6:	230b      	movs	r3, #11
 80102d8:	e7eb      	b.n	80102b2 <USB_SetTurnaroundTime+0x6e>
 80102da:	230a      	movs	r3, #10
 80102dc:	e7e9      	b.n	80102b2 <USB_SetTurnaroundTime+0x6e>
 80102de:	2309      	movs	r3, #9
 80102e0:	e7e7      	b.n	80102b2 <USB_SetTurnaroundTime+0x6e>
 80102e2:	2308      	movs	r3, #8
 80102e4:	e7e5      	b.n	80102b2 <USB_SetTurnaroundTime+0x6e>
 80102e6:	bf00      	nop
 80102e8:	ff275340 	.word	0xff275340
 80102ec:	000c34ff 	.word	0x000c34ff
 80102f0:	ff1b1e40 	.word	0xff1b1e40
 80102f4:	000f423f 	.word	0x000f423f
 80102f8:	00124f7f 	.word	0x00124f7f
 80102fc:	0013d620 	.word	0x0013d620
 8010300:	fee5b660 	.word	0xfee5b660
 8010304:	0016e35f 	.word	0x0016e35f
 8010308:	feced300 	.word	0xfeced300
 801030c:	001b7740 	.word	0x001b7740
 8010310:	feb35bc0 	.word	0xfeb35bc0
 8010314:	002191c0 	.word	0x002191c0
 8010318:	00387520 	.word	0x00387520
 801031c:	fe5954e0 	.word	0xfe5954e0
 8010320:	00419ce0 	.word	0x00419ce0

08010324 <USB_EnableGlobalInt>:
 8010324:	6883      	ldr	r3, [r0, #8]
 8010326:	f043 0301 	orr.w	r3, r3, #1
 801032a:	6083      	str	r3, [r0, #8]
 801032c:	2000      	movs	r0, #0
 801032e:	4770      	bx	lr

08010330 <USB_DisableGlobalInt>:
 8010330:	6883      	ldr	r3, [r0, #8]
 8010332:	f023 0301 	bic.w	r3, r3, #1
 8010336:	6083      	str	r3, [r0, #8]
 8010338:	2000      	movs	r0, #0
 801033a:	4770      	bx	lr

0801033c <USB_SetCurrentMode>:
 801033c:	b538      	push	{r3, r4, r5, lr}
 801033e:	68c3      	ldr	r3, [r0, #12]
 8010340:	2901      	cmp	r1, #1
 8010342:	f023 43c0 	bic.w	r3, r3, #1610612736	; 0x60000000
 8010346:	4605      	mov	r5, r0
 8010348:	60c3      	str	r3, [r0, #12]
 801034a:	d110      	bne.n	801036e <USB_SetCurrentMode+0x32>
 801034c:	68c3      	ldr	r3, [r0, #12]
 801034e:	f043 5300 	orr.w	r3, r3, #536870912	; 0x20000000
 8010352:	60c3      	str	r3, [r0, #12]
 8010354:	2400      	movs	r4, #0
 8010356:	2001      	movs	r0, #1
 8010358:	f7fc f982 	bl	800c660 <HAL_Delay>
 801035c:	696b      	ldr	r3, [r5, #20]
 801035e:	07d9      	lsls	r1, r3, #31
 8010360:	f104 0401 	add.w	r4, r4, #1
 8010364:	d415      	bmi.n	8010392 <USB_SetCurrentMode+0x56>
 8010366:	2c32      	cmp	r4, #50	; 0x32
 8010368:	d1f5      	bne.n	8010356 <USB_SetCurrentMode+0x1a>
 801036a:	2001      	movs	r0, #1
 801036c:	bd38      	pop	{r3, r4, r5, pc}
 801036e:	2900      	cmp	r1, #0
 8010370:	d1fb      	bne.n	801036a <USB_SetCurrentMode+0x2e>
 8010372:	68c3      	ldr	r3, [r0, #12]
 8010374:	f043 4380 	orr.w	r3, r3, #1073741824	; 0x40000000
 8010378:	60c3      	str	r3, [r0, #12]
 801037a:	460c      	mov	r4, r1
 801037c:	2001      	movs	r0, #1
 801037e:	f7fc f96f 	bl	800c660 <HAL_Delay>
 8010382:	696b      	ldr	r3, [r5, #20]
 8010384:	07da      	lsls	r2, r3, #31
 8010386:	f104 0401 	add.w	r4, r4, #1
 801038a:	d502      	bpl.n	8010392 <USB_SetCurrentMode+0x56>
 801038c:	2c32      	cmp	r4, #50	; 0x32
 801038e:	d1f5      	bne.n	801037c <USB_SetCurrentMode+0x40>
 8010390:	e7eb      	b.n	801036a <USB_SetCurrentMode+0x2e>
 8010392:	f1a4 0332 	sub.w	r3, r4, #50	; 0x32
 8010396:	4258      	negs	r0, r3
 8010398:	4158      	adcs	r0, r3
 801039a:	e7e7      	b.n	801036c <USB_SetCurrentMode+0x30>

0801039c <USB_FlushTxFifo>:
 801039c:	b082      	sub	sp, #8
 801039e:	2300      	movs	r3, #0
 80103a0:	4a10      	ldr	r2, [pc, #64]	; (80103e4 <USB_FlushTxFifo+0x48>)
 80103a2:	9301      	str	r3, [sp, #4]
 80103a4:	9b01      	ldr	r3, [sp, #4]
 80103a6:	3301      	adds	r3, #1
 80103a8:	9301      	str	r3, [sp, #4]
 80103aa:	9b01      	ldr	r3, [sp, #4]
 80103ac:	4293      	cmp	r3, r2
 80103ae:	d816      	bhi.n	80103de <USB_FlushTxFifo+0x42>
 80103b0:	6903      	ldr	r3, [r0, #16]
 80103b2:	2b00      	cmp	r3, #0
 80103b4:	daf6      	bge.n	80103a4 <USB_FlushTxFifo+0x8>
 80103b6:	0189      	lsls	r1, r1, #6
 80103b8:	2300      	movs	r3, #0
 80103ba:	f041 0120 	orr.w	r1, r1, #32
 80103be:	4a09      	ldr	r2, [pc, #36]	; (80103e4 <USB_FlushTxFifo+0x48>)
 80103c0:	9301      	str	r3, [sp, #4]
 80103c2:	6101      	str	r1, [r0, #16]
 80103c4:	9b01      	ldr	r3, [sp, #4]
 80103c6:	3301      	adds	r3, #1
 80103c8:	9301      	str	r3, [sp, #4]
 80103ca:	9b01      	ldr	r3, [sp, #4]
 80103cc:	4293      	cmp	r3, r2
 80103ce:	d806      	bhi.n	80103de <USB_FlushTxFifo+0x42>
 80103d0:	6903      	ldr	r3, [r0, #16]
 80103d2:	f013 0320 	ands.w	r3, r3, #32
 80103d6:	d1f5      	bne.n	80103c4 <USB_FlushTxFifo+0x28>
 80103d8:	4618      	mov	r0, r3
 80103da:	b002      	add	sp, #8
 80103dc:	4770      	bx	lr
 80103de:	2003      	movs	r0, #3
 80103e0:	e7fb      	b.n	80103da <USB_FlushTxFifo+0x3e>
 80103e2:	bf00      	nop
 80103e4:	00030d40 	.word	0x00030d40

080103e8 <USB_FlushRxFifo>:
 80103e8:	b082      	sub	sp, #8
 80103ea:	2300      	movs	r3, #0
 80103ec:	4a0f      	ldr	r2, [pc, #60]	; (801042c <USB_FlushRxFifo+0x44>)
 80103ee:	9301      	str	r3, [sp, #4]
 80103f0:	9b01      	ldr	r3, [sp, #4]
 80103f2:	3301      	adds	r3, #1
 80103f4:	9301      	str	r3, [sp, #4]
 80103f6:	9b01      	ldr	r3, [sp, #4]
 80103f8:	4293      	cmp	r3, r2
 80103fa:	d814      	bhi.n	8010426 <USB_FlushRxFifo+0x3e>
 80103fc:	6903      	ldr	r3, [r0, #16]
 80103fe:	2b00      	cmp	r3, #0
 8010400:	daf6      	bge.n	80103f0 <USB_FlushRxFifo+0x8>
 8010402:	2300      	movs	r3, #0
 8010404:	9301      	str	r3, [sp, #4]
 8010406:	4a09      	ldr	r2, [pc, #36]	; (801042c <USB_FlushRxFifo+0x44>)
 8010408:	2310      	movs	r3, #16
 801040a:	6103      	str	r3, [r0, #16]
 801040c:	9b01      	ldr	r3, [sp, #4]
 801040e:	3301      	adds	r3, #1
 8010410:	9301      	str	r3, [sp, #4]
 8010412:	9b01      	ldr	r3, [sp, #4]
 8010414:	4293      	cmp	r3, r2
 8010416:	d806      	bhi.n	8010426 <USB_FlushRxFifo+0x3e>
 8010418:	6903      	ldr	r3, [r0, #16]
 801041a:	f013 0310 	ands.w	r3, r3, #16
 801041e:	d1f5      	bne.n	801040c <USB_FlushRxFifo+0x24>
 8010420:	4618      	mov	r0, r3
 8010422:	b002      	add	sp, #8
 8010424:	4770      	bx	lr
 8010426:	2003      	movs	r0, #3
 8010428:	e7fb      	b.n	8010422 <USB_FlushRxFifo+0x3a>
 801042a:	bf00      	nop
 801042c:	00030d40 	.word	0x00030d40

08010430 <USB_SetDevSpeed>:
 8010430:	f8d0 3800 	ldr.w	r3, [r0, #2048]	; 0x800
 8010434:	4319      	orrs	r1, r3
 8010436:	f8c0 1800 	str.w	r1, [r0, #2048]	; 0x800
 801043a:	2000      	movs	r0, #0
 801043c:	4770      	bx	lr
	...

08010440 <USB_DevInit>:
 8010440:	b084      	sub	sp, #16
 8010442:	e92d 43f8 	stmdb	sp!, {r3, r4, r5, r6, r7, r8, r9, lr}
 8010446:	4604      	mov	r4, r0
 8010448:	a809      	add	r0, sp, #36	; 0x24
 801044a:	e880 000e 	stmia.w	r0, {r1, r2, r3}
 801044e:	9d13      	ldr	r5, [sp, #76]	; 0x4c
 8010450:	2300      	movs	r3, #0
 8010452:	460e      	mov	r6, r1
 8010454:	4619      	mov	r1, r3
 8010456:	f103 0240 	add.w	r2, r3, #64	; 0x40
 801045a:	eb04 0282 	add.w	r2, r4, r2, lsl #2
 801045e:	3301      	adds	r3, #1
 8010460:	2b0f      	cmp	r3, #15
 8010462:	6051      	str	r1, [r2, #4]
 8010464:	d1f7      	bne.n	8010456 <USB_DevInit+0x16>
 8010466:	f504 6700 	add.w	r7, r4, #2048	; 0x800
 801046a:	2d00      	cmp	r5, #0
 801046c:	d16c      	bne.n	8010548 <USB_DevInit+0x108>
 801046e:	687b      	ldr	r3, [r7, #4]
 8010470:	f043 0302 	orr.w	r3, r3, #2
 8010474:	607b      	str	r3, [r7, #4]
 8010476:	6ba3      	ldr	r3, [r4, #56]	; 0x38
 8010478:	f443 1300 	orr.w	r3, r3, #2097152	; 0x200000
 801047c:	63a3      	str	r3, [r4, #56]	; 0x38
 801047e:	6ba3      	ldr	r3, [r4, #56]	; 0x38
 8010480:	f423 2300 	bic.w	r3, r3, #524288	; 0x80000
 8010484:	63a3      	str	r3, [r4, #56]	; 0x38
 8010486:	6ba3      	ldr	r3, [r4, #56]	; 0x38
 8010488:	f423 2380 	bic.w	r3, r3, #262144	; 0x40000
 801048c:	63a3      	str	r3, [r4, #56]	; 0x38
 801048e:	2300      	movs	r3, #0
 8010490:	f8c4 3e00 	str.w	r3, [r4, #3584]	; 0xe00
 8010494:	f8d4 3800 	ldr.w	r3, [r4, #2048]	; 0x800
 8010498:	f8c4 3800 	str.w	r3, [r4, #2048]	; 0x800
 801049c:	9b0e      	ldr	r3, [sp, #56]	; 0x38
 801049e:	2b01      	cmp	r3, #1
 80104a0:	d15c      	bne.n	801055c <USB_DevInit+0x11c>
 80104a2:	990b      	ldr	r1, [sp, #44]	; 0x2c
 80104a4:	2900      	cmp	r1, #0
 80104a6:	d157      	bne.n	8010558 <USB_DevInit+0x118>
 80104a8:	4620      	mov	r0, r4
 80104aa:	f7ff ffc1 	bl	8010430 <USB_SetDevSpeed>
 80104ae:	2110      	movs	r1, #16
 80104b0:	4620      	mov	r0, r4
 80104b2:	f7ff ff73 	bl	801039c <USB_FlushTxFifo>
 80104b6:	4601      	mov	r1, r0
 80104b8:	4620      	mov	r0, r4
 80104ba:	f7ff ff95 	bl	80103e8 <USB_FlushRxFifo>
 80104be:	4308      	orrs	r0, r1
 80104c0:	b2c0      	uxtb	r0, r0
 80104c2:	2300      	movs	r3, #0
 80104c4:	3800      	subs	r0, #0
 80104c6:	613b      	str	r3, [r7, #16]
 80104c8:	bf18      	it	ne
 80104ca:	2001      	movne	r0, #1
 80104cc:	617b      	str	r3, [r7, #20]
 80104ce:	f504 6210 	add.w	r2, r4, #2304	; 0x900
 80104d2:	61fb      	str	r3, [r7, #28]
 80104d4:	4619      	mov	r1, r3
 80104d6:	f04f 4c90 	mov.w	ip, #1207959552	; 0x48000000
 80104da:	f04f 6e00 	mov.w	lr, #134217728	; 0x8000000
 80104de:	f64f 387f 	movw	r8, #64383	; 0xfb7f
 80104e2:	42b3      	cmp	r3, r6
 80104e4:	d13c      	bne.n	8010560 <USB_DevInit+0x120>
 80104e6:	2200      	movs	r2, #0
 80104e8:	f504 6330 	add.w	r3, r4, #2816	; 0xb00
 80104ec:	4611      	mov	r1, r2
 80104ee:	f04f 4c90 	mov.w	ip, #1207959552	; 0x48000000
 80104f2:	f04f 6e00 	mov.w	lr, #134217728	; 0x8000000
 80104f6:	f64f 387f 	movw	r8, #64383	; 0xfb7f
 80104fa:	42b2      	cmp	r2, r6
 80104fc:	d143      	bne.n	8010586 <USB_DevInit+0x146>
 80104fe:	693b      	ldr	r3, [r7, #16]
 8010500:	f423 7380 	bic.w	r3, r3, #256	; 0x100
 8010504:	613b      	str	r3, [r7, #16]
 8010506:	2300      	movs	r3, #0
 8010508:	61a3      	str	r3, [r4, #24]
 801050a:	f06f 4380 	mvn.w	r3, #1073741824	; 0x40000000
 801050e:	6163      	str	r3, [r4, #20]
 8010510:	9b0c      	ldr	r3, [sp, #48]	; 0x30
 8010512:	b91b      	cbnz	r3, 801051c <USB_DevInit+0xdc>
 8010514:	69a3      	ldr	r3, [r4, #24]
 8010516:	f043 0310 	orr.w	r3, r3, #16
 801051a:	61a3      	str	r3, [r4, #24]
 801051c:	69a2      	ldr	r2, [r4, #24]
 801051e:	4b23      	ldr	r3, [pc, #140]	; (80105ac <USB_DevInit+0x16c>)
 8010520:	4313      	orrs	r3, r2
 8010522:	61a3      	str	r3, [r4, #24]
 8010524:	9b0f      	ldr	r3, [sp, #60]	; 0x3c
 8010526:	b11b      	cbz	r3, 8010530 <USB_DevInit+0xf0>
 8010528:	69a3      	ldr	r3, [r4, #24]
 801052a:	f043 0308 	orr.w	r3, r3, #8
 801052e:	61a3      	str	r3, [r4, #24]
 8010530:	2d01      	cmp	r5, #1
 8010532:	bf01      	itttt	eq
 8010534:	69a3      	ldreq	r3, [r4, #24]
 8010536:	f043 4380 	orreq.w	r3, r3, #1073741824	; 0x40000000
 801053a:	f043 0304 	orreq.w	r3, r3, #4
 801053e:	61a3      	streq	r3, [r4, #24]
 8010540:	e8bd 43f8 	ldmia.w	sp!, {r3, r4, r5, r6, r7, r8, r9, lr}
 8010544:	b004      	add	sp, #16
 8010546:	4770      	bx	lr
 8010548:	6ba3      	ldr	r3, [r4, #56]	; 0x38
 801054a:	f423 1300 	bic.w	r3, r3, #2097152	; 0x200000
 801054e:	63a3      	str	r3, [r4, #56]	; 0x38
 8010550:	6ba3      	ldr	r3, [r4, #56]	; 0x38
 8010552:	f443 2300 	orr.w	r3, r3, #524288	; 0x80000
 8010556:	e799      	b.n	801048c <USB_DevInit+0x4c>
 8010558:	4619      	mov	r1, r3
 801055a:	e7a5      	b.n	80104a8 <USB_DevInit+0x68>
 801055c:	2103      	movs	r1, #3
 801055e:	e7a3      	b.n	80104a8 <USB_DevInit+0x68>
 8010560:	f8d2 9000 	ldr.w	r9, [r2]
 8010564:	f1b9 0f00 	cmp.w	r9, #0
 8010568:	da0b      	bge.n	8010582 <USB_DevInit+0x142>
 801056a:	b93b      	cbnz	r3, 801057c <USB_DevInit+0x13c>
 801056c:	f8c2 e000 	str.w	lr, [r2]
 8010570:	6111      	str	r1, [r2, #16]
 8010572:	3301      	adds	r3, #1
 8010574:	f8c2 8008 	str.w	r8, [r2, #8]
 8010578:	3220      	adds	r2, #32
 801057a:	e7b2      	b.n	80104e2 <USB_DevInit+0xa2>
 801057c:	f8c2 c000 	str.w	ip, [r2]
 8010580:	e7f6      	b.n	8010570 <USB_DevInit+0x130>
 8010582:	6011      	str	r1, [r2, #0]
 8010584:	e7f4      	b.n	8010570 <USB_DevInit+0x130>
 8010586:	f8d3 9000 	ldr.w	r9, [r3]
 801058a:	f1b9 0f00 	cmp.w	r9, #0
 801058e:	da0b      	bge.n	80105a8 <USB_DevInit+0x168>
 8010590:	b93a      	cbnz	r2, 80105a2 <USB_DevInit+0x162>
 8010592:	f8c3 e000 	str.w	lr, [r3]
 8010596:	6119      	str	r1, [r3, #16]
 8010598:	3201      	adds	r2, #1
 801059a:	f8c3 8008 	str.w	r8, [r3, #8]
 801059e:	3320      	adds	r3, #32
 80105a0:	e7ab      	b.n	80104fa <USB_DevInit+0xba>
 80105a2:	f8c3 c000 	str.w	ip, [r3]
 80105a6:	e7f6      	b.n	8010596 <USB_DevInit+0x156>
 80105a8:	6019      	str	r1, [r3, #0]
 80105aa:	e7f4      	b.n	8010596 <USB_DevInit+0x156>
 80105ac:	803c3800 	.word	0x803c3800

080105b0 <USB_GetDevSpeed>:
 80105b0:	f8d0 3808 	ldr.w	r3, [r0, #2056]	; 0x808
 80105b4:	f013 0006 	ands.w	r0, r3, #6
 80105b8:	d004      	beq.n	80105c4 <USB_GetDevSpeed+0x14>
 80105ba:	f013 0f02 	tst.w	r3, #2
 80105be:	bf14      	ite	ne
 80105c0:	2002      	movne	r0, #2
 80105c2:	200f      	moveq	r0, #15
 80105c4:	4770      	bx	lr

080105c6 <USB_ActivateEndpoint>:
 80105c6:	b530      	push	{r4, r5, lr}
 80105c8:	780d      	ldrb	r5, [r1, #0]
 80105ca:	2401      	movs	r4, #1
 80105cc:	f005 030f 	and.w	r3, r5, #15
 80105d0:	409c      	lsls	r4, r3
 80105d2:	784b      	ldrb	r3, [r1, #1]
 80105d4:	f500 6200 	add.w	r2, r0, #2048	; 0x800
 80105d8:	2b01      	cmp	r3, #1
 80105da:	eb00 1045 	add.w	r0, r0, r5, lsl #5
 80105de:	69d3      	ldr	r3, [r2, #28]
 80105e0:	d118      	bne.n	8010614 <USB_ActivateEndpoint+0x4e>
 80105e2:	431c      	orrs	r4, r3
 80105e4:	61d4      	str	r4, [r2, #28]
 80105e6:	f8d0 3900 	ldr.w	r3, [r0, #2304]	; 0x900
 80105ea:	041a      	lsls	r2, r3, #16
 80105ec:	d410      	bmi.n	8010610 <USB_ActivateEndpoint+0x4a>
 80105ee:	68ca      	ldr	r2, [r1, #12]
 80105f0:	f8d0 4900 	ldr.w	r4, [r0, #2304]	; 0x900
 80105f4:	f3c2 030a 	ubfx	r3, r2, #0, #11
 80105f8:	790a      	ldrb	r2, [r1, #4]
 80105fa:	4323      	orrs	r3, r4
 80105fc:	ea43 4382 	orr.w	r3, r3, r2, lsl #18
 8010600:	ea43 5385 	orr.w	r3, r3, r5, lsl #22
 8010604:	f043 5380 	orr.w	r3, r3, #268435456	; 0x10000000
 8010608:	f443 4300 	orr.w	r3, r3, #32768	; 0x8000
 801060c:	f8c0 3900 	str.w	r3, [r0, #2304]	; 0x900
 8010610:	2000      	movs	r0, #0
 8010612:	bd30      	pop	{r4, r5, pc}
 8010614:	ea43 4404 	orr.w	r4, r3, r4, lsl #16
 8010618:	61d4      	str	r4, [r2, #28]
 801061a:	f8d0 3b00 	ldr.w	r3, [r0, #2816]	; 0xb00
 801061e:	041b      	lsls	r3, r3, #16
 8010620:	d4f6      	bmi.n	8010610 <USB_ActivateEndpoint+0x4a>
 8010622:	68cb      	ldr	r3, [r1, #12]
 8010624:	f8d0 2b00 	ldr.w	r2, [r0, #2816]	; 0xb00
 8010628:	f3c3 030a 	ubfx	r3, r3, #0, #11
 801062c:	4313      	orrs	r3, r2
 801062e:	790a      	ldrb	r2, [r1, #4]
 8010630:	ea43 4382 	orr.w	r3, r3, r2, lsl #18
 8010634:	f043 5380 	orr.w	r3, r3, #268435456	; 0x10000000
 8010638:	f443 4300 	orr.w	r3, r3, #32768	; 0x8000
 801063c:	f8c0 3b00 	str.w	r3, [r0, #2816]	; 0xb00
 8010640:	e7e6      	b.n	8010610 <USB_ActivateEndpoint+0x4a>
	...

08010644 <USB_DeactivateEndpoint>:
 8010644:	b510      	push	{r4, lr}
 8010646:	780a      	ldrb	r2, [r1, #0]
 8010648:	7849      	ldrb	r1, [r1, #1]
 801064a:	2901      	cmp	r1, #1
 801064c:	eb00 1342 	add.w	r3, r0, r2, lsl #5
 8010650:	f500 6000 	add.w	r0, r0, #2048	; 0x800
 8010654:	f002 020f 	and.w	r2, r2, #15
 8010658:	d122      	bne.n	80106a0 <USB_DeactivateEndpoint+0x5c>
 801065a:	f8d3 1900 	ldr.w	r1, [r3, #2304]	; 0x900
 801065e:	2900      	cmp	r1, #0
 8010660:	da0b      	bge.n	801067a <USB_DeactivateEndpoint+0x36>
 8010662:	f8d3 1900 	ldr.w	r1, [r3, #2304]	; 0x900
 8010666:	f041 6100 	orr.w	r1, r1, #134217728	; 0x8000000
 801066a:	f8c3 1900 	str.w	r1, [r3, #2304]	; 0x900
 801066e:	f8d3 1900 	ldr.w	r1, [r3, #2304]	; 0x900
 8010672:	f041 4180 	orr.w	r1, r1, #1073741824	; 0x40000000
 8010676:	f8c3 1900 	str.w	r1, [r3, #2304]	; 0x900
 801067a:	6bc4      	ldr	r4, [r0, #60]	; 0x3c
 801067c:	2101      	movs	r1, #1
 801067e:	fa01 f202 	lsl.w	r2, r1, r2
 8010682:	ea24 0402 	bic.w	r4, r4, r2
 8010686:	63c4      	str	r4, [r0, #60]	; 0x3c
 8010688:	69c1      	ldr	r1, [r0, #28]
 801068a:	ea21 0202 	bic.w	r2, r1, r2
 801068e:	61c2      	str	r2, [r0, #28]
 8010690:	f8d3 1900 	ldr.w	r1, [r3, #2304]	; 0x900
 8010694:	4a14      	ldr	r2, [pc, #80]	; (80106e8 <USB_DeactivateEndpoint+0xa4>)
 8010696:	400a      	ands	r2, r1
 8010698:	f8c3 2900 	str.w	r2, [r3, #2304]	; 0x900
 801069c:	2000      	movs	r0, #0
 801069e:	bd10      	pop	{r4, pc}
 80106a0:	f8d3 1b00 	ldr.w	r1, [r3, #2816]	; 0xb00
 80106a4:	2900      	cmp	r1, #0
 80106a6:	da0b      	bge.n	80106c0 <USB_DeactivateEndpoint+0x7c>
 80106a8:	f8d3 1b00 	ldr.w	r1, [r3, #2816]	; 0xb00
 80106ac:	f041 6100 	orr.w	r1, r1, #134217728	; 0x8000000
 80106b0:	f8c3 1b00 	str.w	r1, [r3, #2816]	; 0xb00
 80106b4:	f8d3 1b00 	ldr.w	r1, [r3, #2816]	; 0xb00
 80106b8:	f041 4180 	orr.w	r1, r1, #1073741824	; 0x40000000
 80106bc:	f8c3 1b00 	str.w	r1, [r3, #2816]	; 0xb00
 80106c0:	6bc4      	ldr	r4, [r0, #60]	; 0x3c
 80106c2:	f44f 3180 	mov.w	r1, #65536	; 0x10000
 80106c6:	fa01 f202 	lsl.w	r2, r1, r2
 80106ca:	ea24 0402 	bic.w	r4, r4, r2
 80106ce:	63c4      	str	r4, [r0, #60]	; 0x3c
 80106d0:	69c1      	ldr	r1, [r0, #28]
 80106d2:	ea21 0202 	bic.w	r2, r1, r2
 80106d6:	61c2      	str	r2, [r0, #28]
 80106d8:	f8d3 1b00 	ldr.w	r1, [r3, #2816]	; 0xb00
 80106dc:	4a03      	ldr	r2, [pc, #12]	; (80106ec <USB_DeactivateEndpoint+0xa8>)
 80106de:	400a      	ands	r2, r1
 80106e0:	f8c3 2b00 	str.w	r2, [r3, #2816]	; 0xb00
 80106e4:	e7da      	b.n	801069c <USB_DeactivateEndpoint+0x58>
 80106e6:	bf00      	nop
 80106e8:	ec337800 	.word	0xec337800
 80106ec:	eff37800 	.word	0xeff37800

080106f0 <USB_EP0StartXfer>:
 80106f0:	784b      	ldrb	r3, [r1, #1]
 80106f2:	f8df c0f0 	ldr.w	ip, [pc, #240]	; 80107e4 <USB_EP0StartXfer+0xf4>
 80106f6:	b5f0      	push	{r4, r5, r6, r7, lr}
 80106f8:	780e      	ldrb	r6, [r1, #0]
 80106fa:	698d      	ldr	r5, [r1, #24]
 80106fc:	4f38      	ldr	r7, [pc, #224]	; (80107e0 <USB_EP0StartXfer+0xf0>)
 80106fe:	2b01      	cmp	r3, #1
 8010700:	eb00 1446 	add.w	r4, r0, r6, lsl #5
 8010704:	d146      	bne.n	8010794 <USB_EP0StartXfer+0xa4>
 8010706:	f504 6310 	add.w	r3, r4, #2304	; 0x900
 801070a:	b9bd      	cbnz	r5, 801073c <USB_EP0StartXfer+0x4c>
 801070c:	691d      	ldr	r5, [r3, #16]
 801070e:	402f      	ands	r7, r5
 8010710:	611f      	str	r7, [r3, #16]
 8010712:	691d      	ldr	r5, [r3, #16]
 8010714:	f445 2500 	orr.w	r5, r5, #524288	; 0x80000
 8010718:	611d      	str	r5, [r3, #16]
 801071a:	691d      	ldr	r5, [r3, #16]
 801071c:	ea05 050c 	and.w	r5, r5, ip
 8010720:	2a01      	cmp	r2, #1
 8010722:	611d      	str	r5, [r3, #16]
 8010724:	d123      	bne.n	801076e <USB_EP0StartXfer+0x7e>
 8010726:	694a      	ldr	r2, [r1, #20]
 8010728:	b102      	cbz	r2, 801072c <USB_EP0StartXfer+0x3c>
 801072a:	615a      	str	r2, [r3, #20]
 801072c:	f8d4 3900 	ldr.w	r3, [r4, #2304]	; 0x900
 8010730:	f043 4304 	orr.w	r3, r3, #2214592512	; 0x84000000
 8010734:	f8c4 3900 	str.w	r3, [r4, #2304]	; 0x900
 8010738:	2000      	movs	r0, #0
 801073a:	bdf0      	pop	{r4, r5, r6, r7, pc}
 801073c:	f8d3 e010 	ldr.w	lr, [r3, #16]
 8010740:	ea0e 0c0c 	and.w	ip, lr, ip
 8010744:	f8c3 c010 	str.w	ip, [r3, #16]
 8010748:	f8d3 c010 	ldr.w	ip, [r3, #16]
 801074c:	ea0c 0707 	and.w	r7, ip, r7
 8010750:	611f      	str	r7, [r3, #16]
 8010752:	68cf      	ldr	r7, [r1, #12]
 8010754:	42af      	cmp	r7, r5
 8010756:	691d      	ldr	r5, [r3, #16]
 8010758:	bf38      	it	cc
 801075a:	618f      	strcc	r7, [r1, #24]
 801075c:	f445 2500 	orr.w	r5, r5, #524288	; 0x80000
 8010760:	611d      	str	r5, [r3, #16]
 8010762:	698d      	ldr	r5, [r1, #24]
 8010764:	691f      	ldr	r7, [r3, #16]
 8010766:	f3c5 0512 	ubfx	r5, r5, #0, #19
 801076a:	433d      	orrs	r5, r7
 801076c:	e7d8      	b.n	8010720 <USB_EP0StartXfer+0x30>
 801076e:	f8d4 3900 	ldr.w	r3, [r4, #2304]	; 0x900
 8010772:	f043 4304 	orr.w	r3, r3, #2214592512	; 0x84000000
 8010776:	f8c4 3900 	str.w	r3, [r4, #2304]	; 0x900
 801077a:	698b      	ldr	r3, [r1, #24]
 801077c:	2b00      	cmp	r3, #0
 801077e:	d0db      	beq.n	8010738 <USB_EP0StartXfer+0x48>
 8010780:	f8d0 2834 	ldr.w	r2, [r0, #2100]	; 0x834
 8010784:	f006 060f 	and.w	r6, r6, #15
 8010788:	2301      	movs	r3, #1
 801078a:	40b3      	lsls	r3, r6
 801078c:	4313      	orrs	r3, r2
 801078e:	f8c0 3834 	str.w	r3, [r0, #2100]	; 0x834
 8010792:	e7d1      	b.n	8010738 <USB_EP0StartXfer+0x48>
 8010794:	f8d4 0b10 	ldr.w	r0, [r4, #2832]	; 0xb10
 8010798:	ea00 000c 	and.w	r0, r0, ip
 801079c:	f8c4 0b10 	str.w	r0, [r4, #2832]	; 0xb10
 80107a0:	f8d4 0b10 	ldr.w	r0, [r4, #2832]	; 0xb10
 80107a4:	4038      	ands	r0, r7
 80107a6:	f504 6330 	add.w	r3, r4, #2816	; 0xb00
 80107aa:	6118      	str	r0, [r3, #16]
 80107ac:	68c8      	ldr	r0, [r1, #12]
 80107ae:	b105      	cbz	r5, 80107b2 <USB_EP0StartXfer+0xc2>
 80107b0:	6188      	str	r0, [r1, #24]
 80107b2:	691d      	ldr	r5, [r3, #16]
 80107b4:	61c8      	str	r0, [r1, #28]
 80107b6:	f445 2500 	orr.w	r5, r5, #524288	; 0x80000
 80107ba:	611d      	str	r5, [r3, #16]
 80107bc:	691d      	ldr	r5, [r3, #16]
 80107be:	f3c0 0012 	ubfx	r0, r0, #0, #19
 80107c2:	4328      	orrs	r0, r5
 80107c4:	2a01      	cmp	r2, #1
 80107c6:	6118      	str	r0, [r3, #16]
 80107c8:	d102      	bne.n	80107d0 <USB_EP0StartXfer+0xe0>
 80107ca:	690a      	ldr	r2, [r1, #16]
 80107cc:	b102      	cbz	r2, 80107d0 <USB_EP0StartXfer+0xe0>
 80107ce:	615a      	str	r2, [r3, #20]
 80107d0:	f8d4 3b00 	ldr.w	r3, [r4, #2816]	; 0xb00
 80107d4:	f043 4304 	orr.w	r3, r3, #2214592512	; 0x84000000
 80107d8:	f8c4 3b00 	str.w	r3, [r4, #2816]	; 0xb00
 80107dc:	e7ac      	b.n	8010738 <USB_EP0StartXfer+0x48>
 80107de:	bf00      	nop
 80107e0:	e007ffff 	.word	0xe007ffff
 80107e4:	fff80000 	.word	0xfff80000

080107e8 <USB_EPStopXfer>:
 80107e8:	b082      	sub	sp, #8
 80107ea:	2300      	movs	r3, #0
 80107ec:	784a      	ldrb	r2, [r1, #1]
 80107ee:	9301      	str	r3, [sp, #4]
 80107f0:	780b      	ldrb	r3, [r1, #0]
 80107f2:	2a01      	cmp	r2, #1
 80107f4:	ea4f 1343 	mov.w	r3, r3, lsl #5
 80107f8:	d11e      	bne.n	8010838 <USB_EPStopXfer+0x50>
 80107fa:	f500 6010 	add.w	r0, r0, #2304	; 0x900
 80107fe:	18c1      	adds	r1, r0, r3
 8010800:	58c2      	ldr	r2, [r0, r3]
 8010802:	2a00      	cmp	r2, #0
 8010804:	db02      	blt.n	801080c <USB_EPStopXfer+0x24>
 8010806:	2000      	movs	r0, #0
 8010808:	b002      	add	sp, #8
 801080a:	4770      	bx	lr
 801080c:	58c2      	ldr	r2, [r0, r3]
 801080e:	f042 6200 	orr.w	r2, r2, #134217728	; 0x8000000
 8010812:	50c2      	str	r2, [r0, r3]
 8010814:	58c2      	ldr	r2, [r0, r3]
 8010816:	f042 4280 	orr.w	r2, r2, #1073741824	; 0x40000000
 801081a:	50c2      	str	r2, [r0, r3]
 801081c:	f242 7210 	movw	r2, #10000	; 0x2710
 8010820:	9b01      	ldr	r3, [sp, #4]
 8010822:	3301      	adds	r3, #1
 8010824:	9301      	str	r3, [sp, #4]
 8010826:	9b01      	ldr	r3, [sp, #4]
 8010828:	4293      	cmp	r3, r2
 801082a:	d901      	bls.n	8010830 <USB_EPStopXfer+0x48>
 801082c:	2001      	movs	r0, #1
 801082e:	e7eb      	b.n	8010808 <USB_EPStopXfer+0x20>
 8010830:	680b      	ldr	r3, [r1, #0]
 8010832:	2b00      	cmp	r3, #0
 8010834:	dbf4      	blt.n	8010820 <USB_EPStopXfer+0x38>
 8010836:	e7e6      	b.n	8010806 <USB_EPStopXfer+0x1e>
 8010838:	f500 6030 	add.w	r0, r0, #2816	; 0xb00
 801083c:	18c1      	adds	r1, r0, r3
 801083e:	58c2      	ldr	r2, [r0, r3]
 8010840:	2a00      	cmp	r2, #0
 8010842:	dae0      	bge.n	8010806 <USB_EPStopXfer+0x1e>
 8010844:	58c2      	ldr	r2, [r0, r3]
 8010846:	f042 6200 	orr.w	r2, r2, #134217728	; 0x8000000
 801084a:	50c2      	str	r2, [r0, r3]
 801084c:	58c2      	ldr	r2, [r0, r3]
 801084e:	f042 4280 	orr.w	r2, r2, #1073741824	; 0x40000000
 8010852:	50c2      	str	r2, [r0, r3]
 8010854:	f242 7210 	movw	r2, #10000	; 0x2710
 8010858:	9b01      	ldr	r3, [sp, #4]
 801085a:	3301      	adds	r3, #1
 801085c:	9301      	str	r3, [sp, #4]
 801085e:	9b01      	ldr	r3, [sp, #4]
 8010860:	4293      	cmp	r3, r2
 8010862:	d8e3      	bhi.n	801082c <USB_EPStopXfer+0x44>
 8010864:	680b      	ldr	r3, [r1, #0]
 8010866:	2b00      	cmp	r3, #0
 8010868:	dbf6      	blt.n	8010858 <USB_EPStopXfer+0x70>
 801086a:	e7cc      	b.n	8010806 <USB_EPStopXfer+0x1e>

0801086c <USB_WritePacket>:
 801086c:	b510      	push	{r4, lr}
 801086e:	f89d 4008 	ldrb.w	r4, [sp, #8]
 8010872:	b944      	cbnz	r4, 8010886 <USB_WritePacket+0x1a>
 8010874:	3303      	adds	r3, #3
 8010876:	3201      	adds	r2, #1
 8010878:	089b      	lsrs	r3, r3, #2
 801087a:	eb00 3002 	add.w	r0, r0, r2, lsl #12
 801087e:	eb01 0383 	add.w	r3, r1, r3, lsl #2
 8010882:	428b      	cmp	r3, r1
 8010884:	d101      	bne.n	801088a <USB_WritePacket+0x1e>
 8010886:	2000      	movs	r0, #0
 8010888:	bd10      	pop	{r4, pc}
 801088a:	f851 2b04 	ldr.w	r2, [r1], #4
 801088e:	6002      	str	r2, [r0, #0]
 8010890:	e7f7      	b.n	8010882 <USB_WritePacket+0x16>
	...

08010894 <USB_EPStartXfer>:
 8010894:	e92d 41f3 	stmdb	sp!, {r0, r1, r4, r5, r6, r7, r8, lr}
 8010898:	784d      	ldrb	r5, [r1, #1]
 801089a:	780f      	ldrb	r7, [r1, #0]
 801089c:	698b      	ldr	r3, [r1, #24]
 801089e:	790e      	ldrb	r6, [r1, #4]
 80108a0:	f8df c1bc 	ldr.w	ip, [pc, #444]	; 8010a60 <USB_EPStartXfer+0x1cc>
 80108a4:	f8df e1bc 	ldr.w	lr, [pc, #444]	; 8010a64 <USB_EPStartXfer+0x1d0>
 80108a8:	2d01      	cmp	r5, #1
 80108aa:	eb00 1447 	add.w	r4, r0, r7, lsl #5
 80108ae:	f040 808e 	bne.w	80109ce <USB_EPStartXfer+0x13a>
 80108b2:	f504 6510 	add.w	r5, r4, #2304	; 0x900
 80108b6:	f8d5 8010 	ldr.w	r8, [r5, #16]
 80108ba:	bb6b      	cbnz	r3, 8010918 <USB_EPStartXfer+0x84>
 80108bc:	ea08 0c0c 	and.w	ip, r8, ip
 80108c0:	f8c5 c010 	str.w	ip, [r5, #16]
 80108c4:	f8d5 c010 	ldr.w	ip, [r5, #16]
 80108c8:	f44c 2c00 	orr.w	ip, ip, #524288	; 0x80000
 80108cc:	f8c5 c010 	str.w	ip, [r5, #16]
 80108d0:	f8d5 c010 	ldr.w	ip, [r5, #16]
 80108d4:	ea0c 0e0e 	and.w	lr, ip, lr
 80108d8:	f8c5 e010 	str.w	lr, [r5, #16]
 80108dc:	2a01      	cmp	r2, #1
 80108de:	d14e      	bne.n	801097e <USB_EPStartXfer+0xea>
 80108e0:	694b      	ldr	r3, [r1, #20]
 80108e2:	b103      	cbz	r3, 80108e6 <USB_EPStartXfer+0x52>
 80108e4:	616b      	str	r3, [r5, #20]
 80108e6:	2e01      	cmp	r6, #1
 80108e8:	d10c      	bne.n	8010904 <USB_EPStartXfer+0x70>
 80108ea:	f8d0 3808 	ldr.w	r3, [r0, #2056]	; 0x808
 80108ee:	f413 7f80 	tst.w	r3, #256	; 0x100
 80108f2:	f8d4 3900 	ldr.w	r3, [r4, #2304]	; 0x900
 80108f6:	bf0c      	ite	eq
 80108f8:	f043 5300 	orreq.w	r3, r3, #536870912	; 0x20000000
 80108fc:	f043 5380 	orrne.w	r3, r3, #268435456	; 0x10000000
 8010900:	f8c4 3900 	str.w	r3, [r4, #2304]	; 0x900
 8010904:	f8d4 3900 	ldr.w	r3, [r4, #2304]	; 0x900
 8010908:	f043 4304 	orr.w	r3, r3, #2214592512	; 0x84000000
 801090c:	f8c4 3900 	str.w	r3, [r4, #2304]	; 0x900
 8010910:	2000      	movs	r0, #0
 8010912:	b002      	add	sp, #8
 8010914:	e8bd 81f0 	ldmia.w	sp!, {r4, r5, r6, r7, r8, pc}
 8010918:	ea08 0e0e 	and.w	lr, r8, lr
 801091c:	f8c5 e010 	str.w	lr, [r5, #16]
 8010920:	f8d5 e010 	ldr.w	lr, [r5, #16]
 8010924:	ea0e 0c0c 	and.w	ip, lr, ip
 8010928:	f8d1 e00c 	ldr.w	lr, [r1, #12]
 801092c:	f8c5 c010 	str.w	ip, [r5, #16]
 8010930:	eb0e 0c03 	add.w	ip, lr, r3
 8010934:	f10c 3cff 	add.w	ip, ip, #4294967295
 8010938:	fbbc fefe 	udiv	lr, ip, lr
 801093c:	f8df c128 	ldr.w	ip, [pc, #296]	; 8010a68 <USB_EPStartXfer+0x1d4>
 8010940:	f8d5 8010 	ldr.w	r8, [r5, #16]
 8010944:	ea0c 4cce 	and.w	ip, ip, lr, lsl #19
 8010948:	ea4c 0c08 	orr.w	ip, ip, r8
 801094c:	f8c5 c010 	str.w	ip, [r5, #16]
 8010950:	f8d5 e010 	ldr.w	lr, [r5, #16]
 8010954:	f3c3 0c12 	ubfx	ip, r3, #0, #19
 8010958:	ea4c 0c0e 	orr.w	ip, ip, lr
 801095c:	2e01      	cmp	r6, #1
 801095e:	f8c5 c010 	str.w	ip, [r5, #16]
 8010962:	d1bb      	bne.n	80108dc <USB_EPStartXfer+0x48>
 8010964:	f8d5 c010 	ldr.w	ip, [r5, #16]
 8010968:	f02c 4cc0 	bic.w	ip, ip, #1610612736	; 0x60000000
 801096c:	f8c5 c010 	str.w	ip, [r5, #16]
 8010970:	f8d5 c010 	ldr.w	ip, [r5, #16]
 8010974:	f04c 5c00 	orr.w	ip, ip, #536870912	; 0x20000000
 8010978:	f8c5 c010 	str.w	ip, [r5, #16]
 801097c:	e7ae      	b.n	80108dc <USB_EPStartXfer+0x48>
 801097e:	f8d4 5900 	ldr.w	r5, [r4, #2304]	; 0x900
 8010982:	2e01      	cmp	r6, #1
 8010984:	f045 4504 	orr.w	r5, r5, #2214592512	; 0x84000000
 8010988:	f8c4 5900 	str.w	r5, [r4, #2304]	; 0x900
 801098c:	d00b      	beq.n	80109a6 <USB_EPStartXfer+0x112>
 801098e:	2b00      	cmp	r3, #0
 8010990:	d0be      	beq.n	8010910 <USB_EPStartXfer+0x7c>
 8010992:	f8d0 3834 	ldr.w	r3, [r0, #2100]	; 0x834
 8010996:	f007 020f 	and.w	r2, r7, #15
 801099a:	2701      	movs	r7, #1
 801099c:	4097      	lsls	r7, r2
 801099e:	431f      	orrs	r7, r3
 80109a0:	f8c0 7834 	str.w	r7, [r0, #2100]	; 0x834
 80109a4:	e7b4      	b.n	8010910 <USB_EPStartXfer+0x7c>
 80109a6:	f8d0 5808 	ldr.w	r5, [r0, #2056]	; 0x808
 80109aa:	f415 7f80 	tst.w	r5, #256	; 0x100
 80109ae:	f8d4 5900 	ldr.w	r5, [r4, #2304]	; 0x900
 80109b2:	bf0c      	ite	eq
 80109b4:	f045 5500 	orreq.w	r5, r5, #536870912	; 0x20000000
 80109b8:	f045 5580 	orrne.w	r5, r5, #268435456	; 0x10000000
 80109bc:	f8c4 5900 	str.w	r5, [r4, #2304]	; 0x900
 80109c0:	9200      	str	r2, [sp, #0]
 80109c2:	6909      	ldr	r1, [r1, #16]
 80109c4:	b29b      	uxth	r3, r3
 80109c6:	463a      	mov	r2, r7
 80109c8:	f7ff ff50 	bl	801086c <USB_WritePacket>
 80109cc:	e7a0      	b.n	8010910 <USB_EPStartXfer+0x7c>
 80109ce:	f8d4 5b10 	ldr.w	r5, [r4, #2832]	; 0xb10
 80109d2:	ea05 050e 	and.w	r5, r5, lr
 80109d6:	f8c4 5b10 	str.w	r5, [r4, #2832]	; 0xb10
 80109da:	f8d4 5b10 	ldr.w	r5, [r4, #2832]	; 0xb10
 80109de:	ea05 050c 	and.w	r5, r5, ip
 80109e2:	f504 6730 	add.w	r7, r4, #2816	; 0xb00
 80109e6:	613d      	str	r5, [r7, #16]
 80109e8:	68cd      	ldr	r5, [r1, #12]
 80109ea:	bb1b      	cbnz	r3, 8010a34 <USB_EPStartXfer+0x1a0>
 80109ec:	693b      	ldr	r3, [r7, #16]
 80109ee:	f3c5 0512 	ubfx	r5, r5, #0, #19
 80109f2:	431d      	orrs	r5, r3
 80109f4:	613d      	str	r5, [r7, #16]
 80109f6:	693b      	ldr	r3, [r7, #16]
 80109f8:	f443 2300 	orr.w	r3, r3, #524288	; 0x80000
 80109fc:	613b      	str	r3, [r7, #16]
 80109fe:	2a01      	cmp	r2, #1
 8010a00:	d102      	bne.n	8010a08 <USB_EPStartXfer+0x174>
 8010a02:	690b      	ldr	r3, [r1, #16]
 8010a04:	b103      	cbz	r3, 8010a08 <USB_EPStartXfer+0x174>
 8010a06:	617b      	str	r3, [r7, #20]
 8010a08:	2e01      	cmp	r6, #1
 8010a0a:	d10c      	bne.n	8010a26 <USB_EPStartXfer+0x192>
 8010a0c:	f8d0 3808 	ldr.w	r3, [r0, #2056]	; 0x808
 8010a10:	f413 7f80 	tst.w	r3, #256	; 0x100
 8010a14:	f8d4 3b00 	ldr.w	r3, [r4, #2816]	; 0xb00
 8010a18:	bf0c      	ite	eq
 8010a1a:	f043 5300 	orreq.w	r3, r3, #536870912	; 0x20000000
 8010a1e:	f043 5380 	orrne.w	r3, r3, #268435456	; 0x10000000
 8010a22:	f8c4 3b00 	str.w	r3, [r4, #2816]	; 0xb00
 8010a26:	f8d4 3b00 	ldr.w	r3, [r4, #2816]	; 0xb00
 8010a2a:	f043 4304 	orr.w	r3, r3, #2214592512	; 0x84000000
 8010a2e:	f8c4 3b00 	str.w	r3, [r4, #2816]	; 0xb00
 8010a32:	e76d      	b.n	8010910 <USB_EPStartXfer+0x7c>
 8010a34:	442b      	add	r3, r5
 8010a36:	f8df c030 	ldr.w	ip, [pc, #48]	; 8010a68 <USB_EPStartXfer+0x1d4>
 8010a3a:	f8d7 e010 	ldr.w	lr, [r7, #16]
 8010a3e:	3b01      	subs	r3, #1
 8010a40:	fbb3 f3f5 	udiv	r3, r3, r5
 8010a44:	b29b      	uxth	r3, r3
 8010a46:	435d      	muls	r5, r3
 8010a48:	ea0c 43c3 	and.w	r3, ip, r3, lsl #19
 8010a4c:	ea43 030e 	orr.w	r3, r3, lr
 8010a50:	61cd      	str	r5, [r1, #28]
 8010a52:	613b      	str	r3, [r7, #16]
 8010a54:	693b      	ldr	r3, [r7, #16]
 8010a56:	f3c5 0512 	ubfx	r5, r5, #0, #19
 8010a5a:	431d      	orrs	r5, r3
 8010a5c:	613d      	str	r5, [r7, #16]
 8010a5e:	e7ce      	b.n	80109fe <USB_EPStartXfer+0x16a>
 8010a60:	e007ffff 	.word	0xe007ffff
 8010a64:	fff80000 	.word	0xfff80000
 8010a68:	1ff80000 	.word	0x1ff80000

08010a6c <USB_ReadPacket>:
 8010a6c:	4603      	mov	r3, r0
 8010a6e:	b570      	push	{r4, r5, r6, lr}
 8010a70:	0890      	lsrs	r0, r2, #2
 8010a72:	2400      	movs	r4, #0
 8010a74:	f002 0203 	and.w	r2, r2, #3
 8010a78:	f503 5580 	add.w	r5, r3, #4096	; 0x1000
 8010a7c:	4284      	cmp	r4, r0
 8010a7e:	d310      	bcc.n	8010aa2 <USB_ReadPacket+0x36>
 8010a80:	eb01 0080 	add.w	r0, r1, r0, lsl #2
 8010a84:	b162      	cbz	r2, 8010aa0 <USB_ReadPacket+0x34>
 8010a86:	f503 5380 	add.w	r3, r3, #4096	; 0x1000
 8010a8a:	681c      	ldr	r4, [r3, #0]
 8010a8c:	2300      	movs	r3, #0
 8010a8e:	00d9      	lsls	r1, r3, #3
 8010a90:	fa24 f101 	lsr.w	r1, r4, r1
 8010a94:	54c1      	strb	r1, [r0, r3]
 8010a96:	3301      	adds	r3, #1
 8010a98:	b299      	uxth	r1, r3
 8010a9a:	428a      	cmp	r2, r1
 8010a9c:	d1f7      	bne.n	8010a8e <USB_ReadPacket+0x22>
 8010a9e:	4410      	add	r0, r2
 8010aa0:	bd70      	pop	{r4, r5, r6, pc}
 8010aa2:	682e      	ldr	r6, [r5, #0]
 8010aa4:	f841 6024 	str.w	r6, [r1, r4, lsl #2]
 8010aa8:	3401      	adds	r4, #1
 8010aaa:	e7e7      	b.n	8010a7c <USB_ReadPacket+0x10>

08010aac <USB_EPSetStall>:
 8010aac:	784a      	ldrb	r2, [r1, #1]
 8010aae:	780b      	ldrb	r3, [r1, #0]
 8010ab0:	2a01      	cmp	r2, #1
 8010ab2:	eb00 1043 	add.w	r0, r0, r3, lsl #5
 8010ab6:	d112      	bne.n	8010ade <USB_EPSetStall+0x32>
 8010ab8:	f8d0 2900 	ldr.w	r2, [r0, #2304]	; 0x900
 8010abc:	2a00      	cmp	r2, #0
 8010abe:	db06      	blt.n	8010ace <USB_EPSetStall+0x22>
 8010ac0:	b12b      	cbz	r3, 8010ace <USB_EPSetStall+0x22>
 8010ac2:	f8d0 3900 	ldr.w	r3, [r0, #2304]	; 0x900
 8010ac6:	f023 4380 	bic.w	r3, r3, #1073741824	; 0x40000000
 8010aca:	f8c0 3900 	str.w	r3, [r0, #2304]	; 0x900
 8010ace:	f8d0 3900 	ldr.w	r3, [r0, #2304]	; 0x900
 8010ad2:	f443 1300 	orr.w	r3, r3, #2097152	; 0x200000
 8010ad6:	f8c0 3900 	str.w	r3, [r0, #2304]	; 0x900
 8010ada:	2000      	movs	r0, #0
 8010adc:	4770      	bx	lr
 8010ade:	f8d0 2b00 	ldr.w	r2, [r0, #2816]	; 0xb00
 8010ae2:	2a00      	cmp	r2, #0
 8010ae4:	db06      	blt.n	8010af4 <USB_EPSetStall+0x48>
 8010ae6:	b12b      	cbz	r3, 8010af4 <USB_EPSetStall+0x48>
 8010ae8:	f8d0 3b00 	ldr.w	r3, [r0, #2816]	; 0xb00
 8010aec:	f023 4380 	bic.w	r3, r3, #1073741824	; 0x40000000
 8010af0:	f8c0 3b00 	str.w	r3, [r0, #2816]	; 0xb00
 8010af4:	f8d0 3b00 	ldr.w	r3, [r0, #2816]	; 0xb00
 8010af8:	f443 1300 	orr.w	r3, r3, #2097152	; 0x200000
 8010afc:	f8c0 3b00 	str.w	r3, [r0, #2816]	; 0xb00
 8010b00:	e7eb      	b.n	8010ada <USB_EPSetStall+0x2e>

08010b02 <USB_EPClearStall>:
 8010b02:	780b      	ldrb	r3, [r1, #0]
 8010b04:	784a      	ldrb	r2, [r1, #1]
 8010b06:	eb00 1043 	add.w	r0, r0, r3, lsl #5
 8010b0a:	790b      	ldrb	r3, [r1, #4]
 8010b0c:	2a01      	cmp	r2, #1
 8010b0e:	f1a3 0302 	sub.w	r3, r3, #2
 8010b12:	b2db      	uxtb	r3, r3
 8010b14:	d10f      	bne.n	8010b36 <USB_EPClearStall+0x34>
 8010b16:	f8d0 2900 	ldr.w	r2, [r0, #2304]	; 0x900
 8010b1a:	2b01      	cmp	r3, #1
 8010b1c:	f422 1200 	bic.w	r2, r2, #2097152	; 0x200000
 8010b20:	f8c0 2900 	str.w	r2, [r0, #2304]	; 0x900
 8010b24:	d805      	bhi.n	8010b32 <USB_EPClearStall+0x30>
 8010b26:	f8d0 3900 	ldr.w	r3, [r0, #2304]	; 0x900
 8010b2a:	f043 5380 	orr.w	r3, r3, #268435456	; 0x10000000
 8010b2e:	f8c0 3900 	str.w	r3, [r0, #2304]	; 0x900
 8010b32:	2000      	movs	r0, #0
 8010b34:	4770      	bx	lr
 8010b36:	f8d0 2b00 	ldr.w	r2, [r0, #2816]	; 0xb00
 8010b3a:	f422 1200 	bic.w	r2, r2, #2097152	; 0x200000
 8010b3e:	2b01      	cmp	r3, #1
 8010b40:	f8c0 2b00 	str.w	r2, [r0, #2816]	; 0xb00
 8010b44:	bf9e      	ittt	ls
 8010b46:	f8d0 3b00 	ldrls.w	r3, [r0, #2816]	; 0xb00
 8010b4a:	f043 5380 	orrls.w	r3, r3, #268435456	; 0x10000000
 8010b4e:	f8c0 3b00 	strls.w	r3, [r0, #2816]	; 0xb00
 8010b52:	e7ee      	b.n	8010b32 <USB_EPClearStall+0x30>

08010b54 <USB_SetDevAddress>:
 8010b54:	f8d0 3800 	ldr.w	r3, [r0, #2048]	; 0x800
 8010b58:	f423 63fe 	bic.w	r3, r3, #2032	; 0x7f0
 8010b5c:	f8c0 3800 	str.w	r3, [r0, #2048]	; 0x800
 8010b60:	f8d0 3800 	ldr.w	r3, [r0, #2048]	; 0x800
 8010b64:	0109      	lsls	r1, r1, #4
 8010b66:	f401 61fe 	and.w	r1, r1, #2032	; 0x7f0
 8010b6a:	4319      	orrs	r1, r3
 8010b6c:	f8c0 1800 	str.w	r1, [r0, #2048]	; 0x800
 8010b70:	2000      	movs	r0, #0
 8010b72:	4770      	bx	lr

08010b74 <USB_DevConnect>:
 8010b74:	f8d0 3e00 	ldr.w	r3, [r0, #3584]	; 0xe00
 8010b78:	f023 0303 	bic.w	r3, r3, #3
 8010b7c:	f8c0 3e00 	str.w	r3, [r0, #3584]	; 0xe00
 8010b80:	f8d0 3804 	ldr.w	r3, [r0, #2052]	; 0x804
 8010b84:	f023 0302 	bic.w	r3, r3, #2
 8010b88:	f8c0 3804 	str.w	r3, [r0, #2052]	; 0x804
 8010b8c:	2000      	movs	r0, #0
 8010b8e:	4770      	bx	lr

08010b90 <USB_DevDisconnect>:
 8010b90:	f8d0 3e00 	ldr.w	r3, [r0, #3584]	; 0xe00
 8010b94:	f023 0303 	bic.w	r3, r3, #3
 8010b98:	f8c0 3e00 	str.w	r3, [r0, #3584]	; 0xe00
 8010b9c:	f8d0 3804 	ldr.w	r3, [r0, #2052]	; 0x804
 8010ba0:	f043 0302 	orr.w	r3, r3, #2
 8010ba4:	f8c0 3804 	str.w	r3, [r0, #2052]	; 0x804
 8010ba8:	2000      	movs	r0, #0
 8010baa:	4770      	bx	lr

08010bac <USB_ReadInterrupts>:
 8010bac:	6942      	ldr	r2, [r0, #20]
 8010bae:	6980      	ldr	r0, [r0, #24]
 8010bb0:	4010      	ands	r0, r2
 8010bb2:	4770      	bx	lr

08010bb4 <USB_ReadDevAllOutEpInterrupt>:
 8010bb4:	f8d0 3818 	ldr.w	r3, [r0, #2072]	; 0x818
 8010bb8:	f500 6000 	add.w	r0, r0, #2048	; 0x800
 8010bbc:	69c0      	ldr	r0, [r0, #28]
 8010bbe:	4018      	ands	r0, r3
 8010bc0:	0c00      	lsrs	r0, r0, #16
 8010bc2:	4770      	bx	lr

08010bc4 <USB_ReadDevAllInEpInterrupt>:
 8010bc4:	f8d0 3818 	ldr.w	r3, [r0, #2072]	; 0x818
 8010bc8:	f500 6000 	add.w	r0, r0, #2048	; 0x800
 8010bcc:	69c0      	ldr	r0, [r0, #28]
 8010bce:	4018      	ands	r0, r3
 8010bd0:	b280      	uxth	r0, r0
 8010bd2:	4770      	bx	lr

08010bd4 <USB_ReadDevOutEPInterrupt>:
 8010bd4:	eb00 1141 	add.w	r1, r0, r1, lsl #5
 8010bd8:	f500 6000 	add.w	r0, r0, #2048	; 0x800
 8010bdc:	f8d1 2b08 	ldr.w	r2, [r1, #2824]	; 0xb08
 8010be0:	6940      	ldr	r0, [r0, #20]
 8010be2:	4010      	ands	r0, r2
 8010be4:	4770      	bx	lr

08010be6 <USB_ReadDevInEPInterrupt>:
 8010be6:	b510      	push	{r4, lr}
 8010be8:	f8d0 4810 	ldr.w	r4, [r0, #2064]	; 0x810
 8010bec:	f8d0 3834 	ldr.w	r3, [r0, #2100]	; 0x834
 8010bf0:	eb00 1041 	add.w	r0, r0, r1, lsl #5
 8010bf4:	f001 010f 	and.w	r1, r1, #15
 8010bf8:	40cb      	lsrs	r3, r1
 8010bfa:	f500 6010 	add.w	r0, r0, #2304	; 0x900
 8010bfe:	01db      	lsls	r3, r3, #7
 8010c00:	6880      	ldr	r0, [r0, #8]
 8010c02:	b2db      	uxtb	r3, r3
 8010c04:	4323      	orrs	r3, r4
 8010c06:	4018      	ands	r0, r3
 8010c08:	bd10      	pop	{r4, pc}

08010c0a <USB_GetMode>:
 8010c0a:	6940      	ldr	r0, [r0, #20]
 8010c0c:	f000 0001 	and.w	r0, r0, #1
 8010c10:	4770      	bx	lr

08010c12 <USB_ActivateSetup>:
 8010c12:	f8d0 3900 	ldr.w	r3, [r0, #2304]	; 0x900
 8010c16:	f423 63ff 	bic.w	r3, r3, #2040	; 0x7f8
 8010c1a:	f023 0307 	bic.w	r3, r3, #7
 8010c1e:	f8c0 3900 	str.w	r3, [r0, #2304]	; 0x900
 8010c22:	f8d0 3804 	ldr.w	r3, [r0, #2052]	; 0x804
 8010c26:	f443 7380 	orr.w	r3, r3, #256	; 0x100
 8010c2a:	f8c0 3804 	str.w	r3, [r0, #2052]	; 0x804
 8010c2e:	2000      	movs	r0, #0
 8010c30:	4770      	bx	lr
	...

08010c34 <USB_EP0_OutStart>:
 8010c34:	b530      	push	{r4, r5, lr}
 8010c36:	6c05      	ldr	r5, [r0, #64]	; 0x40
 8010c38:	4c10      	ldr	r4, [pc, #64]	; (8010c7c <USB_EP0_OutStart+0x48>)
 8010c3a:	42a5      	cmp	r5, r4
 8010c3c:	f500 6330 	add.w	r3, r0, #2816	; 0xb00
 8010c40:	d903      	bls.n	8010c4a <USB_EP0_OutStart+0x16>
 8010c42:	f8d0 4b00 	ldr.w	r4, [r0, #2816]	; 0xb00
 8010c46:	2c00      	cmp	r4, #0
 8010c48:	db16      	blt.n	8010c78 <USB_EP0_OutStart+0x44>
 8010c4a:	2400      	movs	r4, #0
 8010c4c:	611c      	str	r4, [r3, #16]
 8010c4e:	691c      	ldr	r4, [r3, #16]
 8010c50:	f444 2400 	orr.w	r4, r4, #524288	; 0x80000
 8010c54:	611c      	str	r4, [r3, #16]
 8010c56:	691c      	ldr	r4, [r3, #16]
 8010c58:	f044 0418 	orr.w	r4, r4, #24
 8010c5c:	611c      	str	r4, [r3, #16]
 8010c5e:	691c      	ldr	r4, [r3, #16]
 8010c60:	2901      	cmp	r1, #1
 8010c62:	f044 44c0 	orr.w	r4, r4, #1610612736	; 0x60000000
 8010c66:	611c      	str	r4, [r3, #16]
 8010c68:	bf01      	itttt	eq
 8010c6a:	615a      	streq	r2, [r3, #20]
 8010c6c:	f8d0 3b00 	ldreq.w	r3, [r0, #2816]	; 0xb00
 8010c70:	f043 2380 	orreq.w	r3, r3, #2147516416	; 0x80008000
 8010c74:	f8c0 3b00 	streq.w	r3, [r0, #2816]	; 0xb00
 8010c78:	2000      	movs	r0, #0
 8010c7a:	bd30      	pop	{r4, r5, pc}
 8010c7c:	4f54300a 	.word	0x4f54300a

08010c80 <USBD_CDC_EP0_RxReady>:
 8010c80:	f8d0 32d4 	ldr.w	r3, [r0, #724]	; 0x2d4
 8010c84:	eb00 0083 	add.w	r0, r0, r3, lsl #2
 8010c88:	b510      	push	{r4, lr}
 8010c8a:	f8d0 42c0 	ldr.w	r4, [r0, #704]	; 0x2c0
 8010c8e:	b184      	cbz	r4, 8010cb2 <USBD_CDC_EP0_RxReady+0x32>
 8010c90:	f8d0 32c4 	ldr.w	r3, [r0, #708]	; 0x2c4
 8010c94:	b15b      	cbz	r3, 8010cae <USBD_CDC_EP0_RxReady+0x2e>
 8010c96:	f894 0200 	ldrb.w	r0, [r4, #512]	; 0x200
 8010c9a:	28ff      	cmp	r0, #255	; 0xff
 8010c9c:	d007      	beq.n	8010cae <USBD_CDC_EP0_RxReady+0x2e>
 8010c9e:	689b      	ldr	r3, [r3, #8]
 8010ca0:	f894 2201 	ldrb.w	r2, [r4, #513]	; 0x201
 8010ca4:	4621      	mov	r1, r4
 8010ca6:	4798      	blx	r3
 8010ca8:	23ff      	movs	r3, #255	; 0xff
 8010caa:	f884 3200 	strb.w	r3, [r4, #512]	; 0x200
 8010cae:	2000      	movs	r0, #0
 8010cb0:	e000      	b.n	8010cb4 <USBD_CDC_EP0_RxReady+0x34>
 8010cb2:	2003      	movs	r0, #3
 8010cb4:	bd10      	pop	{r4, pc}
	...

08010cb8 <USBD_CDC_GetDeviceQualifierDescriptor>:
 8010cb8:	230a      	movs	r3, #10
 8010cba:	8003      	strh	r3, [r0, #0]
 8010cbc:	4800      	ldr	r0, [pc, #0]	; (8010cc0 <USBD_CDC_GetDeviceQualifierDescriptor+0x8>)
 8010cbe:	4770      	bx	lr
 8010cc0:	20000088 	.word	0x20000088

08010cc4 <USBD_CDC_GetFSCfgDesc>:
 8010cc4:	b570      	push	{r4, r5, r6, lr}
 8010cc6:	2182      	movs	r1, #130	; 0x82
 8010cc8:	4606      	mov	r6, r0
 8010cca:	480f      	ldr	r0, [pc, #60]	; (8010d08 <USBD_CDC_GetFSCfgDesc+0x44>)
 8010ccc:	f000 fb94 	bl	80113f8 <USBD_GetEpDesc>
 8010cd0:	2101      	movs	r1, #1
 8010cd2:	4605      	mov	r5, r0
 8010cd4:	480c      	ldr	r0, [pc, #48]	; (8010d08 <USBD_CDC_GetFSCfgDesc+0x44>)
 8010cd6:	f000 fb8f 	bl	80113f8 <USBD_GetEpDesc>
 8010cda:	2181      	movs	r1, #129	; 0x81
 8010cdc:	4604      	mov	r4, r0
 8010cde:	480a      	ldr	r0, [pc, #40]	; (8010d08 <USBD_CDC_GetFSCfgDesc+0x44>)
 8010ce0:	f000 fb8a 	bl	80113f8 <USBD_GetEpDesc>
 8010ce4:	b10d      	cbz	r5, 8010cea <USBD_CDC_GetFSCfgDesc+0x26>
 8010ce6:	2210      	movs	r2, #16
 8010ce8:	71aa      	strb	r2, [r5, #6]
 8010cea:	b11c      	cbz	r4, 8010cf4 <USBD_CDC_GetFSCfgDesc+0x30>
 8010cec:	2240      	movs	r2, #64	; 0x40
 8010cee:	7122      	strb	r2, [r4, #4]
 8010cf0:	2200      	movs	r2, #0
 8010cf2:	7162      	strb	r2, [r4, #5]
 8010cf4:	b118      	cbz	r0, 8010cfe <USBD_CDC_GetFSCfgDesc+0x3a>
 8010cf6:	2240      	movs	r2, #64	; 0x40
 8010cf8:	7102      	strb	r2, [r0, #4]
 8010cfa:	2200      	movs	r2, #0
 8010cfc:	7142      	strb	r2, [r0, #5]
 8010cfe:	2343      	movs	r3, #67	; 0x43
 8010d00:	4801      	ldr	r0, [pc, #4]	; (8010d08 <USBD_CDC_GetFSCfgDesc+0x44>)
 8010d02:	8033      	strh	r3, [r6, #0]
 8010d04:	bd70      	pop	{r4, r5, r6, pc}
 8010d06:	bf00      	nop
 8010d08:	20000044 	.word	0x20000044

08010d0c <USBD_CDC_GetOtherSpeedCfgDesc>:
 8010d0c:	f7ff bfda 	b.w	8010cc4 <USBD_CDC_GetFSCfgDesc>

08010d10 <USBD_CDC_GetHSCfgDesc>:
 8010d10:	b570      	push	{r4, r5, r6, lr}
 8010d12:	2182      	movs	r1, #130	; 0x82
 8010d14:	4606      	mov	r6, r0
 8010d16:	480f      	ldr	r0, [pc, #60]	; (8010d54 <USBD_CDC_GetHSCfgDesc+0x44>)
 8010d18:	f000 fb6e 	bl	80113f8 <USBD_GetEpDesc>
 8010d1c:	2101      	movs	r1, #1
 8010d1e:	4605      	mov	r5, r0
 8010d20:	480c      	ldr	r0, [pc, #48]	; (8010d54 <USBD_CDC_GetHSCfgDesc+0x44>)
 8010d22:	f000 fb69 	bl	80113f8 <USBD_GetEpDesc>
 8010d26:	2181      	movs	r1, #129	; 0x81
 8010d28:	4604      	mov	r4, r0
 8010d2a:	480a      	ldr	r0, [pc, #40]	; (8010d54 <USBD_CDC_GetHSCfgDesc+0x44>)
 8010d2c:	f000 fb64 	bl	80113f8 <USBD_GetEpDesc>
 8010d30:	b10d      	cbz	r5, 8010d36 <USBD_CDC_GetHSCfgDesc+0x26>
 8010d32:	2210      	movs	r2, #16
 8010d34:	71aa      	strb	r2, [r5, #6]
 8010d36:	b11c      	cbz	r4, 8010d40 <USBD_CDC_GetHSCfgDesc+0x30>
 8010d38:	2200      	movs	r2, #0
 8010d3a:	7122      	strb	r2, [r4, #4]
 8010d3c:	2202      	movs	r2, #2
 8010d3e:	7162      	strb	r2, [r4, #5]
 8010d40:	b118      	cbz	r0, 8010d4a <USBD_CDC_GetHSCfgDesc+0x3a>
 8010d42:	2200      	movs	r2, #0
 8010d44:	7102      	strb	r2, [r0, #4]
 8010d46:	2202      	movs	r2, #2
 8010d48:	7142      	strb	r2, [r0, #5]
 8010d4a:	2343      	movs	r3, #67	; 0x43
 8010d4c:	4801      	ldr	r0, [pc, #4]	; (8010d54 <USBD_CDC_GetHSCfgDesc+0x44>)
 8010d4e:	8033      	strh	r3, [r6, #0]
 8010d50:	bd70      	pop	{r4, r5, r6, pc}
 8010d52:	bf00      	nop
 8010d54:	20000044 	.word	0x20000044

08010d58 <USBD_CDC_DataOut>:
 8010d58:	b538      	push	{r3, r4, r5, lr}
 8010d5a:	f8d0 32d4 	ldr.w	r3, [r0, #724]	; 0x2d4
 8010d5e:	33b0      	adds	r3, #176	; 0xb0
 8010d60:	4604      	mov	r4, r0
 8010d62:	f850 5023 	ldr.w	r5, [r0, r3, lsl #2]
 8010d66:	b18d      	cbz	r5, 8010d8c <USBD_CDC_DataOut+0x34>
 8010d68:	f003 f905 	bl	8013f76 <USBD_LL_GetRxDataSize>
 8010d6c:	f8c5 020c 	str.w	r0, [r5, #524]	; 0x20c
 8010d70:	f8d4 02d4 	ldr.w	r0, [r4, #724]	; 0x2d4
 8010d74:	eb04 0480 	add.w	r4, r4, r0, lsl #2
 8010d78:	f505 7103 	add.w	r1, r5, #524	; 0x20c
 8010d7c:	f8d4 32c4 	ldr.w	r3, [r4, #708]	; 0x2c4
 8010d80:	f8d5 0204 	ldr.w	r0, [r5, #516]	; 0x204
 8010d84:	68db      	ldr	r3, [r3, #12]
 8010d86:	4798      	blx	r3
 8010d88:	2000      	movs	r0, #0
 8010d8a:	bd38      	pop	{r3, r4, r5, pc}
 8010d8c:	2003      	movs	r0, #3
 8010d8e:	e7fc      	b.n	8010d8a <USBD_CDC_DataOut+0x32>

08010d90 <USBD_CDC_DataIn>:
 8010d90:	b5f8      	push	{r3, r4, r5, r6, r7, lr}
 8010d92:	f8d0 62d4 	ldr.w	r6, [r0, #724]	; 0x2d4
 8010d96:	eb00 0686 	add.w	r6, r0, r6, lsl #2
 8010d9a:	460a      	mov	r2, r1
 8010d9c:	f8d6 52c0 	ldr.w	r5, [r6, #704]	; 0x2c0
 8010da0:	b345      	cbz	r5, 8010df4 <USBD_CDC_DataIn+0x64>
 8010da2:	f001 0c0f 	and.w	ip, r1, #15
 8010da6:	2714      	movs	r7, #20
 8010da8:	fb07 070c 	mla	r7, r7, ip, r0
 8010dac:	69bc      	ldr	r4, [r7, #24]
 8010dae:	b194      	cbz	r4, 8010dd6 <USBD_CDC_DataIn+0x46>
 8010db0:	f8d0 32c8 	ldr.w	r3, [r0, #712]	; 0x2c8
 8010db4:	f04f 0e24 	mov.w	lr, #36	; 0x24
 8010db8:	fb0e 330c 	mla	r3, lr, ip, r3
 8010dbc:	6c9b      	ldr	r3, [r3, #72]	; 0x48
 8010dbe:	fbb4 fcf3 	udiv	ip, r4, r3
 8010dc2:	fb03 441c 	mls	r4, r3, ip, r4
 8010dc6:	b934      	cbnz	r4, 8010dd6 <USBD_CDC_DataIn+0x46>
 8010dc8:	61bc      	str	r4, [r7, #24]
 8010dca:	4623      	mov	r3, r4
 8010dcc:	4622      	mov	r2, r4
 8010dce:	f003 f91e 	bl	801400e <USBD_LL_Transmit>
 8010dd2:	4620      	mov	r0, r4
 8010dd4:	e00d      	b.n	8010df2 <USBD_CDC_DataIn+0x62>
 8010dd6:	f8d6 32c4 	ldr.w	r3, [r6, #708]	; 0x2c4
 8010dda:	691c      	ldr	r4, [r3, #16]
 8010ddc:	2700      	movs	r7, #0
 8010dde:	f8c5 7214 	str.w	r7, [r5, #532]	; 0x214
 8010de2:	2c00      	cmp	r4, #0
 8010de4:	d0f5      	beq.n	8010dd2 <USBD_CDC_DataIn+0x42>
 8010de6:	f8d5 0208 	ldr.w	r0, [r5, #520]	; 0x208
 8010dea:	f505 7104 	add.w	r1, r5, #528	; 0x210
 8010dee:	47a0      	blx	r4
 8010df0:	4638      	mov	r0, r7
 8010df2:	bdf8      	pop	{r3, r4, r5, r6, r7, pc}
 8010df4:	2003      	movs	r0, #3
 8010df6:	e7fc      	b.n	8010df2 <USBD_CDC_DataIn+0x62>

08010df8 <USBD_CDC_Setup>:
 8010df8:	f8d0 32d4 	ldr.w	r3, [r0, #724]	; 0x2d4
 8010dfc:	e92d 41f3 	stmdb	sp!, {r0, r1, r4, r5, r6, r7, r8, lr}
 8010e00:	eb00 0383 	add.w	r3, r0, r3, lsl #2
 8010e04:	f04f 0800 	mov.w	r8, #0
 8010e08:	f8d3 72c0 	ldr.w	r7, [r3, #704]	; 0x2c0
 8010e0c:	f88d 8005 	strb.w	r8, [sp, #5]
 8010e10:	4605      	mov	r5, r0
 8010e12:	460e      	mov	r6, r1
 8010e14:	f8ad 8006 	strh.w	r8, [sp, #6]
 8010e18:	2f00      	cmp	r7, #0
 8010e1a:	d06e      	beq.n	8010efa <USBD_CDC_Setup+0x102>
 8010e1c:	780a      	ldrb	r2, [r1, #0]
 8010e1e:	f012 0460 	ands.w	r4, r2, #96	; 0x60
 8010e22:	d02e      	beq.n	8010e82 <USBD_CDC_Setup+0x8a>
 8010e24:	2c20      	cmp	r4, #32
 8010e26:	d164      	bne.n	8010ef2 <USBD_CDC_Setup+0xfa>
 8010e28:	88cc      	ldrh	r4, [r1, #6]
 8010e2a:	f891 c001 	ldrb.w	ip, [r1, #1]
 8010e2e:	b30c      	cbz	r4, 8010e74 <USBD_CDC_Setup+0x7c>
 8010e30:	0612      	lsls	r2, r2, #24
 8010e32:	d513      	bpl.n	8010e5c <USBD_CDC_Setup+0x64>
 8010e34:	f8d3 32c4 	ldr.w	r3, [r3, #708]	; 0x2c4
 8010e38:	4622      	mov	r2, r4
 8010e3a:	4639      	mov	r1, r7
 8010e3c:	689b      	ldr	r3, [r3, #8]
 8010e3e:	4660      	mov	r0, ip
 8010e40:	4798      	blx	r3
 8010e42:	88f2      	ldrh	r2, [r6, #6]
 8010e44:	2a07      	cmp	r2, #7
 8010e46:	bf28      	it	cs
 8010e48:	2207      	movcs	r2, #7
 8010e4a:	4639      	mov	r1, r7
 8010e4c:	4628      	mov	r0, r5
 8010e4e:	f000 fd46 	bl	80118de <USBD_CtlSendData>
 8010e52:	4644      	mov	r4, r8
 8010e54:	4620      	mov	r0, r4
 8010e56:	b002      	add	sp, #8
 8010e58:	e8bd 81f0 	ldmia.w	sp!, {r4, r5, r6, r7, r8, pc}
 8010e5c:	2c40      	cmp	r4, #64	; 0x40
 8010e5e:	bf28      	it	cs
 8010e60:	2440      	movcs	r4, #64	; 0x40
 8010e62:	f887 c200 	strb.w	ip, [r7, #512]	; 0x200
 8010e66:	f887 4201 	strb.w	r4, [r7, #513]	; 0x201
 8010e6a:	4622      	mov	r2, r4
 8010e6c:	4639      	mov	r1, r7
 8010e6e:	f000 fd4b 	bl	8011908 <USBD_CtlPrepareRx>
 8010e72:	e7ee      	b.n	8010e52 <USBD_CDC_Setup+0x5a>
 8010e74:	f8d3 32c4 	ldr.w	r3, [r3, #708]	; 0x2c4
 8010e78:	4622      	mov	r2, r4
 8010e7a:	689b      	ldr	r3, [r3, #8]
 8010e7c:	4660      	mov	r0, ip
 8010e7e:	4798      	blx	r3
 8010e80:	e7e8      	b.n	8010e54 <USBD_CDC_Setup+0x5c>
 8010e82:	784f      	ldrb	r7, [r1, #1]
 8010e84:	2f0b      	cmp	r7, #11
 8010e86:	d834      	bhi.n	8010ef2 <USBD_CDC_Setup+0xfa>
 8010e88:	a301      	add	r3, pc, #4	; (adr r3, 8010e90 <USBD_CDC_Setup+0x98>)
 8010e8a:	f853 f027 	ldr.w	pc, [r3, r7, lsl #2]
 8010e8e:	bf00      	nop
 8010e90:	08010ec1 	.word	0x08010ec1
 8010e94:	08010e55 	.word	0x08010e55
 8010e98:	08010ef3 	.word	0x08010ef3
 8010e9c:	08010ef3 	.word	0x08010ef3
 8010ea0:	08010ef3 	.word	0x08010ef3
 8010ea4:	08010ef3 	.word	0x08010ef3
 8010ea8:	08010ef3 	.word	0x08010ef3
 8010eac:	08010ef3 	.word	0x08010ef3
 8010eb0:	08010ef3 	.word	0x08010ef3
 8010eb4:	08010ef3 	.word	0x08010ef3
 8010eb8:	08010ed7 	.word	0x08010ed7
 8010ebc:	08010eeb 	.word	0x08010eeb
 8010ec0:	f890 329c 	ldrb.w	r3, [r0, #668]	; 0x29c
 8010ec4:	2b03      	cmp	r3, #3
 8010ec6:	d114      	bne.n	8010ef2 <USBD_CDC_Setup+0xfa>
 8010ec8:	2202      	movs	r2, #2
 8010eca:	f10d 0106 	add.w	r1, sp, #6
 8010ece:	f000 fd06 	bl	80118de <USBD_CtlSendData>
 8010ed2:	463c      	mov	r4, r7
 8010ed4:	e7be      	b.n	8010e54 <USBD_CDC_Setup+0x5c>
 8010ed6:	f890 329c 	ldrb.w	r3, [r0, #668]	; 0x29c
 8010eda:	2b03      	cmp	r3, #3
 8010edc:	d109      	bne.n	8010ef2 <USBD_CDC_Setup+0xfa>
 8010ede:	2201      	movs	r2, #1
 8010ee0:	f10d 0105 	add.w	r1, sp, #5
 8010ee4:	f000 fcfb 	bl	80118de <USBD_CtlSendData>
 8010ee8:	e7b4      	b.n	8010e54 <USBD_CDC_Setup+0x5c>
 8010eea:	f890 329c 	ldrb.w	r3, [r0, #668]	; 0x29c
 8010eee:	2b03      	cmp	r3, #3
 8010ef0:	d0b0      	beq.n	8010e54 <USBD_CDC_Setup+0x5c>
 8010ef2:	4631      	mov	r1, r6
 8010ef4:	4628      	mov	r0, r5
 8010ef6:	f000 fccb 	bl	8011890 <USBD_CtlError>
 8010efa:	2403      	movs	r4, #3
 8010efc:	e7aa      	b.n	8010e54 <USBD_CDC_Setup+0x5c>
 8010efe:	bf00      	nop

08010f00 <USBD_CDC_DeInit>:
 8010f00:	b538      	push	{r3, r4, r5, lr}
 8010f02:	4604      	mov	r4, r0
 8010f04:	2500      	movs	r5, #0
 8010f06:	2181      	movs	r1, #129	; 0x81
 8010f08:	f003 f85d 	bl	8013fc6 <USBD_LL_CloseEP>
 8010f0c:	2101      	movs	r1, #1
 8010f0e:	8725      	strh	r5, [r4, #56]	; 0x38
 8010f10:	4620      	mov	r0, r4
 8010f12:	f003 f858 	bl	8013fc6 <USBD_LL_CloseEP>
 8010f16:	f8a4 5178 	strh.w	r5, [r4, #376]	; 0x178
 8010f1a:	2182      	movs	r1, #130	; 0x82
 8010f1c:	4620      	mov	r0, r4
 8010f1e:	f003 f852 	bl	8013fc6 <USBD_LL_CloseEP>
 8010f22:	f8d4 32d4 	ldr.w	r3, [r4, #724]	; 0x2d4
 8010f26:	64e5      	str	r5, [r4, #76]	; 0x4c
 8010f28:	eb04 0383 	add.w	r3, r4, r3, lsl #2
 8010f2c:	f8d3 22c0 	ldr.w	r2, [r3, #704]	; 0x2c0
 8010f30:	b18a      	cbz	r2, 8010f56 <USBD_CDC_DeInit+0x56>
 8010f32:	f8d3 32c4 	ldr.w	r3, [r3, #708]	; 0x2c4
 8010f36:	685b      	ldr	r3, [r3, #4]
 8010f38:	4798      	blx	r3
 8010f3a:	f8d4 32d4 	ldr.w	r3, [r4, #724]	; 0x2d4
 8010f3e:	33b0      	adds	r3, #176	; 0xb0
 8010f40:	f854 0023 	ldr.w	r0, [r4, r3, lsl #2]
 8010f44:	f003 f820 	bl	8013f88 <USBD_static_free>
 8010f48:	f8d4 32d4 	ldr.w	r3, [r4, #724]	; 0x2d4
 8010f4c:	33b0      	adds	r3, #176	; 0xb0
 8010f4e:	f844 5023 	str.w	r5, [r4, r3, lsl #2]
 8010f52:	f8c4 52bc 	str.w	r5, [r4, #700]	; 0x2bc
 8010f56:	2000      	movs	r0, #0
 8010f58:	bd38      	pop	{r3, r4, r5, pc}

08010f5a <USBD_CDC_Init>:
 8010f5a:	b570      	push	{r4, r5, r6, lr}
 8010f5c:	4604      	mov	r4, r0
 8010f5e:	f44f 7007 	mov.w	r0, #540	; 0x21c
 8010f62:	f003 f80d 	bl	8013f80 <USBD_static_malloc>
 8010f66:	4605      	mov	r5, r0
 8010f68:	b930      	cbnz	r0, 8010f78 <USBD_CDC_Init+0x1e>
 8010f6a:	f8d4 32d4 	ldr.w	r3, [r4, #724]	; 0x2d4
 8010f6e:	33b0      	adds	r3, #176	; 0xb0
 8010f70:	f844 0023 	str.w	r0, [r4, r3, lsl #2]
 8010f74:	2502      	movs	r5, #2
 8010f76:	e047      	b.n	8011008 <USBD_CDC_Init+0xae>
 8010f78:	f44f 7207 	mov.w	r2, #540	; 0x21c
 8010f7c:	2100      	movs	r1, #0
 8010f7e:	f004 facb 	bl	8015518 <memset>
 8010f82:	f8d4 32d4 	ldr.w	r3, [r4, #724]	; 0x2d4
 8010f86:	33b0      	adds	r3, #176	; 0xb0
 8010f88:	f844 5023 	str.w	r5, [r4, r3, lsl #2]
 8010f8c:	7c23      	ldrb	r3, [r4, #16]
 8010f8e:	f8c4 52bc 	str.w	r5, [r4, #700]	; 0x2bc
 8010f92:	2b00      	cmp	r3, #0
 8010f94:	d13a      	bne.n	801100c <USBD_CDC_Init+0xb2>
 8010f96:	f44f 7300 	mov.w	r3, #512	; 0x200
 8010f9a:	2202      	movs	r2, #2
 8010f9c:	2181      	movs	r1, #129	; 0x81
 8010f9e:	4620      	mov	r0, r4
 8010fa0:	2601      	movs	r6, #1
 8010fa2:	f003 f804 	bl	8013fae <USBD_LL_OpenEP>
 8010fa6:	8726      	strh	r6, [r4, #56]	; 0x38
 8010fa8:	f44f 7300 	mov.w	r3, #512	; 0x200
 8010fac:	4631      	mov	r1, r6
 8010fae:	2202      	movs	r2, #2
 8010fb0:	4620      	mov	r0, r4
 8010fb2:	f002 fffc 	bl	8013fae <USBD_LL_OpenEP>
 8010fb6:	2310      	movs	r3, #16
 8010fb8:	2203      	movs	r2, #3
 8010fba:	f8a4 6178 	strh.w	r6, [r4, #376]	; 0x178
 8010fbe:	f8a4 304e 	strh.w	r3, [r4, #78]	; 0x4e
 8010fc2:	2182      	movs	r1, #130	; 0x82
 8010fc4:	2308      	movs	r3, #8
 8010fc6:	4620      	mov	r0, r4
 8010fc8:	f002 fff1 	bl	8013fae <USBD_LL_OpenEP>
 8010fcc:	f8d4 32d4 	ldr.w	r3, [r4, #724]	; 0x2d4
 8010fd0:	eb04 0383 	add.w	r3, r4, r3, lsl #2
 8010fd4:	2600      	movs	r6, #0
 8010fd6:	f8d3 32c4 	ldr.w	r3, [r3, #708]	; 0x2c4
 8010fda:	2101      	movs	r1, #1
 8010fdc:	f8a4 104c 	strh.w	r1, [r4, #76]	; 0x4c
 8010fe0:	681b      	ldr	r3, [r3, #0]
 8010fe2:	f8c5 6204 	str.w	r6, [r5, #516]	; 0x204
 8010fe6:	4798      	blx	r3
 8010fe8:	f8d5 2204 	ldr.w	r2, [r5, #516]	; 0x204
 8010fec:	f8c5 6214 	str.w	r6, [r5, #532]	; 0x214
 8010ff0:	f8c5 6218 	str.w	r6, [r5, #536]	; 0x218
 8010ff4:	2a00      	cmp	r2, #0
 8010ff6:	d0bd      	beq.n	8010f74 <USBD_CDC_Init+0x1a>
 8010ff8:	7c25      	ldrb	r5, [r4, #16]
 8010ffa:	2101      	movs	r1, #1
 8010ffc:	b985      	cbnz	r5, 8011020 <USBD_CDC_Init+0xc6>
 8010ffe:	f44f 7300 	mov.w	r3, #512	; 0x200
 8011002:	4620      	mov	r0, r4
 8011004:	f003 f80c 	bl	8014020 <USBD_LL_PrepareReceive>
 8011008:	4628      	mov	r0, r5
 801100a:	bd70      	pop	{r4, r5, r6, pc}
 801100c:	2340      	movs	r3, #64	; 0x40
 801100e:	2202      	movs	r2, #2
 8011010:	2181      	movs	r1, #129	; 0x81
 8011012:	4620      	mov	r0, r4
 8011014:	2601      	movs	r6, #1
 8011016:	f002 ffca 	bl	8013fae <USBD_LL_OpenEP>
 801101a:	8726      	strh	r6, [r4, #56]	; 0x38
 801101c:	2340      	movs	r3, #64	; 0x40
 801101e:	e7c5      	b.n	8010fac <USBD_CDC_Init+0x52>
 8011020:	2340      	movs	r3, #64	; 0x40
 8011022:	4620      	mov	r0, r4
 8011024:	f002 fffc 	bl	8014020 <USBD_LL_PrepareReceive>
 8011028:	4635      	mov	r5, r6
 801102a:	e7ed      	b.n	8011008 <USBD_CDC_Init+0xae>

0801102c <USBD_CDC_RegisterInterface>:
 801102c:	b139      	cbz	r1, 801103e <USBD_CDC_RegisterInterface+0x12>
 801102e:	f8d0 32d4 	ldr.w	r3, [r0, #724]	; 0x2d4
 8011032:	eb00 0083 	add.w	r0, r0, r3, lsl #2
 8011036:	f8c0 12c4 	str.w	r1, [r0, #708]	; 0x2c4
 801103a:	2000      	movs	r0, #0
 801103c:	4770      	bx	lr
 801103e:	2003      	movs	r0, #3
 8011040:	4770      	bx	lr

08011042 <USBD_CDC_SetTxBuffer>:
 8011042:	f8d0 32d4 	ldr.w	r3, [r0, #724]	; 0x2d4
 8011046:	33b0      	adds	r3, #176	; 0xb0
 8011048:	f850 3023 	ldr.w	r3, [r0, r3, lsl #2]
 801104c:	b12b      	cbz	r3, 801105a <USBD_CDC_SetTxBuffer+0x18>
 801104e:	f8c3 1208 	str.w	r1, [r3, #520]	; 0x208
 8011052:	f8c3 2210 	str.w	r2, [r3, #528]	; 0x210
 8011056:	2000      	movs	r0, #0
 8011058:	4770      	bx	lr
 801105a:	2003      	movs	r0, #3
 801105c:	4770      	bx	lr

0801105e <USBD_CDC_SetRxBuffer>:
 801105e:	f8d0 32d4 	ldr.w	r3, [r0, #724]	; 0x2d4
 8011062:	33b0      	adds	r3, #176	; 0xb0
 8011064:	f850 3023 	ldr.w	r3, [r0, r3, lsl #2]
 8011068:	b11b      	cbz	r3, 8011072 <USBD_CDC_SetRxBuffer+0x14>
 801106a:	f8c3 1204 	str.w	r1, [r3, #516]	; 0x204
 801106e:	2000      	movs	r0, #0
 8011070:	4770      	bx	lr
 8011072:	2003      	movs	r0, #3
 8011074:	4770      	bx	lr

08011076 <USBD_CDC_TransmitPacket>:
 8011076:	f8d0 32d4 	ldr.w	r3, [r0, #724]	; 0x2d4
 801107a:	33b0      	adds	r3, #176	; 0xb0
 801107c:	b510      	push	{r4, lr}
 801107e:	f850 2023 	ldr.w	r2, [r0, r3, lsl #2]
 8011082:	b17a      	cbz	r2, 80110a4 <USBD_CDC_TransmitPacket+0x2e>
 8011084:	f8d2 4214 	ldr.w	r4, [r2, #532]	; 0x214
 8011088:	2301      	movs	r3, #1
 801108a:	b96c      	cbnz	r4, 80110a8 <USBD_CDC_TransmitPacket+0x32>
 801108c:	f8c2 3214 	str.w	r3, [r2, #532]	; 0x214
 8011090:	f8d2 3210 	ldr.w	r3, [r2, #528]	; 0x210
 8011094:	62c3      	str	r3, [r0, #44]	; 0x2c
 8011096:	f8d2 2208 	ldr.w	r2, [r2, #520]	; 0x208
 801109a:	2181      	movs	r1, #129	; 0x81
 801109c:	f002 ffb7 	bl	801400e <USBD_LL_Transmit>
 80110a0:	4620      	mov	r0, r4
 80110a2:	bd10      	pop	{r4, pc}
 80110a4:	2003      	movs	r0, #3
 80110a6:	e7fc      	b.n	80110a2 <USBD_CDC_TransmitPacket+0x2c>
 80110a8:	4618      	mov	r0, r3
 80110aa:	e7fa      	b.n	80110a2 <USBD_CDC_TransmitPacket+0x2c>

080110ac <USBD_CDC_ReceivePacket>:
 80110ac:	f8d0 22d4 	ldr.w	r2, [r0, #724]	; 0x2d4
 80110b0:	32b0      	adds	r2, #176	; 0xb0
 80110b2:	b510      	push	{r4, lr}
 80110b4:	f850 2022 	ldr.w	r2, [r0, r2, lsl #2]
 80110b8:	b182      	cbz	r2, 80110dc <USBD_CDC_ReceivePacket+0x30>
 80110ba:	7c04      	ldrb	r4, [r0, #16]
 80110bc:	f8d2 2204 	ldr.w	r2, [r2, #516]	; 0x204
 80110c0:	b934      	cbnz	r4, 80110d0 <USBD_CDC_ReceivePacket+0x24>
 80110c2:	f44f 7300 	mov.w	r3, #512	; 0x200
 80110c6:	2101      	movs	r1, #1
 80110c8:	f002 ffaa 	bl	8014020 <USBD_LL_PrepareReceive>
 80110cc:	4620      	mov	r0, r4
 80110ce:	bd10      	pop	{r4, pc}
 80110d0:	2340      	movs	r3, #64	; 0x40
 80110d2:	2101      	movs	r1, #1
 80110d4:	f002 ffa4 	bl	8014020 <USBD_LL_PrepareReceive>
 80110d8:	2400      	movs	r4, #0
 80110da:	e7f7      	b.n	80110cc <USBD_CDC_ReceivePacket+0x20>
 80110dc:	2403      	movs	r4, #3
 80110de:	e7f5      	b.n	80110cc <USBD_CDC_ReceivePacket+0x20>

080110e0 <USBD_Init>:
 80110e0:	b178      	cbz	r0, 8011102 <USBD_Init+0x22>
 80110e2:	2300      	movs	r3, #0
 80110e4:	f8c0 32b8 	str.w	r3, [r0, #696]	; 0x2b8
 80110e8:	f8c0 32c4 	str.w	r3, [r0, #708]	; 0x2c4
 80110ec:	f8c0 32d0 	str.w	r3, [r0, #720]	; 0x2d0
 80110f0:	b109      	cbz	r1, 80110f6 <USBD_Init+0x16>
 80110f2:	f8c0 12b4 	str.w	r1, [r0, #692]	; 0x2b4
 80110f6:	2301      	movs	r3, #1
 80110f8:	f880 329c 	strb.w	r3, [r0, #668]	; 0x29c
 80110fc:	7002      	strb	r2, [r0, #0]
 80110fe:	f002 bef9 	b.w	8013ef4 <USBD_LL_Init>
 8011102:	2003      	movs	r0, #3
 8011104:	4770      	bx	lr

08011106 <USBD_RegisterClass>:
 8011106:	b513      	push	{r0, r1, r4, lr}
 8011108:	2300      	movs	r3, #0
 801110a:	4604      	mov	r4, r0
 801110c:	f8ad 3006 	strh.w	r3, [sp, #6]
 8011110:	b181      	cbz	r1, 8011134 <USBD_RegisterClass+0x2e>
 8011112:	6acb      	ldr	r3, [r1, #44]	; 0x2c
 8011114:	f8c0 12b8 	str.w	r1, [r0, #696]	; 0x2b8
 8011118:	b123      	cbz	r3, 8011124 <USBD_RegisterClass+0x1e>
 801111a:	f10d 0006 	add.w	r0, sp, #6
 801111e:	4798      	blx	r3
 8011120:	f8c4 02d0 	str.w	r0, [r4, #720]	; 0x2d0
 8011124:	f8d4 32d8 	ldr.w	r3, [r4, #728]	; 0x2d8
 8011128:	3301      	adds	r3, #1
 801112a:	f8c4 32d8 	str.w	r3, [r4, #728]	; 0x2d8
 801112e:	2000      	movs	r0, #0
 8011130:	b002      	add	sp, #8
 8011132:	bd10      	pop	{r4, pc}
 8011134:	2003      	movs	r0, #3
 8011136:	e7fb      	b.n	8011130 <USBD_RegisterClass+0x2a>

08011138 <USBD_Start>:
 8011138:	f002 bf30 	b.w	8013f9c <USBD_LL_Start>

0801113c <USBD_SetClassConfig>:
 801113c:	f8d0 32b8 	ldr.w	r3, [r0, #696]	; 0x2b8
 8011140:	b10b      	cbz	r3, 8011146 <USBD_SetClassConfig+0xa>
 8011142:	681b      	ldr	r3, [r3, #0]
 8011144:	4718      	bx	r3
 8011146:	4618      	mov	r0, r3
 8011148:	4770      	bx	lr

0801114a <USBD_ClrClassConfig>:
 801114a:	b508      	push	{r3, lr}
 801114c:	f8d0 32b8 	ldr.w	r3, [r0, #696]	; 0x2b8
 8011150:	685b      	ldr	r3, [r3, #4]
 8011152:	4798      	blx	r3
 8011154:	2800      	cmp	r0, #0
 8011156:	bf18      	it	ne
 8011158:	2003      	movne	r0, #3
 801115a:	bd08      	pop	{r3, pc}

0801115c <USBD_LL_SetupStage>:
 801115c:	b538      	push	{r3, r4, r5, lr}
 801115e:	4604      	mov	r4, r0
 8011160:	f200 25aa 	addw	r5, r0, #682	; 0x2aa
 8011164:	4628      	mov	r0, r5
 8011166:	f000 fb88 	bl	801187a <USBD_ParseSetupRequest>
 801116a:	2301      	movs	r3, #1
 801116c:	f894 12aa 	ldrb.w	r1, [r4, #682]	; 0x2aa
 8011170:	f8c4 3294 	str.w	r3, [r4, #660]	; 0x294
 8011174:	f8b4 32b0 	ldrh.w	r3, [r4, #688]	; 0x2b0
 8011178:	f8c4 3298 	str.w	r3, [r4, #664]	; 0x298
 801117c:	f001 031f 	and.w	r3, r1, #31
 8011180:	2b01      	cmp	r3, #1
 8011182:	d008      	beq.n	8011196 <USBD_LL_SetupStage+0x3a>
 8011184:	2b02      	cmp	r3, #2
 8011186:	d00c      	beq.n	80111a2 <USBD_LL_SetupStage+0x46>
 8011188:	b98b      	cbnz	r3, 80111ae <USBD_LL_SetupStage+0x52>
 801118a:	4629      	mov	r1, r5
 801118c:	4620      	mov	r0, r4
 801118e:	e8bd 4038 	ldmia.w	sp!, {r3, r4, r5, lr}
 8011192:	f000 b94f 	b.w	8011434 <USBD_StdDevReq>
 8011196:	4629      	mov	r1, r5
 8011198:	4620      	mov	r0, r4
 801119a:	e8bd 4038 	ldmia.w	sp!, {r3, r4, r5, lr}
 801119e:	f000 ba9f 	b.w	80116e0 <USBD_StdItfReq>
 80111a2:	4629      	mov	r1, r5
 80111a4:	4620      	mov	r0, r4
 80111a6:	e8bd 4038 	ldmia.w	sp!, {r3, r4, r5, lr}
 80111aa:	f000 bac8 	b.w	801173e <USBD_StdEPReq>
 80111ae:	4620      	mov	r0, r4
 80111b0:	f001 0180 	and.w	r1, r1, #128	; 0x80
 80111b4:	e8bd 4038 	ldmia.w	sp!, {r3, r4, r5, lr}
 80111b8:	f002 bf0e 	b.w	8013fd8 <USBD_LL_StallEP>

080111bc <USBD_LL_DataOutStage>:
 80111bc:	b570      	push	{r4, r5, r6, lr}
 80111be:	4604      	mov	r4, r0
 80111c0:	4616      	mov	r6, r2
 80111c2:	bb09      	cbnz	r1, 8011208 <USBD_LL_DataOutStage+0x4c>
 80111c4:	f8d0 3294 	ldr.w	r3, [r0, #660]	; 0x294
 80111c8:	2b03      	cmp	r3, #3
 80111ca:	d10c      	bne.n	80111e6 <USBD_LL_DataOutStage+0x2a>
 80111cc:	e9d0 3257 	ldrd	r3, r2, [r0, #348]	; 0x15c
 80111d0:	4293      	cmp	r3, r2
 80111d2:	d90a      	bls.n	80111ea <USBD_LL_DataOutStage+0x2e>
 80111d4:	1a9b      	subs	r3, r3, r2
 80111d6:	429a      	cmp	r2, r3
 80111d8:	f8c0 315c 	str.w	r3, [r0, #348]	; 0x15c
 80111dc:	bf28      	it	cs
 80111de:	461a      	movcs	r2, r3
 80111e0:	4631      	mov	r1, r6
 80111e2:	f000 fb9e 	bl	8011922 <USBD_CtlContinueRx>
 80111e6:	2000      	movs	r0, #0
 80111e8:	bd70      	pop	{r4, r5, r6, pc}
 80111ea:	f890 329c 	ldrb.w	r3, [r0, #668]	; 0x29c
 80111ee:	2b03      	cmp	r3, #3
 80111f0:	d106      	bne.n	8011200 <USBD_LL_DataOutStage+0x44>
 80111f2:	f8d0 32b8 	ldr.w	r3, [r0, #696]	; 0x2b8
 80111f6:	691b      	ldr	r3, [r3, #16]
 80111f8:	b113      	cbz	r3, 8011200 <USBD_LL_DataOutStage+0x44>
 80111fa:	f8c0 12d4 	str.w	r1, [r0, #724]	; 0x2d4
 80111fe:	4798      	blx	r3
 8011200:	4620      	mov	r0, r4
 8011202:	f000 fb96 	bl	8011932 <USBD_CtlSendStatus>
 8011206:	e7ee      	b.n	80111e6 <USBD_LL_DataOutStage+0x2a>
 8011208:	f890 329c 	ldrb.w	r3, [r0, #668]	; 0x29c
 801120c:	2b03      	cmp	r3, #3
 801120e:	d1ea      	bne.n	80111e6 <USBD_LL_DataOutStage+0x2a>
 8011210:	f8d0 32b8 	ldr.w	r3, [r0, #696]	; 0x2b8
 8011214:	699b      	ldr	r3, [r3, #24]
 8011216:	2b00      	cmp	r3, #0
 8011218:	d0e5      	beq.n	80111e6 <USBD_LL_DataOutStage+0x2a>
 801121a:	2200      	movs	r2, #0
 801121c:	e8bd 4070 	ldmia.w	sp!, {r4, r5, r6, lr}
 8011220:	f8c0 22d4 	str.w	r2, [r0, #724]	; 0x2d4
 8011224:	4718      	bx	r3

08011226 <USBD_LL_DataInStage>:
 8011226:	b573      	push	{r0, r1, r4, r5, r6, lr}
 8011228:	4604      	mov	r4, r0
 801122a:	4616      	mov	r6, r2
 801122c:	2900      	cmp	r1, #0
 801122e:	d141      	bne.n	80112b4 <USBD_LL_DataInStage+0x8e>
 8011230:	f8d0 2294 	ldr.w	r2, [r0, #660]	; 0x294
 8011234:	2a02      	cmp	r2, #2
 8011236:	d10f      	bne.n	8011258 <USBD_LL_DataInStage+0x32>
 8011238:	e9d0 5207 	ldrd	r5, r2, [r0, #28]
 801123c:	4295      	cmp	r5, r2
 801123e:	d914      	bls.n	801126a <USBD_LL_DataInStage+0x44>
 8011240:	1aaa      	subs	r2, r5, r2
 8011242:	9101      	str	r1, [sp, #4]
 8011244:	61c2      	str	r2, [r0, #28]
 8011246:	4631      	mov	r1, r6
 8011248:	f000 fb56 	bl	80118f8 <USBD_CtlContinueSendData>
 801124c:	9b01      	ldr	r3, [sp, #4]
 801124e:	461a      	mov	r2, r3
 8011250:	4619      	mov	r1, r3
 8011252:	4620      	mov	r0, r4
 8011254:	f002 fee4 	bl	8014020 <USBD_LL_PrepareReceive>
 8011258:	f894 32a0 	ldrb.w	r3, [r4, #672]	; 0x2a0
 801125c:	b113      	cbz	r3, 8011264 <USBD_LL_DataInStage+0x3e>
 801125e:	2300      	movs	r3, #0
 8011260:	f884 32a0 	strb.w	r3, [r4, #672]	; 0x2a0
 8011264:	2000      	movs	r0, #0
 8011266:	b002      	add	sp, #8
 8011268:	bd70      	pop	{r4, r5, r6, pc}
 801126a:	d10e      	bne.n	801128a <USBD_LL_DataInStage+0x64>
 801126c:	6982      	ldr	r2, [r0, #24]
 801126e:	4295      	cmp	r5, r2
 8011270:	d80b      	bhi.n	801128a <USBD_LL_DataInStage+0x64>
 8011272:	f8d0 5298 	ldr.w	r5, [r0, #664]	; 0x298
 8011276:	42aa      	cmp	r2, r5
 8011278:	d207      	bcs.n	801128a <USBD_LL_DataInStage+0x64>
 801127a:	460a      	mov	r2, r1
 801127c:	9101      	str	r1, [sp, #4]
 801127e:	f000 fb3b 	bl	80118f8 <USBD_CtlContinueSendData>
 8011282:	9b01      	ldr	r3, [sp, #4]
 8011284:	f8c4 3298 	str.w	r3, [r4, #664]	; 0x298
 8011288:	e7e1      	b.n	801124e <USBD_LL_DataInStage+0x28>
 801128a:	f894 329c 	ldrb.w	r3, [r4, #668]	; 0x29c
 801128e:	2b03      	cmp	r3, #3
 8011290:	d108      	bne.n	80112a4 <USBD_LL_DataInStage+0x7e>
 8011292:	f8d4 32b8 	ldr.w	r3, [r4, #696]	; 0x2b8
 8011296:	68db      	ldr	r3, [r3, #12]
 8011298:	b123      	cbz	r3, 80112a4 <USBD_LL_DataInStage+0x7e>
 801129a:	2200      	movs	r2, #0
 801129c:	f8c4 22d4 	str.w	r2, [r4, #724]	; 0x2d4
 80112a0:	4620      	mov	r0, r4
 80112a2:	4798      	blx	r3
 80112a4:	2180      	movs	r1, #128	; 0x80
 80112a6:	4620      	mov	r0, r4
 80112a8:	f002 fe96 	bl	8013fd8 <USBD_LL_StallEP>
 80112ac:	4620      	mov	r0, r4
 80112ae:	f000 fb4b 	bl	8011948 <USBD_CtlReceiveStatus>
 80112b2:	e7d1      	b.n	8011258 <USBD_LL_DataInStage+0x32>
 80112b4:	f890 329c 	ldrb.w	r3, [r0, #668]	; 0x29c
 80112b8:	2b03      	cmp	r3, #3
 80112ba:	d1d3      	bne.n	8011264 <USBD_LL_DataInStage+0x3e>
 80112bc:	f8d0 32b8 	ldr.w	r3, [r0, #696]	; 0x2b8
 80112c0:	695b      	ldr	r3, [r3, #20]
 80112c2:	2b00      	cmp	r3, #0
 80112c4:	d0ce      	beq.n	8011264 <USBD_LL_DataInStage+0x3e>
 80112c6:	2200      	movs	r2, #0
 80112c8:	f8c0 22d4 	str.w	r2, [r0, #724]	; 0x2d4
 80112cc:	b002      	add	sp, #8
 80112ce:	e8bd 4070 	ldmia.w	sp!, {r4, r5, r6, lr}
 80112d2:	4718      	bx	r3

080112d4 <USBD_LL_Reset>:
 80112d4:	b5f8      	push	{r3, r4, r5, r6, r7, lr}
 80112d6:	2301      	movs	r3, #1
 80112d8:	f880 329c 	strb.w	r3, [r0, #668]	; 0x29c
 80112dc:	f8d0 32b8 	ldr.w	r3, [r0, #696]	; 0x2b8
 80112e0:	2100      	movs	r1, #0
 80112e2:	4604      	mov	r4, r0
 80112e4:	f8c0 1294 	str.w	r1, [r0, #660]	; 0x294
 80112e8:	6041      	str	r1, [r0, #4]
 80112ea:	f8c0 12a4 	str.w	r1, [r0, #676]	; 0x2a4
 80112ee:	f880 12a0 	strb.w	r1, [r0, #672]	; 0x2a0
 80112f2:	b9b3      	cbnz	r3, 8011322 <USBD_LL_Reset+0x4e>
 80112f4:	2600      	movs	r6, #0
 80112f6:	2200      	movs	r2, #0
 80112f8:	2540      	movs	r5, #64	; 0x40
 80112fa:	4611      	mov	r1, r2
 80112fc:	2701      	movs	r7, #1
 80112fe:	2340      	movs	r3, #64	; 0x40
 8011300:	4620      	mov	r0, r4
 8011302:	f002 fe54 	bl	8013fae <USBD_LL_OpenEP>
 8011306:	f8a4 7164 	strh.w	r7, [r4, #356]	; 0x164
 801130a:	f8c4 5160 	str.w	r5, [r4, #352]	; 0x160
 801130e:	462b      	mov	r3, r5
 8011310:	2200      	movs	r2, #0
 8011312:	2180      	movs	r1, #128	; 0x80
 8011314:	4620      	mov	r0, r4
 8011316:	f002 fe4a 	bl	8013fae <USBD_LL_OpenEP>
 801131a:	84a7      	strh	r7, [r4, #36]	; 0x24
 801131c:	6225      	str	r5, [r4, #32]
 801131e:	4630      	mov	r0, r6
 8011320:	bdf8      	pop	{r3, r4, r5, r6, r7, pc}
 8011322:	685b      	ldr	r3, [r3, #4]
 8011324:	2b00      	cmp	r3, #0
 8011326:	d0e5      	beq.n	80112f4 <USBD_LL_Reset+0x20>
 8011328:	4798      	blx	r3
 801132a:	2800      	cmp	r0, #0
 801132c:	d0e2      	beq.n	80112f4 <USBD_LL_Reset+0x20>
 801132e:	2603      	movs	r6, #3
 8011330:	e7e1      	b.n	80112f6 <USBD_LL_Reset+0x22>

08011332 <USBD_LL_SetSpeed>:
 8011332:	7401      	strb	r1, [r0, #16]
 8011334:	2000      	movs	r0, #0
 8011336:	4770      	bx	lr

08011338 <USBD_LL_Suspend>:
 8011338:	f890 329c 	ldrb.w	r3, [r0, #668]	; 0x29c
 801133c:	b2db      	uxtb	r3, r3
 801133e:	f880 329d 	strb.w	r3, [r0, #669]	; 0x29d
 8011342:	2304      	movs	r3, #4
 8011344:	f880 329c 	strb.w	r3, [r0, #668]	; 0x29c
 8011348:	2000      	movs	r0, #0
 801134a:	4770      	bx	lr

0801134c <USBD_LL_Resume>:
 801134c:	f890 329c 	ldrb.w	r3, [r0, #668]	; 0x29c
 8011350:	2b04      	cmp	r3, #4
 8011352:	bf02      	ittt	eq
 8011354:	f890 329d 	ldrbeq.w	r3, [r0, #669]	; 0x29d
 8011358:	b2db      	uxtbeq	r3, r3
 801135a:	f880 329c 	strbeq.w	r3, [r0, #668]	; 0x29c
 801135e:	2000      	movs	r0, #0
 8011360:	4770      	bx	lr

08011362 <USBD_LL_SOF>:
 8011362:	b508      	push	{r3, lr}
 8011364:	f890 229c 	ldrb.w	r2, [r0, #668]	; 0x29c
 8011368:	2a03      	cmp	r2, #3
 801136a:	d105      	bne.n	8011378 <USBD_LL_SOF+0x16>
 801136c:	f8d0 32b8 	ldr.w	r3, [r0, #696]	; 0x2b8
 8011370:	b113      	cbz	r3, 8011378 <USBD_LL_SOF+0x16>
 8011372:	69db      	ldr	r3, [r3, #28]
 8011374:	b103      	cbz	r3, 8011378 <USBD_LL_SOF+0x16>
 8011376:	4798      	blx	r3
 8011378:	2000      	movs	r0, #0
 801137a:	bd08      	pop	{r3, pc}

0801137c <USBD_LL_IsoINIncomplete>:
 801137c:	f8d0 22d4 	ldr.w	r2, [r0, #724]	; 0x2d4
 8011380:	32ae      	adds	r2, #174	; 0xae
 8011382:	b508      	push	{r3, lr}
 8011384:	f850 2022 	ldr.w	r2, [r0, r2, lsl #2]
 8011388:	b142      	cbz	r2, 801139c <USBD_LL_IsoINIncomplete+0x20>
 801138a:	f890 329c 	ldrb.w	r3, [r0, #668]	; 0x29c
 801138e:	2b03      	cmp	r3, #3
 8011390:	d102      	bne.n	8011398 <USBD_LL_IsoINIncomplete+0x1c>
 8011392:	6a13      	ldr	r3, [r2, #32]
 8011394:	b123      	cbz	r3, 80113a0 <USBD_LL_IsoINIncomplete+0x24>
 8011396:	4798      	blx	r3
 8011398:	2000      	movs	r0, #0
 801139a:	e000      	b.n	801139e <USBD_LL_IsoINIncomplete+0x22>
 801139c:	2003      	movs	r0, #3
 801139e:	bd08      	pop	{r3, pc}
 80113a0:	4618      	mov	r0, r3
 80113a2:	e7fc      	b.n	801139e <USBD_LL_IsoINIncomplete+0x22>

080113a4 <USBD_LL_IsoOUTIncomplete>:
 80113a4:	f8d0 22d4 	ldr.w	r2, [r0, #724]	; 0x2d4
 80113a8:	32ae      	adds	r2, #174	; 0xae
 80113aa:	b508      	push	{r3, lr}
 80113ac:	f850 2022 	ldr.w	r2, [r0, r2, lsl #2]
 80113b0:	b142      	cbz	r2, 80113c4 <USBD_LL_IsoOUTIncomplete+0x20>
 80113b2:	f890 329c 	ldrb.w	r3, [r0, #668]	; 0x29c
 80113b6:	2b03      	cmp	r3, #3
 80113b8:	d102      	bne.n	80113c0 <USBD_LL_IsoOUTIncomplete+0x1c>
 80113ba:	6a53      	ldr	r3, [r2, #36]	; 0x24
 80113bc:	b123      	cbz	r3, 80113c8 <USBD_LL_IsoOUTIncomplete+0x24>
 80113be:	4798      	blx	r3
 80113c0:	2000      	movs	r0, #0
 80113c2:	e000      	b.n	80113c6 <USBD_LL_IsoOUTIncomplete+0x22>
 80113c4:	2003      	movs	r0, #3
 80113c6:	bd08      	pop	{r3, pc}
 80113c8:	4618      	mov	r0, r3
 80113ca:	e7fc      	b.n	80113c6 <USBD_LL_IsoOUTIncomplete+0x22>

080113cc <USBD_LL_DevConnected>:
 80113cc:	2000      	movs	r0, #0
 80113ce:	4770      	bx	lr

080113d0 <USBD_LL_DevDisconnected>:
 80113d0:	2201      	movs	r2, #1
 80113d2:	b508      	push	{r3, lr}
 80113d4:	f880 229c 	strb.w	r2, [r0, #668]	; 0x29c
 80113d8:	f8d0 22b8 	ldr.w	r2, [r0, #696]	; 0x2b8
 80113dc:	b90a      	cbnz	r2, 80113e2 <USBD_LL_DevDisconnected+0x12>
 80113de:	2000      	movs	r0, #0
 80113e0:	bd08      	pop	{r3, pc}
 80113e2:	6852      	ldr	r2, [r2, #4]
 80113e4:	7901      	ldrb	r1, [r0, #4]
 80113e6:	4790      	blx	r2
 80113e8:	2800      	cmp	r0, #0
 80113ea:	d0f8      	beq.n	80113de <USBD_LL_DevDisconnected+0xe>
 80113ec:	2003      	movs	r0, #3
 80113ee:	e7f7      	b.n	80113e0 <USBD_LL_DevDisconnected+0x10>

080113f0 <USBD_CoreFindIF>:
 80113f0:	2000      	movs	r0, #0
 80113f2:	4770      	bx	lr

080113f4 <USBD_CoreFindEP>:
 80113f4:	2000      	movs	r0, #0
 80113f6:	4770      	bx	lr

080113f8 <USBD_GetEpDesc>:
 80113f8:	b510      	push	{r4, lr}
 80113fa:	8842      	ldrh	r2, [r0, #2]
 80113fc:	7803      	ldrb	r3, [r0, #0]
 80113fe:	429a      	cmp	r2, r3
 8011400:	d90a      	bls.n	8011418 <USBD_GetEpDesc+0x20>
 8011402:	7804      	ldrb	r4, [r0, #0]
 8011404:	4420      	add	r0, r4
 8011406:	4423      	add	r3, r4
 8011408:	7844      	ldrb	r4, [r0, #1]
 801140a:	2c05      	cmp	r4, #5
 801140c:	b29b      	uxth	r3, r3
 801140e:	d1f6      	bne.n	80113fe <USBD_GetEpDesc+0x6>
 8011410:	7884      	ldrb	r4, [r0, #2]
 8011412:	428c      	cmp	r4, r1
 8011414:	d1f3      	bne.n	80113fe <USBD_GetEpDesc+0x6>
 8011416:	bd10      	pop	{r4, pc}
 8011418:	2000      	movs	r0, #0
 801141a:	e7fc      	b.n	8011416 <USBD_GetEpDesc+0x1e>

0801141c <USBD_CtlError.constprop.0>:
 801141c:	b510      	push	{r4, lr}
 801141e:	2180      	movs	r1, #128	; 0x80
 8011420:	4604      	mov	r4, r0
 8011422:	f002 fdd9 	bl	8013fd8 <USBD_LL_StallEP>
 8011426:	4620      	mov	r0, r4
 8011428:	2100      	movs	r1, #0
 801142a:	e8bd 4010 	ldmia.w	sp!, {r4, lr}
 801142e:	f002 bdd3 	b.w	8013fd8 <USBD_LL_StallEP>
	...

08011434 <USBD_StdDevReq>:
 8011434:	e92d 41f3 	stmdb	sp!, {r0, r1, r4, r5, r6, r7, r8, lr}
 8011438:	780d      	ldrb	r5, [r1, #0]
 801143a:	f005 0560 	and.w	r5, r5, #96	; 0x60
 801143e:	2d20      	cmp	r5, #32
 8011440:	4604      	mov	r4, r0
 8011442:	460e      	mov	r6, r1
 8011444:	d014      	beq.n	8011470 <USBD_StdDevReq+0x3c>
 8011446:	2d40      	cmp	r5, #64	; 0x40
 8011448:	d012      	beq.n	8011470 <USBD_StdDevReq+0x3c>
 801144a:	2d00      	cmp	r5, #0
 801144c:	f040 810a 	bne.w	8011664 <USBD_StdDevReq+0x230>
 8011450:	784f      	ldrb	r7, [r1, #1]
 8011452:	2f09      	cmp	r7, #9
 8011454:	f200 8106 	bhi.w	8011664 <USBD_StdDevReq+0x230>
 8011458:	e8df f017 	tbh	[pc, r7, lsl #1]
 801145c:	0134010b 	.word	0x0134010b
 8011460:	01230104 	.word	0x01230104
 8011464:	00860104 	.word	0x00860104
 8011468:	01040016 	.word	0x01040016
 801146c:	00a200f3 	.word	0x00a200f3
 8011470:	f8d4 32d4 	ldr.w	r3, [r4, #724]	; 0x2d4
 8011474:	33ae      	adds	r3, #174	; 0xae
 8011476:	4631      	mov	r1, r6
 8011478:	f854 3023 	ldr.w	r3, [r4, r3, lsl #2]
 801147c:	689b      	ldr	r3, [r3, #8]
 801147e:	4620      	mov	r0, r4
 8011480:	b002      	add	sp, #8
 8011482:	e8bd 41f0 	ldmia.w	sp!, {r4, r5, r6, r7, r8, lr}
 8011486:	4718      	bx	r3
 8011488:	2300      	movs	r3, #0
 801148a:	f8ad 3006 	strh.w	r3, [sp, #6]
 801148e:	884b      	ldrh	r3, [r1, #2]
 8011490:	0a1a      	lsrs	r2, r3, #8
 8011492:	3a01      	subs	r2, #1
 8011494:	2a06      	cmp	r2, #6
 8011496:	d837      	bhi.n	8011508 <USBD_StdDevReq+0xd4>
 8011498:	e8df f002 	tbb	[pc, r2]
 801149c:	36291c04 	.word	0x36291c04
 80114a0:	5136      	.short	0x5136
 80114a2:	5b          	.byte	0x5b
 80114a3:	00          	.byte	0x00
 80114a4:	f8d0 32b4 	ldr.w	r3, [r0, #692]	; 0x2b4
 80114a8:	681b      	ldr	r3, [r3, #0]
 80114aa:	7c20      	ldrb	r0, [r4, #16]
 80114ac:	f10d 0106 	add.w	r1, sp, #6
 80114b0:	4798      	blx	r3
 80114b2:	88f2      	ldrh	r2, [r6, #6]
 80114b4:	2a00      	cmp	r2, #0
 80114b6:	f000 8101 	beq.w	80116bc <USBD_StdDevReq+0x288>
 80114ba:	f8bd 3006 	ldrh.w	r3, [sp, #6]
 80114be:	b31b      	cbz	r3, 8011508 <USBD_StdDevReq+0xd4>
 80114c0:	429a      	cmp	r2, r3
 80114c2:	bf28      	it	cs
 80114c4:	461a      	movcs	r2, r3
 80114c6:	f8ad 2006 	strh.w	r2, [sp, #6]
 80114ca:	4601      	mov	r1, r0
 80114cc:	4620      	mov	r0, r4
 80114ce:	f000 fa06 	bl	80118de <USBD_CtlSendData>
 80114d2:	e01c      	b.n	801150e <USBD_StdDevReq+0xda>
 80114d4:	7c02      	ldrb	r2, [r0, #16]
 80114d6:	f8d0 32b8 	ldr.w	r3, [r0, #696]	; 0x2b8
 80114da:	b932      	cbnz	r2, 80114ea <USBD_StdDevReq+0xb6>
 80114dc:	6a9b      	ldr	r3, [r3, #40]	; 0x28
 80114de:	f10d 0006 	add.w	r0, sp, #6
 80114e2:	4798      	blx	r3
 80114e4:	2302      	movs	r3, #2
 80114e6:	7043      	strb	r3, [r0, #1]
 80114e8:	e7e3      	b.n	80114b2 <USBD_StdDevReq+0x7e>
 80114ea:	6adb      	ldr	r3, [r3, #44]	; 0x2c
 80114ec:	e7f7      	b.n	80114de <USBD_StdDevReq+0xaa>
 80114ee:	b2db      	uxtb	r3, r3
 80114f0:	2b05      	cmp	r3, #5
 80114f2:	d809      	bhi.n	8011508 <USBD_StdDevReq+0xd4>
 80114f4:	e8df f003 	tbb	[pc, r3]
 80114f8:	17130f03 	.word	0x17130f03
 80114fc:	1f1b      	.short	0x1f1b
 80114fe:	f8d0 32b4 	ldr.w	r3, [r0, #692]	; 0x2b4
 8011502:	685b      	ldr	r3, [r3, #4]
 8011504:	2b00      	cmp	r3, #0
 8011506:	d1d0      	bne.n	80114aa <USBD_StdDevReq+0x76>
 8011508:	4620      	mov	r0, r4
 801150a:	f7ff ff87 	bl	801141c <USBD_CtlError.constprop.0>
 801150e:	4628      	mov	r0, r5
 8011510:	b002      	add	sp, #8
 8011512:	e8bd 81f0 	ldmia.w	sp!, {r4, r5, r6, r7, r8, pc}
 8011516:	f8d0 32b4 	ldr.w	r3, [r0, #692]	; 0x2b4
 801151a:	689b      	ldr	r3, [r3, #8]
 801151c:	e7f2      	b.n	8011504 <USBD_StdDevReq+0xd0>
 801151e:	f8d0 32b4 	ldr.w	r3, [r0, #692]	; 0x2b4
 8011522:	68db      	ldr	r3, [r3, #12]
 8011524:	e7ee      	b.n	8011504 <USBD_StdDevReq+0xd0>
 8011526:	f8d0 32b4 	ldr.w	r3, [r0, #692]	; 0x2b4
 801152a:	691b      	ldr	r3, [r3, #16]
 801152c:	e7ea      	b.n	8011504 <USBD_StdDevReq+0xd0>
 801152e:	f8d0 32b4 	ldr.w	r3, [r0, #692]	; 0x2b4
 8011532:	695b      	ldr	r3, [r3, #20]
 8011534:	e7e6      	b.n	8011504 <USBD_StdDevReq+0xd0>
 8011536:	f8d0 32b4 	ldr.w	r3, [r0, #692]	; 0x2b4
 801153a:	699b      	ldr	r3, [r3, #24]
 801153c:	e7e2      	b.n	8011504 <USBD_StdDevReq+0xd0>
 801153e:	7c03      	ldrb	r3, [r0, #16]
 8011540:	2b00      	cmp	r3, #0
 8011542:	d1e1      	bne.n	8011508 <USBD_StdDevReq+0xd4>
 8011544:	f8d0 32b8 	ldr.w	r3, [r0, #696]	; 0x2b8
 8011548:	f10d 0006 	add.w	r0, sp, #6
 801154c:	6b5b      	ldr	r3, [r3, #52]	; 0x34
 801154e:	4798      	blx	r3
 8011550:	e7af      	b.n	80114b2 <USBD_StdDevReq+0x7e>
 8011552:	7c03      	ldrb	r3, [r0, #16]
 8011554:	2b00      	cmp	r3, #0
 8011556:	d1d7      	bne.n	8011508 <USBD_StdDevReq+0xd4>
 8011558:	f8d0 32b8 	ldr.w	r3, [r0, #696]	; 0x2b8
 801155c:	f10d 0006 	add.w	r0, sp, #6
 8011560:	6b1b      	ldr	r3, [r3, #48]	; 0x30
 8011562:	4798      	blx	r3
 8011564:	2307      	movs	r3, #7
 8011566:	e7be      	b.n	80114e6 <USBD_StdDevReq+0xb2>
 8011568:	888b      	ldrh	r3, [r1, #4]
 801156a:	2b00      	cmp	r3, #0
 801156c:	d1cc      	bne.n	8011508 <USBD_StdDevReq+0xd4>
 801156e:	88cb      	ldrh	r3, [r1, #6]
 8011570:	2b00      	cmp	r3, #0
 8011572:	d1c9      	bne.n	8011508 <USBD_StdDevReq+0xd4>
 8011574:	884e      	ldrh	r6, [r1, #2]
 8011576:	2e7f      	cmp	r6, #127	; 0x7f
 8011578:	d8c6      	bhi.n	8011508 <USBD_StdDevReq+0xd4>
 801157a:	f890 329c 	ldrb.w	r3, [r0, #668]	; 0x29c
 801157e:	2b03      	cmp	r3, #3
 8011580:	d0c2      	beq.n	8011508 <USBD_StdDevReq+0xd4>
 8011582:	b2f1      	uxtb	r1, r6
 8011584:	f880 129e 	strb.w	r1, [r0, #670]	; 0x29e
 8011588:	f002 fd38 	bl	8013ffc <USBD_LL_SetUSBAddress>
 801158c:	4620      	mov	r0, r4
 801158e:	f000 f9d0 	bl	8011932 <USBD_CtlSendStatus>
 8011592:	b11e      	cbz	r6, 801159c <USBD_StdDevReq+0x168>
 8011594:	2302      	movs	r3, #2
 8011596:	f884 329c 	strb.w	r3, [r4, #668]	; 0x29c
 801159a:	e7b8      	b.n	801150e <USBD_StdDevReq+0xda>
 801159c:	2301      	movs	r3, #1
 801159e:	e7fa      	b.n	8011596 <USBD_StdDevReq+0x162>
 80115a0:	788e      	ldrb	r6, [r1, #2]
 80115a2:	4f4e      	ldr	r7, [pc, #312]	; (80116dc <USBD_StdDevReq+0x2a8>)
 80115a4:	2e01      	cmp	r6, #1
 80115a6:	703e      	strb	r6, [r7, #0]
 80115a8:	d903      	bls.n	80115b2 <USBD_StdDevReq+0x17e>
 80115aa:	f7ff ff37 	bl	801141c <USBD_CtlError.constprop.0>
 80115ae:	2503      	movs	r5, #3
 80115b0:	e7ad      	b.n	801150e <USBD_StdDevReq+0xda>
 80115b2:	f890 329c 	ldrb.w	r3, [r0, #668]	; 0x29c
 80115b6:	2b02      	cmp	r3, #2
 80115b8:	fa5f f883 	uxtb.w	r8, r3
 80115bc:	d009      	beq.n	80115d2 <USBD_StdDevReq+0x19e>
 80115be:	f1b8 0f03 	cmp.w	r8, #3
 80115c2:	d018      	beq.n	80115f6 <USBD_StdDevReq+0x1c2>
 80115c4:	f7ff ff2a 	bl	801141c <USBD_CtlError.constprop.0>
 80115c8:	7839      	ldrb	r1, [r7, #0]
 80115ca:	4620      	mov	r0, r4
 80115cc:	f7ff fdbd 	bl	801114a <USBD_ClrClassConfig>
 80115d0:	e7ed      	b.n	80115ae <USBD_StdDevReq+0x17a>
 80115d2:	2e00      	cmp	r6, #0
 80115d4:	d072      	beq.n	80116bc <USBD_StdDevReq+0x288>
 80115d6:	2101      	movs	r1, #1
 80115d8:	6041      	str	r1, [r0, #4]
 80115da:	f7ff fdaf 	bl	801113c <USBD_SetClassConfig>
 80115de:	4605      	mov	r5, r0
 80115e0:	4620      	mov	r0, r4
 80115e2:	b125      	cbz	r5, 80115ee <USBD_StdDevReq+0x1ba>
 80115e4:	f7ff ff1a 	bl	801141c <USBD_CtlError.constprop.0>
 80115e8:	f884 829c 	strb.w	r8, [r4, #668]	; 0x29c
 80115ec:	e78f      	b.n	801150e <USBD_StdDevReq+0xda>
 80115ee:	f000 f9a0 	bl	8011932 <USBD_CtlSendStatus>
 80115f2:	2303      	movs	r3, #3
 80115f4:	e7cf      	b.n	8011596 <USBD_StdDevReq+0x162>
 80115f6:	b95e      	cbnz	r6, 8011610 <USBD_StdDevReq+0x1dc>
 80115f8:	2302      	movs	r3, #2
 80115fa:	f880 329c 	strb.w	r3, [r0, #668]	; 0x29c
 80115fe:	6046      	str	r6, [r0, #4]
 8011600:	4631      	mov	r1, r6
 8011602:	f7ff fda2 	bl	801114a <USBD_ClrClassConfig>
 8011606:	4620      	mov	r0, r4
 8011608:	f000 f993 	bl	8011932 <USBD_CtlSendStatus>
 801160c:	4635      	mov	r5, r6
 801160e:	e77e      	b.n	801150e <USBD_StdDevReq+0xda>
 8011610:	6841      	ldr	r1, [r0, #4]
 8011612:	2901      	cmp	r1, #1
 8011614:	d052      	beq.n	80116bc <USBD_StdDevReq+0x288>
 8011616:	b2c9      	uxtb	r1, r1
 8011618:	f7ff fd97 	bl	801114a <USBD_ClrClassConfig>
 801161c:	7839      	ldrb	r1, [r7, #0]
 801161e:	6061      	str	r1, [r4, #4]
 8011620:	4620      	mov	r0, r4
 8011622:	f7ff fd8b 	bl	801113c <USBD_SetClassConfig>
 8011626:	4606      	mov	r6, r0
 8011628:	2800      	cmp	r0, #0
 801162a:	d047      	beq.n	80116bc <USBD_StdDevReq+0x288>
 801162c:	4620      	mov	r0, r4
 801162e:	f7ff fef5 	bl	801141c <USBD_CtlError.constprop.0>
 8011632:	7921      	ldrb	r1, [r4, #4]
 8011634:	4620      	mov	r0, r4
 8011636:	f7ff fd88 	bl	801114a <USBD_ClrClassConfig>
 801163a:	2302      	movs	r3, #2
 801163c:	f884 329c 	strb.w	r3, [r4, #668]	; 0x29c
 8011640:	e7e4      	b.n	801160c <USBD_StdDevReq+0x1d8>
 8011642:	88ca      	ldrh	r2, [r1, #6]
 8011644:	2a01      	cmp	r2, #1
 8011646:	f47f af5f 	bne.w	8011508 <USBD_StdDevReq+0xd4>
 801164a:	f890 129c 	ldrb.w	r1, [r0, #668]	; 0x29c
 801164e:	2902      	cmp	r1, #2
 8011650:	b2cb      	uxtb	r3, r1
 8011652:	d805      	bhi.n	8011660 <USBD_StdDevReq+0x22c>
 8011654:	b133      	cbz	r3, 8011664 <USBD_StdDevReq+0x230>
 8011656:	4601      	mov	r1, r0
 8011658:	2300      	movs	r3, #0
 801165a:	f841 3f08 	str.w	r3, [r1, #8]!
 801165e:	e735      	b.n	80114cc <USBD_StdDevReq+0x98>
 8011660:	2b03      	cmp	r3, #3
 8011662:	d004      	beq.n	801166e <USBD_StdDevReq+0x23a>
 8011664:	4620      	mov	r0, r4
 8011666:	f7ff fed9 	bl	801141c <USBD_CtlError.constprop.0>
 801166a:	2500      	movs	r5, #0
 801166c:	e74f      	b.n	801150e <USBD_StdDevReq+0xda>
 801166e:	1d01      	adds	r1, r0, #4
 8011670:	e72c      	b.n	80114cc <USBD_StdDevReq+0x98>
 8011672:	f890 329c 	ldrb.w	r3, [r0, #668]	; 0x29c
 8011676:	3b01      	subs	r3, #1
 8011678:	2b02      	cmp	r3, #2
 801167a:	d8f3      	bhi.n	8011664 <USBD_StdDevReq+0x230>
 801167c:	88cb      	ldrh	r3, [r1, #6]
 801167e:	2b02      	cmp	r3, #2
 8011680:	f47f af42 	bne.w	8011508 <USBD_StdDevReq+0xd4>
 8011684:	2301      	movs	r3, #1
 8011686:	60c3      	str	r3, [r0, #12]
 8011688:	f8d0 32a4 	ldr.w	r3, [r0, #676]	; 0x2a4
 801168c:	b10b      	cbz	r3, 8011692 <USBD_StdDevReq+0x25e>
 801168e:	2303      	movs	r3, #3
 8011690:	60c3      	str	r3, [r0, #12]
 8011692:	2202      	movs	r2, #2
 8011694:	f104 010c 	add.w	r1, r4, #12
 8011698:	4620      	mov	r0, r4
 801169a:	f000 f920 	bl	80118de <USBD_CtlSendData>
 801169e:	463d      	mov	r5, r7
 80116a0:	e735      	b.n	801150e <USBD_StdDevReq+0xda>
 80116a2:	884b      	ldrh	r3, [r1, #2]
 80116a4:	2b01      	cmp	r3, #1
 80116a6:	d102      	bne.n	80116ae <USBD_StdDevReq+0x27a>
 80116a8:	f8c4 32a4 	str.w	r3, [r4, #676]	; 0x2a4
 80116ac:	e006      	b.n	80116bc <USBD_StdDevReq+0x288>
 80116ae:	2b02      	cmp	r3, #2
 80116b0:	f47f af2a 	bne.w	8011508 <USBD_StdDevReq+0xd4>
 80116b4:	888b      	ldrh	r3, [r1, #4]
 80116b6:	0a1b      	lsrs	r3, r3, #8
 80116b8:	f880 32a0 	strb.w	r3, [r0, #672]	; 0x2a0
 80116bc:	4620      	mov	r0, r4
 80116be:	f000 f938 	bl	8011932 <USBD_CtlSendStatus>
 80116c2:	e724      	b.n	801150e <USBD_StdDevReq+0xda>
 80116c4:	f890 329c 	ldrb.w	r3, [r0, #668]	; 0x29c
 80116c8:	3b01      	subs	r3, #1
 80116ca:	2b02      	cmp	r3, #2
 80116cc:	d8ca      	bhi.n	8011664 <USBD_StdDevReq+0x230>
 80116ce:	884b      	ldrh	r3, [r1, #2]
 80116d0:	2b01      	cmp	r3, #1
 80116d2:	f47f af1c 	bne.w	801150e <USBD_StdDevReq+0xda>
 80116d6:	2300      	movs	r3, #0
 80116d8:	e7e6      	b.n	80116a8 <USBD_StdDevReq+0x274>
 80116da:	bf00      	nop
 80116dc:	2000cb54 	.word	0x2000cb54

080116e0 <USBD_StdItfReq>:
 80116e0:	b570      	push	{r4, r5, r6, lr}
 80116e2:	780b      	ldrb	r3, [r1, #0]
 80116e4:	f003 0260 	and.w	r2, r3, #96	; 0x60
 80116e8:	2a40      	cmp	r2, #64	; 0x40
 80116ea:	4604      	mov	r4, r0
 80116ec:	460e      	mov	r6, r1
 80116ee:	d001      	beq.n	80116f4 <USBD_StdItfReq+0x14>
 80116f0:	065b      	lsls	r3, r3, #25
 80116f2:	d41f      	bmi.n	8011734 <USBD_StdItfReq+0x54>
 80116f4:	f894 329c 	ldrb.w	r3, [r4, #668]	; 0x29c
 80116f8:	3b01      	subs	r3, #1
 80116fa:	2b02      	cmp	r3, #2
 80116fc:	d81a      	bhi.n	8011734 <USBD_StdItfReq+0x54>
 80116fe:	7931      	ldrb	r1, [r6, #4]
 8011700:	2901      	cmp	r1, #1
 8011702:	4620      	mov	r0, r4
 8011704:	d817      	bhi.n	8011736 <USBD_StdItfReq+0x56>
 8011706:	f7ff fe73 	bl	80113f0 <USBD_CoreFindIF>
 801170a:	b988      	cbnz	r0, 8011730 <USBD_StdItfReq+0x50>
 801170c:	f8d4 32b8 	ldr.w	r3, [r4, #696]	; 0x2b8
 8011710:	689b      	ldr	r3, [r3, #8]
 8011712:	b16b      	cbz	r3, 8011730 <USBD_StdItfReq+0x50>
 8011714:	f8c4 02d4 	str.w	r0, [r4, #724]	; 0x2d4
 8011718:	4631      	mov	r1, r6
 801171a:	4620      	mov	r0, r4
 801171c:	4798      	blx	r3
 801171e:	4605      	mov	r5, r0
 8011720:	88f3      	ldrh	r3, [r6, #6]
 8011722:	b91b      	cbnz	r3, 801172c <USBD_StdItfReq+0x4c>
 8011724:	b915      	cbnz	r5, 801172c <USBD_StdItfReq+0x4c>
 8011726:	4620      	mov	r0, r4
 8011728:	f000 f903 	bl	8011932 <USBD_CtlSendStatus>
 801172c:	4628      	mov	r0, r5
 801172e:	bd70      	pop	{r4, r5, r6, pc}
 8011730:	2503      	movs	r5, #3
 8011732:	e7f5      	b.n	8011720 <USBD_StdItfReq+0x40>
 8011734:	4620      	mov	r0, r4
 8011736:	f7ff fe71 	bl	801141c <USBD_CtlError.constprop.0>
 801173a:	2500      	movs	r5, #0
 801173c:	e7f6      	b.n	801172c <USBD_StdItfReq+0x4c>

0801173e <USBD_StdEPReq>:
 801173e:	b570      	push	{r4, r5, r6, lr}
 8011740:	780b      	ldrb	r3, [r1, #0]
 8011742:	888a      	ldrh	r2, [r1, #4]
 8011744:	790e      	ldrb	r6, [r1, #4]
 8011746:	f003 0360 	and.w	r3, r3, #96	; 0x60
 801174a:	2b20      	cmp	r3, #32
 801174c:	4604      	mov	r4, r0
 801174e:	460d      	mov	r5, r1
 8011750:	d053      	beq.n	80117fa <USBD_StdEPReq+0xbc>
 8011752:	2b40      	cmp	r3, #64	; 0x40
 8011754:	d051      	beq.n	80117fa <USBD_StdEPReq+0xbc>
 8011756:	bb63      	cbnz	r3, 80117b2 <USBD_StdEPReq+0x74>
 8011758:	784b      	ldrb	r3, [r1, #1]
 801175a:	2b01      	cmp	r3, #1
 801175c:	d03b      	beq.n	80117d6 <USBD_StdEPReq+0x98>
 801175e:	2b03      	cmp	r3, #3
 8011760:	d020      	beq.n	80117a4 <USBD_StdEPReq+0x66>
 8011762:	bb33      	cbnz	r3, 80117b2 <USBD_StdEPReq+0x74>
 8011764:	f890 329c 	ldrb.w	r3, [r0, #668]	; 0x29c
 8011768:	2b02      	cmp	r3, #2
 801176a:	b2d9      	uxtb	r1, r3
 801176c:	d061      	beq.n	8011832 <USBD_StdEPReq+0xf4>
 801176e:	2903      	cmp	r1, #3
 8011770:	d11f      	bne.n	80117b2 <USBD_StdEPReq+0x74>
 8011772:	f006 030f 	and.w	r3, r6, #15
 8011776:	f012 0f80 	tst.w	r2, #128	; 0x80
 801177a:	f04f 0214 	mov.w	r2, #20
 801177e:	fb02 0303 	mla	r3, r2, r3, r0
 8011782:	d065      	beq.n	8011850 <USBD_StdEPReq+0x112>
 8011784:	8c9b      	ldrh	r3, [r3, #36]	; 0x24
 8011786:	b1a3      	cbz	r3, 80117b2 <USBD_StdEPReq+0x74>
 8011788:	f006 057f 	and.w	r5, r6, #127	; 0x7f
 801178c:	3501      	adds	r5, #1
 801178e:	eb05 0585 	add.w	r5, r5, r5, lsl #2
 8011792:	eb00 0585 	add.w	r5, r0, r5, lsl #2
 8011796:	f016 037f 	ands.w	r3, r6, #127	; 0x7f
 801179a:	d165      	bne.n	8011868 <USBD_StdEPReq+0x12a>
 801179c:	602b      	str	r3, [r5, #0]
 801179e:	2202      	movs	r2, #2
 80117a0:	4629      	mov	r1, r5
 80117a2:	e051      	b.n	8011848 <USBD_StdEPReq+0x10a>
 80117a4:	f890 329c 	ldrb.w	r3, [r0, #668]	; 0x29c
 80117a8:	2b02      	cmp	r3, #2
 80117aa:	b2da      	uxtb	r2, r3
 80117ac:	d037      	beq.n	801181e <USBD_StdEPReq+0xe0>
 80117ae:	2a03      	cmp	r2, #3
 80117b0:	d003      	beq.n	80117ba <USBD_StdEPReq+0x7c>
 80117b2:	4620      	mov	r0, r4
 80117b4:	f7ff fe32 	bl	801141c <USBD_CtlError.constprop.0>
 80117b8:	e00b      	b.n	80117d2 <USBD_StdEPReq+0x94>
 80117ba:	884b      	ldrh	r3, [r1, #2]
 80117bc:	b933      	cbnz	r3, 80117cc <USBD_StdEPReq+0x8e>
 80117be:	0671      	lsls	r1, r6, #25
 80117c0:	d004      	beq.n	80117cc <USBD_StdEPReq+0x8e>
 80117c2:	88eb      	ldrh	r3, [r5, #6]
 80117c4:	b913      	cbnz	r3, 80117cc <USBD_StdEPReq+0x8e>
 80117c6:	4631      	mov	r1, r6
 80117c8:	f002 fc06 	bl	8013fd8 <USBD_LL_StallEP>
 80117cc:	4620      	mov	r0, r4
 80117ce:	f000 f8b0 	bl	8011932 <USBD_CtlSendStatus>
 80117d2:	2000      	movs	r0, #0
 80117d4:	bd70      	pop	{r4, r5, r6, pc}
 80117d6:	f890 329c 	ldrb.w	r3, [r0, #668]	; 0x29c
 80117da:	2b02      	cmp	r3, #2
 80117dc:	b2da      	uxtb	r2, r3
 80117de:	d01e      	beq.n	801181e <USBD_StdEPReq+0xe0>
 80117e0:	2a03      	cmp	r2, #3
 80117e2:	d1e6      	bne.n	80117b2 <USBD_StdEPReq+0x74>
 80117e4:	884b      	ldrh	r3, [r1, #2]
 80117e6:	2b00      	cmp	r3, #0
 80117e8:	d1f3      	bne.n	80117d2 <USBD_StdEPReq+0x94>
 80117ea:	0673      	lsls	r3, r6, #25
 80117ec:	d002      	beq.n	80117f4 <USBD_StdEPReq+0xb6>
 80117ee:	4631      	mov	r1, r6
 80117f0:	f002 fbfb 	bl	8013fea <USBD_LL_ClearStallEP>
 80117f4:	4620      	mov	r0, r4
 80117f6:	f000 f89c 	bl	8011932 <USBD_CtlSendStatus>
 80117fa:	4631      	mov	r1, r6
 80117fc:	4620      	mov	r0, r4
 80117fe:	f7ff fdf9 	bl	80113f4 <USBD_CoreFindEP>
 8011802:	2800      	cmp	r0, #0
 8011804:	d1e5      	bne.n	80117d2 <USBD_StdEPReq+0x94>
 8011806:	f8d4 32b8 	ldr.w	r3, [r4, #696]	; 0x2b8
 801180a:	f8c4 02d4 	str.w	r0, [r4, #724]	; 0x2d4
 801180e:	689b      	ldr	r3, [r3, #8]
 8011810:	2b00      	cmp	r3, #0
 8011812:	d0de      	beq.n	80117d2 <USBD_StdEPReq+0x94>
 8011814:	4629      	mov	r1, r5
 8011816:	4620      	mov	r0, r4
 8011818:	e8bd 4070 	ldmia.w	sp!, {r4, r5, r6, lr}
 801181c:	4718      	bx	r3
 801181e:	0672      	lsls	r2, r6, #25
 8011820:	d0c7      	beq.n	80117b2 <USBD_StdEPReq+0x74>
 8011822:	4631      	mov	r1, r6
 8011824:	f002 fbd8 	bl	8013fd8 <USBD_LL_StallEP>
 8011828:	2180      	movs	r1, #128	; 0x80
 801182a:	4620      	mov	r0, r4
 801182c:	f002 fbd4 	bl	8013fd8 <USBD_LL_StallEP>
 8011830:	e7cf      	b.n	80117d2 <USBD_StdEPReq+0x94>
 8011832:	0671      	lsls	r1, r6, #25
 8011834:	d1bd      	bne.n	80117b2 <USBD_StdEPReq+0x74>
 8011836:	0613      	lsls	r3, r2, #24
 8011838:	bf4c      	ite	mi
 801183a:	f100 0114 	addmi.w	r1, r0, #20
 801183e:	f500 71aa 	addpl.w	r1, r0, #340	; 0x154
 8011842:	2300      	movs	r3, #0
 8011844:	600b      	str	r3, [r1, #0]
 8011846:	2202      	movs	r2, #2
 8011848:	4620      	mov	r0, r4
 801184a:	f000 f848 	bl	80118de <USBD_CtlSendData>
 801184e:	e7c0      	b.n	80117d2 <USBD_StdEPReq+0x94>
 8011850:	f8b3 3164 	ldrh.w	r3, [r3, #356]	; 0x164
 8011854:	2b00      	cmp	r3, #0
 8011856:	d0ac      	beq.n	80117b2 <USBD_StdEPReq+0x74>
 8011858:	f006 057f 	and.w	r5, r6, #127	; 0x7f
 801185c:	2314      	movs	r3, #20
 801185e:	fb03 0505 	mla	r5, r3, r5, r0
 8011862:	f505 75aa 	add.w	r5, r5, #340	; 0x154
 8011866:	e796      	b.n	8011796 <USBD_StdEPReq+0x58>
 8011868:	4631      	mov	r1, r6
 801186a:	4620      	mov	r0, r4
 801186c:	f002 fb70 	bl	8013f50 <USBD_LL_IsStallEP>
 8011870:	b108      	cbz	r0, 8011876 <USBD_StdEPReq+0x138>
 8011872:	2301      	movs	r3, #1
 8011874:	e792      	b.n	801179c <USBD_StdEPReq+0x5e>
 8011876:	6028      	str	r0, [r5, #0]
 8011878:	e791      	b.n	801179e <USBD_StdEPReq+0x60>

0801187a <USBD_ParseSetupRequest>:
 801187a:	780b      	ldrb	r3, [r1, #0]
 801187c:	7003      	strb	r3, [r0, #0]
 801187e:	784b      	ldrb	r3, [r1, #1]
 8011880:	7043      	strb	r3, [r0, #1]
 8011882:	884b      	ldrh	r3, [r1, #2]
 8011884:	8043      	strh	r3, [r0, #2]
 8011886:	888b      	ldrh	r3, [r1, #4]
 8011888:	8083      	strh	r3, [r0, #4]
 801188a:	88cb      	ldrh	r3, [r1, #6]
 801188c:	80c3      	strh	r3, [r0, #6]
 801188e:	4770      	bx	lr

08011890 <USBD_CtlError>:
 8011890:	b510      	push	{r4, lr}
 8011892:	2180      	movs	r1, #128	; 0x80
 8011894:	4604      	mov	r4, r0
 8011896:	f002 fb9f 	bl	8013fd8 <USBD_LL_StallEP>
 801189a:	4620      	mov	r0, r4
 801189c:	2100      	movs	r1, #0
 801189e:	e8bd 4010 	ldmia.w	sp!, {r4, lr}
 80118a2:	f002 bb99 	b.w	8013fd8 <USBD_LL_StallEP>

080118a6 <USBD_GetString>:
 80118a6:	b530      	push	{r4, r5, lr}
 80118a8:	b188      	cbz	r0, 80118ce <USBD_GetString+0x28>
 80118aa:	2400      	movs	r4, #0
 80118ac:	3801      	subs	r0, #1
 80118ae:	4623      	mov	r3, r4
 80118b0:	3401      	adds	r4, #1
 80118b2:	5d05      	ldrb	r5, [r0, r4]
 80118b4:	2d00      	cmp	r5, #0
 80118b6:	d1fa      	bne.n	80118ae <USBD_GetString+0x8>
 80118b8:	b2db      	uxtb	r3, r3
 80118ba:	3301      	adds	r3, #1
 80118bc:	005b      	lsls	r3, r3, #1
 80118be:	8013      	strh	r3, [r2, #0]
 80118c0:	700b      	strb	r3, [r1, #0]
 80118c2:	2303      	movs	r3, #3
 80118c4:	704b      	strb	r3, [r1, #1]
 80118c6:	2302      	movs	r3, #2
 80118c8:	f810 2f01 	ldrb.w	r2, [r0, #1]!
 80118cc:	b902      	cbnz	r2, 80118d0 <USBD_GetString+0x2a>
 80118ce:	bd30      	pop	{r4, r5, pc}
 80118d0:	54ca      	strb	r2, [r1, r3]
 80118d2:	1c5a      	adds	r2, r3, #1
 80118d4:	b2d2      	uxtb	r2, r2
 80118d6:	3302      	adds	r3, #2
 80118d8:	548d      	strb	r5, [r1, r2]
 80118da:	b2db      	uxtb	r3, r3
 80118dc:	e7f4      	b.n	80118c8 <USBD_GetString+0x22>

080118de <USBD_CtlSendData>:
 80118de:	b510      	push	{r4, lr}
 80118e0:	2402      	movs	r4, #2
 80118e2:	4613      	mov	r3, r2
 80118e4:	e9c0 2206 	strd	r2, r2, [r0, #24]
 80118e8:	f8c0 4294 	str.w	r4, [r0, #660]	; 0x294
 80118ec:	460a      	mov	r2, r1
 80118ee:	2100      	movs	r1, #0
 80118f0:	f002 fb8d 	bl	801400e <USBD_LL_Transmit>
 80118f4:	2000      	movs	r0, #0
 80118f6:	bd10      	pop	{r4, pc}

080118f8 <USBD_CtlContinueSendData>:
 80118f8:	b508      	push	{r3, lr}
 80118fa:	4613      	mov	r3, r2
 80118fc:	460a      	mov	r2, r1
 80118fe:	2100      	movs	r1, #0
 8011900:	f002 fb85 	bl	801400e <USBD_LL_Transmit>
 8011904:	2000      	movs	r0, #0
 8011906:	bd08      	pop	{r3, pc}

08011908 <USBD_CtlPrepareRx>:
 8011908:	b510      	push	{r4, lr}
 801190a:	2403      	movs	r4, #3
 801190c:	4613      	mov	r3, r2
 801190e:	e9c0 2256 	strd	r2, r2, [r0, #344]	; 0x158
 8011912:	f8c0 4294 	str.w	r4, [r0, #660]	; 0x294
 8011916:	460a      	mov	r2, r1
 8011918:	2100      	movs	r1, #0
 801191a:	f002 fb81 	bl	8014020 <USBD_LL_PrepareReceive>
 801191e:	2000      	movs	r0, #0
 8011920:	bd10      	pop	{r4, pc}

08011922 <USBD_CtlContinueRx>:
 8011922:	b508      	push	{r3, lr}
 8011924:	4613      	mov	r3, r2
 8011926:	460a      	mov	r2, r1
 8011928:	2100      	movs	r1, #0
 801192a:	f002 fb79 	bl	8014020 <USBD_LL_PrepareReceive>
 801192e:	2000      	movs	r0, #0
 8011930:	bd08      	pop	{r3, pc}

08011932 <USBD_CtlSendStatus>:
 8011932:	b508      	push	{r3, lr}
 8011934:	2204      	movs	r2, #4
 8011936:	2300      	movs	r3, #0
 8011938:	f8c0 2294 	str.w	r2, [r0, #660]	; 0x294
 801193c:	4619      	mov	r1, r3
 801193e:	461a      	mov	r2, r3
 8011940:	f002 fb65 	bl	801400e <USBD_LL_Transmit>
 8011944:	2000      	movs	r0, #0
 8011946:	bd08      	pop	{r3, pc}

08011948 <USBD_CtlReceiveStatus>:
 8011948:	b508      	push	{r3, lr}
 801194a:	2205      	movs	r2, #5
 801194c:	2300      	movs	r3, #0
 801194e:	f8c0 2294 	str.w	r2, [r0, #660]	; 0x294
 8011952:	4619      	mov	r1, r3
 8011954:	461a      	mov	r2, r3
 8011956:	f002 fb63 	bl	8014020 <USBD_LL_PrepareReceive>
 801195a:	2000      	movs	r0, #0
 801195c:	bd08      	pop	{r3, pc}

0801195e <osKernelStart>:
 801195e:	b508      	push	{r3, lr}
 8011960:	f001 f808 	bl	8012974 <vTaskStartScheduler>
 8011964:	2000      	movs	r0, #0
 8011966:	bd08      	pop	{r3, pc}

08011968 <osKernelRunning>:
 8011968:	b508      	push	{r3, lr}
 801196a:	f001 fab1 	bl	8012ed0 <xTaskGetSchedulerState>
 801196e:	3801      	subs	r0, #1
 8011970:	bf18      	it	ne
 8011972:	2001      	movne	r0, #1
 8011974:	bd08      	pop	{r3, pc}

08011976 <osThreadCreate>:
 8011976:	b570      	push	{r4, r5, r6, lr}
 8011978:	4605      	mov	r5, r0
 801197a:	6946      	ldr	r6, [r0, #20]
 801197c:	692a      	ldr	r2, [r5, #16]
 801197e:	f9b5 4008 	ldrsh.w	r4, [r5, #8]
 8011982:	460b      	mov	r3, r1
 8011984:	b086      	sub	sp, #24
 8011986:	e9d0 1000 	ldrd	r1, r0, [r0]
 801198a:	b176      	cbz	r6, 80119aa <osThreadCreate+0x34>
 801198c:	69ad      	ldr	r5, [r5, #24]
 801198e:	b165      	cbz	r5, 80119aa <osThreadCreate+0x34>
 8011990:	2c84      	cmp	r4, #132	; 0x84
 8011992:	bf14      	ite	ne
 8011994:	3403      	addne	r4, #3
 8011996:	2400      	moveq	r4, #0
 8011998:	e9cd 6501 	strd	r6, r5, [sp, #4]
 801199c:	9400      	str	r4, [sp, #0]
 801199e:	f000 ff83 	bl	80128a8 <xTaskCreateStatic>
 80119a2:	9005      	str	r0, [sp, #20]
 80119a4:	9805      	ldr	r0, [sp, #20]
 80119a6:	b006      	add	sp, #24
 80119a8:	bd70      	pop	{r4, r5, r6, pc}
 80119aa:	2c84      	cmp	r4, #132	; 0x84
 80119ac:	bf14      	ite	ne
 80119ae:	3403      	addne	r4, #3
 80119b0:	2400      	moveq	r4, #0
 80119b2:	ad05      	add	r5, sp, #20
 80119b4:	e9cd 4500 	strd	r4, r5, [sp]
 80119b8:	b292      	uxth	r2, r2
 80119ba:	f000 ffad 	bl	8012918 <xTaskCreate>
 80119be:	2801      	cmp	r0, #1
 80119c0:	d0f0      	beq.n	80119a4 <osThreadCreate+0x2e>
 80119c2:	2000      	movs	r0, #0
 80119c4:	e7ef      	b.n	80119a6 <osThreadCreate+0x30>

080119c6 <osDelay>:
 80119c6:	b508      	push	{r3, lr}
 80119c8:	2801      	cmp	r0, #1
 80119ca:	bf38      	it	cc
 80119cc:	2001      	movcc	r0, #1
 80119ce:	f001 f941 	bl	8012c54 <vTaskDelay>
 80119d2:	2000      	movs	r0, #0
 80119d4:	bd08      	pop	{r3, pc}
	...

080119d8 <osTimerCreate>:
 80119d8:	b513      	push	{r0, r1, r4, lr}
 80119da:	e9d0 0400 	ldrd	r0, r4, [r0]
 80119de:	3901      	subs	r1, #1
 80119e0:	4613      	mov	r3, r2
 80119e2:	424a      	negs	r2, r1
 80119e4:	414a      	adcs	r2, r1
 80119e6:	b13c      	cbz	r4, 80119f8 <osTimerCreate+0x20>
 80119e8:	e9cd 0400 	strd	r0, r4, [sp]
 80119ec:	2101      	movs	r1, #1
 80119ee:	4805      	ldr	r0, [pc, #20]	; (8011a04 <osTimerCreate+0x2c>)
 80119f0:	f001 fd9c 	bl	801352c <xTimerCreateStatic>
 80119f4:	b002      	add	sp, #8
 80119f6:	bd10      	pop	{r4, pc}
 80119f8:	9000      	str	r0, [sp, #0]
 80119fa:	2101      	movs	r1, #1
 80119fc:	4801      	ldr	r0, [pc, #4]	; (8011a04 <osTimerCreate+0x2c>)
 80119fe:	f001 fd7b 	bl	80134f8 <xTimerCreate>
 8011a02:	e7f7      	b.n	80119f4 <osTimerCreate+0x1c>
 8011a04:	08015af5 	.word	0x08015af5

08011a08 <osTimerStart>:
 8011a08:	b51f      	push	{r0, r1, r2, r3, r4, lr}
 8011a0a:	2901      	cmp	r1, #1
 8011a0c:	f04f 0400 	mov.w	r4, #0
 8011a10:	460a      	mov	r2, r1
 8011a12:	9403      	str	r4, [sp, #12]
 8011a14:	bf38      	it	cc
 8011a16:	2201      	movcc	r2, #1
 8011a18:	f3ef 8305 	mrs	r3, IPSR
 8011a1c:	b1b3      	cbz	r3, 8011a4c <osTimerStart+0x44>
 8011a1e:	9400      	str	r4, [sp, #0]
 8011a20:	ab03      	add	r3, sp, #12
 8011a22:	2109      	movs	r1, #9
 8011a24:	f001 fdaa 	bl	801357c <xTimerGenericCommand>
 8011a28:	2801      	cmp	r0, #1
 8011a2a:	d115      	bne.n	8011a58 <osTimerStart+0x50>
 8011a2c:	9b03      	ldr	r3, [sp, #12]
 8011a2e:	b913      	cbnz	r3, 8011a36 <osTimerStart+0x2e>
 8011a30:	2000      	movs	r0, #0
 8011a32:	b004      	add	sp, #16
 8011a34:	bd10      	pop	{r4, pc}
 8011a36:	f04f 23e0 	mov.w	r3, #3758153728	; 0xe000e000
 8011a3a:	f04f 5280 	mov.w	r2, #268435456	; 0x10000000
 8011a3e:	f8c3 2d04 	str.w	r2, [r3, #3332]	; 0xd04
 8011a42:	f3bf 8f4f 	dsb	sy
 8011a46:	f3bf 8f6f 	isb	sy
 8011a4a:	e7f1      	b.n	8011a30 <osTimerStart+0x28>
 8011a4c:	9300      	str	r3, [sp, #0]
 8011a4e:	2104      	movs	r1, #4
 8011a50:	f001 fd94 	bl	801357c <xTimerGenericCommand>
 8011a54:	2801      	cmp	r0, #1
 8011a56:	d0eb      	beq.n	8011a30 <osTimerStart+0x28>
 8011a58:	20ff      	movs	r0, #255	; 0xff
 8011a5a:	e7ea      	b.n	8011a32 <osTimerStart+0x2a>

08011a5c <osMutexCreate>:
 8011a5c:	6841      	ldr	r1, [r0, #4]
 8011a5e:	2001      	movs	r0, #1
 8011a60:	b109      	cbz	r1, 8011a66 <osMutexCreate+0xa>
 8011a62:	f000 bac4 	b.w	8011fee <xQueueCreateMutexStatic>
 8011a66:	f000 bad7 	b.w	8012018 <xQueueCreateMutex>

08011a6a <osMutexWait>:
 8011a6a:	b513      	push	{r0, r1, r4, lr}
 8011a6c:	2400      	movs	r4, #0
 8011a6e:	9401      	str	r4, [sp, #4]
 8011a70:	b1f0      	cbz	r0, 8011ab0 <osMutexWait+0x46>
 8011a72:	f3ef 8305 	mrs	r3, IPSR
 8011a76:	b1ab      	cbz	r3, 8011aa4 <osMutexWait+0x3a>
 8011a78:	aa01      	add	r2, sp, #4
 8011a7a:	4621      	mov	r1, r4
 8011a7c:	f000 fcfe 	bl	801247c <xQueueReceiveFromISR>
 8011a80:	2801      	cmp	r0, #1
 8011a82:	d113      	bne.n	8011aac <osMutexWait+0x42>
 8011a84:	9b01      	ldr	r3, [sp, #4]
 8011a86:	b913      	cbnz	r3, 8011a8e <osMutexWait+0x24>
 8011a88:	2000      	movs	r0, #0
 8011a8a:	b002      	add	sp, #8
 8011a8c:	bd10      	pop	{r4, pc}
 8011a8e:	f04f 23e0 	mov.w	r3, #3758153728	; 0xe000e000
 8011a92:	f04f 5280 	mov.w	r2, #268435456	; 0x10000000
 8011a96:	f8c3 2d04 	str.w	r2, [r3, #3332]	; 0xd04
 8011a9a:	f3bf 8f4f 	dsb	sy
 8011a9e:	f3bf 8f6f 	isb	sy
 8011aa2:	e7f1      	b.n	8011a88 <osMutexWait+0x1e>
 8011aa4:	f000 fc27 	bl	80122f6 <xQueueSemaphoreTake>
 8011aa8:	2801      	cmp	r0, #1
 8011aaa:	d0ed      	beq.n	8011a88 <osMutexWait+0x1e>
 8011aac:	20ff      	movs	r0, #255	; 0xff
 8011aae:	e7ec      	b.n	8011a8a <osMutexWait+0x20>
 8011ab0:	2080      	movs	r0, #128	; 0x80
 8011ab2:	e7ea      	b.n	8011a8a <osMutexWait+0x20>

08011ab4 <osMutexRelease>:
 8011ab4:	b513      	push	{r0, r1, r4, lr}
 8011ab6:	2400      	movs	r4, #0
 8011ab8:	9401      	str	r4, [sp, #4]
 8011aba:	f3ef 8305 	mrs	r3, IPSR
 8011abe:	b1a3      	cbz	r3, 8011aea <osMutexRelease+0x36>
 8011ac0:	a901      	add	r1, sp, #4
 8011ac2:	f000 fb25 	bl	8012110 <xQueueGiveFromISR>
 8011ac6:	2801      	cmp	r0, #1
 8011ac8:	d115      	bne.n	8011af6 <osMutexRelease+0x42>
 8011aca:	9b01      	ldr	r3, [sp, #4]
 8011acc:	b913      	cbnz	r3, 8011ad4 <osMutexRelease+0x20>
 8011ace:	2000      	movs	r0, #0
 8011ad0:	b002      	add	sp, #8
 8011ad2:	bd10      	pop	{r4, pc}
 8011ad4:	f04f 23e0 	mov.w	r3, #3758153728	; 0xe000e000
 8011ad8:	f04f 5280 	mov.w	r2, #268435456	; 0x10000000
 8011adc:	f8c3 2d04 	str.w	r2, [r3, #3332]	; 0xd04
 8011ae0:	f3bf 8f4f 	dsb	sy
 8011ae4:	f3bf 8f6f 	isb	sy
 8011ae8:	e7f1      	b.n	8011ace <osMutexRelease+0x1a>
 8011aea:	461a      	mov	r2, r3
 8011aec:	4619      	mov	r1, r3
 8011aee:	f000 f9cb 	bl	8011e88 <xQueueGenericSend>
 8011af2:	2801      	cmp	r0, #1
 8011af4:	d0eb      	beq.n	8011ace <osMutexRelease+0x1a>
 8011af6:	20ff      	movs	r0, #255	; 0xff
 8011af8:	e7ea      	b.n	8011ad0 <osMutexRelease+0x1c>

08011afa <osSemaphoreCreate>:
 8011afa:	b537      	push	{r0, r1, r2, r4, r5, lr}
 8011afc:	6844      	ldr	r4, [r0, #4]
 8011afe:	460d      	mov	r5, r1
 8011b00:	b16c      	cbz	r4, 8011b1e <osSemaphoreCreate+0x24>
 8011b02:	2901      	cmp	r1, #1
 8011b04:	d11b      	bne.n	8011b3e <osSemaphoreCreate+0x44>
 8011b06:	2303      	movs	r3, #3
 8011b08:	2200      	movs	r2, #0
 8011b0a:	9300      	str	r3, [sp, #0]
 8011b0c:	4611      	mov	r1, r2
 8011b0e:	4623      	mov	r3, r4
 8011b10:	4628      	mov	r0, r5
 8011b12:	f000 f94b 	bl	8011dac <xQueueGenericCreateStatic>
 8011b16:	4604      	mov	r4, r0
 8011b18:	4620      	mov	r0, r4
 8011b1a:	b003      	add	sp, #12
 8011b1c:	bd30      	pop	{r4, r5, pc}
 8011b1e:	2901      	cmp	r1, #1
 8011b20:	d1fa      	bne.n	8011b18 <osSemaphoreCreate+0x1e>
 8011b22:	4621      	mov	r1, r4
 8011b24:	2203      	movs	r2, #3
 8011b26:	4628      	mov	r0, r5
 8011b28:	f000 f98a 	bl	8011e40 <xQueueGenericCreate>
 8011b2c:	4604      	mov	r4, r0
 8011b2e:	2800      	cmp	r0, #0
 8011b30:	d0f2      	beq.n	8011b18 <osSemaphoreCreate+0x1e>
 8011b32:	2300      	movs	r3, #0
 8011b34:	461a      	mov	r2, r3
 8011b36:	4619      	mov	r1, r3
 8011b38:	f000 f9a6 	bl	8011e88 <xQueueGenericSend>
 8011b3c:	e7ec      	b.n	8011b18 <osSemaphoreCreate+0x1e>
 8011b3e:	2400      	movs	r4, #0
 8011b40:	e7ea      	b.n	8011b18 <osSemaphoreCreate+0x1e>

08011b42 <osSemaphoreWait>:
 8011b42:	b513      	push	{r0, r1, r4, lr}
 8011b44:	2400      	movs	r4, #0
 8011b46:	9401      	str	r4, [sp, #4]
 8011b48:	b1f0      	cbz	r0, 8011b88 <osSemaphoreWait+0x46>
 8011b4a:	f3ef 8305 	mrs	r3, IPSR
 8011b4e:	b1ab      	cbz	r3, 8011b7c <osSemaphoreWait+0x3a>
 8011b50:	aa01      	add	r2, sp, #4
 8011b52:	4621      	mov	r1, r4
 8011b54:	f000 fc92 	bl	801247c <xQueueReceiveFromISR>
 8011b58:	2801      	cmp	r0, #1
 8011b5a:	d113      	bne.n	8011b84 <osSemaphoreWait+0x42>
 8011b5c:	9b01      	ldr	r3, [sp, #4]
 8011b5e:	b913      	cbnz	r3, 8011b66 <osSemaphoreWait+0x24>
 8011b60:	2000      	movs	r0, #0
 8011b62:	b002      	add	sp, #8
 8011b64:	bd10      	pop	{r4, pc}
 8011b66:	f04f 23e0 	mov.w	r3, #3758153728	; 0xe000e000
 8011b6a:	f04f 5280 	mov.w	r2, #268435456	; 0x10000000
 8011b6e:	f8c3 2d04 	str.w	r2, [r3, #3332]	; 0xd04
 8011b72:	f3bf 8f4f 	dsb	sy
 8011b76:	f3bf 8f6f 	isb	sy
 8011b7a:	e7f1      	b.n	8011b60 <osSemaphoreWait+0x1e>
 8011b7c:	f000 fbbb 	bl	80122f6 <xQueueSemaphoreTake>
 8011b80:	2801      	cmp	r0, #1
 8011b82:	d0ed      	beq.n	8011b60 <osSemaphoreWait+0x1e>
 8011b84:	20ff      	movs	r0, #255	; 0xff
 8011b86:	e7ec      	b.n	8011b62 <osSemaphoreWait+0x20>
 8011b88:	2080      	movs	r0, #128	; 0x80
 8011b8a:	e7ea      	b.n	8011b62 <osSemaphoreWait+0x20>

08011b8c <osSemaphoreRelease>:
 8011b8c:	f7ff bf92 	b.w	8011ab4 <osMutexRelease>

08011b90 <vListInitialise>:
 8011b90:	f100 0308 	add.w	r3, r0, #8
 8011b94:	f04f 32ff 	mov.w	r2, #4294967295
 8011b98:	e9c0 2302 	strd	r2, r3, [r0, #8]
 8011b9c:	6043      	str	r3, [r0, #4]
 8011b9e:	6103      	str	r3, [r0, #16]
 8011ba0:	2300      	movs	r3, #0
 8011ba2:	6003      	str	r3, [r0, #0]
 8011ba4:	4770      	bx	lr

08011ba6 <vListInitialiseItem>:
 8011ba6:	2300      	movs	r3, #0
 8011ba8:	6103      	str	r3, [r0, #16]
 8011baa:	4770      	bx	lr

08011bac <vListInsertEnd>:
 8011bac:	6843      	ldr	r3, [r0, #4]
 8011bae:	604b      	str	r3, [r1, #4]
 8011bb0:	689a      	ldr	r2, [r3, #8]
 8011bb2:	608a      	str	r2, [r1, #8]
 8011bb4:	689a      	ldr	r2, [r3, #8]
 8011bb6:	6051      	str	r1, [r2, #4]
 8011bb8:	6099      	str	r1, [r3, #8]
 8011bba:	6803      	ldr	r3, [r0, #0]
 8011bbc:	6108      	str	r0, [r1, #16]
 8011bbe:	3301      	adds	r3, #1
 8011bc0:	6003      	str	r3, [r0, #0]
 8011bc2:	4770      	bx	lr

08011bc4 <vListInsert>:
 8011bc4:	b530      	push	{r4, r5, lr}
 8011bc6:	680c      	ldr	r4, [r1, #0]
 8011bc8:	1c63      	adds	r3, r4, #1
 8011bca:	d10a      	bne.n	8011be2 <vListInsert+0x1e>
 8011bcc:	6903      	ldr	r3, [r0, #16]
 8011bce:	685a      	ldr	r2, [r3, #4]
 8011bd0:	604a      	str	r2, [r1, #4]
 8011bd2:	6091      	str	r1, [r2, #8]
 8011bd4:	608b      	str	r3, [r1, #8]
 8011bd6:	6059      	str	r1, [r3, #4]
 8011bd8:	6803      	ldr	r3, [r0, #0]
 8011bda:	6108      	str	r0, [r1, #16]
 8011bdc:	3301      	adds	r3, #1
 8011bde:	6003      	str	r3, [r0, #0]
 8011be0:	bd30      	pop	{r4, r5, pc}
 8011be2:	f100 0208 	add.w	r2, r0, #8
 8011be6:	4613      	mov	r3, r2
 8011be8:	6852      	ldr	r2, [r2, #4]
 8011bea:	6815      	ldr	r5, [r2, #0]
 8011bec:	42a5      	cmp	r5, r4
 8011bee:	d9fa      	bls.n	8011be6 <vListInsert+0x22>
 8011bf0:	e7ed      	b.n	8011bce <vListInsert+0xa>

08011bf2 <uxListRemove>:
 8011bf2:	e9d0 1201 	ldrd	r1, r2, [r0, #4]
 8011bf6:	6903      	ldr	r3, [r0, #16]
 8011bf8:	608a      	str	r2, [r1, #8]
 8011bfa:	6051      	str	r1, [r2, #4]
 8011bfc:	6859      	ldr	r1, [r3, #4]
 8011bfe:	4281      	cmp	r1, r0
 8011c00:	bf08      	it	eq
 8011c02:	605a      	streq	r2, [r3, #4]
 8011c04:	2200      	movs	r2, #0
 8011c06:	6102      	str	r2, [r0, #16]
 8011c08:	681a      	ldr	r2, [r3, #0]
 8011c0a:	3a01      	subs	r2, #1
 8011c0c:	601a      	str	r2, [r3, #0]
 8011c0e:	6818      	ldr	r0, [r3, #0]
 8011c10:	4770      	bx	lr

08011c12 <prvIsQueueEmpty>:
 8011c12:	b510      	push	{r4, lr}
 8011c14:	4604      	mov	r4, r0
 8011c16:	f001 fe75 	bl	8013904 <vPortEnterCritical>
 8011c1a:	6ba4      	ldr	r4, [r4, #56]	; 0x38
 8011c1c:	f001 fe92 	bl	8013944 <vPortExitCritical>
 8011c20:	fab4 f084 	clz	r0, r4
 8011c24:	0940      	lsrs	r0, r0, #5
 8011c26:	bd10      	pop	{r4, pc}

08011c28 <prvCopyDataToQueue>:
 8011c28:	b5f8      	push	{r3, r4, r5, r6, r7, lr}
 8011c2a:	4615      	mov	r5, r2
 8011c2c:	6c02      	ldr	r2, [r0, #64]	; 0x40
 8011c2e:	6b86      	ldr	r6, [r0, #56]	; 0x38
 8011c30:	4604      	mov	r4, r0
 8011c32:	b952      	cbnz	r2, 8011c4a <prvCopyDataToQueue+0x22>
 8011c34:	6807      	ldr	r7, [r0, #0]
 8011c36:	bb47      	cbnz	r7, 8011c8a <prvCopyDataToQueue+0x62>
 8011c38:	6880      	ldr	r0, [r0, #8]
 8011c3a:	f001 f9a5 	bl	8012f88 <xTaskPriorityDisinherit>
 8011c3e:	60a7      	str	r7, [r4, #8]
 8011c40:	4605      	mov	r5, r0
 8011c42:	3601      	adds	r6, #1
 8011c44:	63a6      	str	r6, [r4, #56]	; 0x38
 8011c46:	4628      	mov	r0, r5
 8011c48:	bdf8      	pop	{r3, r4, r5, r6, r7, pc}
 8011c4a:	b965      	cbnz	r5, 8011c66 <prvCopyDataToQueue+0x3e>
 8011c4c:	6840      	ldr	r0, [r0, #4]
 8011c4e:	f003 fc3b 	bl	80154c8 <memcpy>
 8011c52:	6863      	ldr	r3, [r4, #4]
 8011c54:	6c22      	ldr	r2, [r4, #64]	; 0x40
 8011c56:	4413      	add	r3, r2
 8011c58:	68a2      	ldr	r2, [r4, #8]
 8011c5a:	6063      	str	r3, [r4, #4]
 8011c5c:	4293      	cmp	r3, r2
 8011c5e:	d3f0      	bcc.n	8011c42 <prvCopyDataToQueue+0x1a>
 8011c60:	6823      	ldr	r3, [r4, #0]
 8011c62:	6063      	str	r3, [r4, #4]
 8011c64:	e7ed      	b.n	8011c42 <prvCopyDataToQueue+0x1a>
 8011c66:	68c0      	ldr	r0, [r0, #12]
 8011c68:	f003 fc2e 	bl	80154c8 <memcpy>
 8011c6c:	6c22      	ldr	r2, [r4, #64]	; 0x40
 8011c6e:	68e3      	ldr	r3, [r4, #12]
 8011c70:	4251      	negs	r1, r2
 8011c72:	1a9b      	subs	r3, r3, r2
 8011c74:	6822      	ldr	r2, [r4, #0]
 8011c76:	60e3      	str	r3, [r4, #12]
 8011c78:	4293      	cmp	r3, r2
 8011c7a:	bf3e      	ittt	cc
 8011c7c:	68a3      	ldrcc	r3, [r4, #8]
 8011c7e:	185b      	addcc	r3, r3, r1
 8011c80:	60e3      	strcc	r3, [r4, #12]
 8011c82:	2d02      	cmp	r5, #2
 8011c84:	d101      	bne.n	8011c8a <prvCopyDataToQueue+0x62>
 8011c86:	b116      	cbz	r6, 8011c8e <prvCopyDataToQueue+0x66>
 8011c88:	3e01      	subs	r6, #1
 8011c8a:	2500      	movs	r5, #0
 8011c8c:	e7d9      	b.n	8011c42 <prvCopyDataToQueue+0x1a>
 8011c8e:	4635      	mov	r5, r6
 8011c90:	e7d7      	b.n	8011c42 <prvCopyDataToQueue+0x1a>

08011c92 <prvCopyDataFromQueue>:
 8011c92:	4603      	mov	r3, r0
 8011c94:	b410      	push	{r4}
 8011c96:	6c1a      	ldr	r2, [r3, #64]	; 0x40
 8011c98:	4608      	mov	r0, r1
 8011c9a:	b16a      	cbz	r2, 8011cb8 <prvCopyDataFromQueue+0x26>
 8011c9c:	68dc      	ldr	r4, [r3, #12]
 8011c9e:	6899      	ldr	r1, [r3, #8]
 8011ca0:	4414      	add	r4, r2
 8011ca2:	428c      	cmp	r4, r1
 8011ca4:	bf28      	it	cs
 8011ca6:	6819      	ldrcs	r1, [r3, #0]
 8011ca8:	60dc      	str	r4, [r3, #12]
 8011caa:	bf28      	it	cs
 8011cac:	60d9      	strcs	r1, [r3, #12]
 8011cae:	68d9      	ldr	r1, [r3, #12]
 8011cb0:	f85d 4b04 	ldr.w	r4, [sp], #4
 8011cb4:	f003 bc08 	b.w	80154c8 <memcpy>
 8011cb8:	f85d 4b04 	ldr.w	r4, [sp], #4
 8011cbc:	4770      	bx	lr

08011cbe <prvUnlockQueue>:
 8011cbe:	b570      	push	{r4, r5, r6, lr}
 8011cc0:	4604      	mov	r4, r0
 8011cc2:	f001 fe1f 	bl	8013904 <vPortEnterCritical>
 8011cc6:	f894 5045 	ldrb.w	r5, [r4, #69]	; 0x45
 8011cca:	f104 0624 	add.w	r6, r4, #36	; 0x24
 8011cce:	b26d      	sxtb	r5, r5
 8011cd0:	2d00      	cmp	r5, #0
 8011cd2:	dc14      	bgt.n	8011cfe <prvUnlockQueue+0x40>
 8011cd4:	23ff      	movs	r3, #255	; 0xff
 8011cd6:	f884 3045 	strb.w	r3, [r4, #69]	; 0x45
 8011cda:	f001 fe33 	bl	8013944 <vPortExitCritical>
 8011cde:	f001 fe11 	bl	8013904 <vPortEnterCritical>
 8011ce2:	f894 5044 	ldrb.w	r5, [r4, #68]	; 0x44
 8011ce6:	f104 0610 	add.w	r6, r4, #16
 8011cea:	b26d      	sxtb	r5, r5
 8011cec:	2d00      	cmp	r5, #0
 8011cee:	dc12      	bgt.n	8011d16 <prvUnlockQueue+0x58>
 8011cf0:	23ff      	movs	r3, #255	; 0xff
 8011cf2:	f884 3044 	strb.w	r3, [r4, #68]	; 0x44
 8011cf6:	e8bd 4070 	ldmia.w	sp!, {r4, r5, r6, lr}
 8011cfa:	f001 be23 	b.w	8013944 <vPortExitCritical>
 8011cfe:	6a63      	ldr	r3, [r4, #36]	; 0x24
 8011d00:	2b00      	cmp	r3, #0
 8011d02:	d0e7      	beq.n	8011cd4 <prvUnlockQueue+0x16>
 8011d04:	4630      	mov	r0, r6
 8011d06:	f001 f851 	bl	8012dac <xTaskRemoveFromEventList>
 8011d0a:	b108      	cbz	r0, 8011d10 <prvUnlockQueue+0x52>
 8011d0c:	f001 f8da 	bl	8012ec4 <vTaskMissedYield>
 8011d10:	3d01      	subs	r5, #1
 8011d12:	b26d      	sxtb	r5, r5
 8011d14:	e7dc      	b.n	8011cd0 <prvUnlockQueue+0x12>
 8011d16:	6923      	ldr	r3, [r4, #16]
 8011d18:	2b00      	cmp	r3, #0
 8011d1a:	d0e9      	beq.n	8011cf0 <prvUnlockQueue+0x32>
 8011d1c:	4630      	mov	r0, r6
 8011d1e:	f001 f845 	bl	8012dac <xTaskRemoveFromEventList>
 8011d22:	b108      	cbz	r0, 8011d28 <prvUnlockQueue+0x6a>
 8011d24:	f001 f8ce 	bl	8012ec4 <vTaskMissedYield>
 8011d28:	3d01      	subs	r5, #1
 8011d2a:	b26d      	sxtb	r5, r5
 8011d2c:	e7de      	b.n	8011cec <prvUnlockQueue+0x2e>

08011d2e <xQueueGenericReset>:
 8011d2e:	b538      	push	{r3, r4, r5, lr}
 8011d30:	460d      	mov	r5, r1
 8011d32:	4604      	mov	r4, r0
 8011d34:	b940      	cbnz	r0, 8011d48 <xQueueGenericReset+0x1a>
 8011d36:	f04f 0350 	mov.w	r3, #80	; 0x50
 8011d3a:	f383 8811 	msr	BASEPRI, r3
 8011d3e:	f3bf 8f6f 	isb	sy
 8011d42:	f3bf 8f4f 	dsb	sy
 8011d46:	e7fe      	b.n	8011d46 <xQueueGenericReset+0x18>
 8011d48:	f001 fddc 	bl	8013904 <vPortEnterCritical>
 8011d4c:	e9d4 310f 	ldrd	r3, r1, [r4, #60]	; 0x3c
 8011d50:	6822      	ldr	r2, [r4, #0]
 8011d52:	6062      	str	r2, [r4, #4]
 8011d54:	434b      	muls	r3, r1
 8011d56:	18d0      	adds	r0, r2, r3
 8011d58:	1a5b      	subs	r3, r3, r1
 8011d5a:	4413      	add	r3, r2
 8011d5c:	60a0      	str	r0, [r4, #8]
 8011d5e:	60e3      	str	r3, [r4, #12]
 8011d60:	2000      	movs	r0, #0
 8011d62:	23ff      	movs	r3, #255	; 0xff
 8011d64:	63a0      	str	r0, [r4, #56]	; 0x38
 8011d66:	f884 3044 	strb.w	r3, [r4, #68]	; 0x44
 8011d6a:	f884 3045 	strb.w	r3, [r4, #69]	; 0x45
 8011d6e:	b9a5      	cbnz	r5, 8011d9a <xQueueGenericReset+0x6c>
 8011d70:	6923      	ldr	r3, [r4, #16]
 8011d72:	b173      	cbz	r3, 8011d92 <xQueueGenericReset+0x64>
 8011d74:	f104 0010 	add.w	r0, r4, #16
 8011d78:	f001 f818 	bl	8012dac <xTaskRemoveFromEventList>
 8011d7c:	b148      	cbz	r0, 8011d92 <xQueueGenericReset+0x64>
 8011d7e:	f04f 23e0 	mov.w	r3, #3758153728	; 0xe000e000
 8011d82:	f04f 5280 	mov.w	r2, #268435456	; 0x10000000
 8011d86:	f8c3 2d04 	str.w	r2, [r3, #3332]	; 0xd04
 8011d8a:	f3bf 8f4f 	dsb	sy
 8011d8e:	f3bf 8f6f 	isb	sy
 8011d92:	f001 fdd7 	bl	8013944 <vPortExitCritical>
 8011d96:	2001      	movs	r0, #1
 8011d98:	bd38      	pop	{r3, r4, r5, pc}
 8011d9a:	f104 0010 	add.w	r0, r4, #16
 8011d9e:	f7ff fef7 	bl	8011b90 <vListInitialise>
 8011da2:	f104 0024 	add.w	r0, r4, #36	; 0x24
 8011da6:	f7ff fef3 	bl	8011b90 <vListInitialise>
 8011daa:	e7f2      	b.n	8011d92 <xQueueGenericReset+0x64>

08011dac <xQueueGenericCreateStatic>:
 8011dac:	b513      	push	{r0, r1, r4, lr}
 8011dae:	461c      	mov	r4, r3
 8011db0:	b940      	cbnz	r0, 8011dc4 <xQueueGenericCreateStatic+0x18>
 8011db2:	f04f 0350 	mov.w	r3, #80	; 0x50
 8011db6:	f383 8811 	msr	BASEPRI, r3
 8011dba:	f3bf 8f6f 	isb	sy
 8011dbe:	f3bf 8f4f 	dsb	sy
 8011dc2:	e7fe      	b.n	8011dc2 <xQueueGenericCreateStatic+0x16>
 8011dc4:	b943      	cbnz	r3, 8011dd8 <xQueueGenericCreateStatic+0x2c>
 8011dc6:	f04f 0350 	mov.w	r3, #80	; 0x50
 8011dca:	f383 8811 	msr	BASEPRI, r3
 8011dce:	f3bf 8f6f 	isb	sy
 8011dd2:	f3bf 8f4f 	dsb	sy
 8011dd6:	e7fe      	b.n	8011dd6 <xQueueGenericCreateStatic+0x2a>
 8011dd8:	b14a      	cbz	r2, 8011dee <xQueueGenericCreateStatic+0x42>
 8011dda:	b991      	cbnz	r1, 8011e02 <xQueueGenericCreateStatic+0x56>
 8011ddc:	f04f 0350 	mov.w	r3, #80	; 0x50
 8011de0:	f383 8811 	msr	BASEPRI, r3
 8011de4:	f3bf 8f6f 	isb	sy
 8011de8:	f3bf 8f4f 	dsb	sy
 8011dec:	e7fe      	b.n	8011dec <xQueueGenericCreateStatic+0x40>
 8011dee:	b141      	cbz	r1, 8011e02 <xQueueGenericCreateStatic+0x56>
 8011df0:	f04f 0350 	mov.w	r3, #80	; 0x50
 8011df4:	f383 8811 	msr	BASEPRI, r3
 8011df8:	f3bf 8f6f 	isb	sy
 8011dfc:	f3bf 8f4f 	dsb	sy
 8011e00:	e7fe      	b.n	8011e00 <xQueueGenericCreateStatic+0x54>
 8011e02:	2348      	movs	r3, #72	; 0x48
 8011e04:	9301      	str	r3, [sp, #4]
 8011e06:	9b01      	ldr	r3, [sp, #4]
 8011e08:	2b48      	cmp	r3, #72	; 0x48
 8011e0a:	d008      	beq.n	8011e1e <xQueueGenericCreateStatic+0x72>
 8011e0c:	f04f 0350 	mov.w	r3, #80	; 0x50
 8011e10:	f383 8811 	msr	BASEPRI, r3
 8011e14:	f3bf 8f6f 	isb	sy
 8011e18:	f3bf 8f4f 	dsb	sy
 8011e1c:	e7fe      	b.n	8011e1c <xQueueGenericCreateStatic+0x70>
 8011e1e:	2900      	cmp	r1, #0
 8011e20:	bf08      	it	eq
 8011e22:	4622      	moveq	r2, r4
 8011e24:	9b01      	ldr	r3, [sp, #4]
 8011e26:	6022      	str	r2, [r4, #0]
 8011e28:	2301      	movs	r3, #1
 8011e2a:	e9c4 010f 	strd	r0, r1, [r4, #60]	; 0x3c
 8011e2e:	f884 3046 	strb.w	r3, [r4, #70]	; 0x46
 8011e32:	4619      	mov	r1, r3
 8011e34:	4620      	mov	r0, r4
 8011e36:	f7ff ff7a 	bl	8011d2e <xQueueGenericReset>
 8011e3a:	4620      	mov	r0, r4
 8011e3c:	b002      	add	sp, #8
 8011e3e:	bd10      	pop	{r4, pc}

08011e40 <xQueueGenericCreate>:
 8011e40:	b570      	push	{r4, r5, r6, lr}
 8011e42:	460d      	mov	r5, r1
 8011e44:	4606      	mov	r6, r0
 8011e46:	b940      	cbnz	r0, 8011e5a <xQueueGenericCreate+0x1a>
 8011e48:	f04f 0350 	mov.w	r3, #80	; 0x50
 8011e4c:	f383 8811 	msr	BASEPRI, r3
 8011e50:	f3bf 8f6f 	isb	sy
 8011e54:	f3bf 8f4f 	dsb	sy
 8011e58:	e7fe      	b.n	8011e58 <xQueueGenericCreate+0x18>
 8011e5a:	4348      	muls	r0, r1
 8011e5c:	3048      	adds	r0, #72	; 0x48
 8011e5e:	f001 fe95 	bl	8013b8c <pvPortMalloc>
 8011e62:	4604      	mov	r4, r0
 8011e64:	b160      	cbz	r0, 8011e80 <xQueueGenericCreate+0x40>
 8011e66:	2300      	movs	r3, #0
 8011e68:	f880 3046 	strb.w	r3, [r0, #70]	; 0x46
 8011e6c:	b155      	cbz	r5, 8011e84 <xQueueGenericCreate+0x44>
 8011e6e:	f100 0348 	add.w	r3, r0, #72	; 0x48
 8011e72:	e9c4 650f 	strd	r6, r5, [r4, #60]	; 0x3c
 8011e76:	6023      	str	r3, [r4, #0]
 8011e78:	2101      	movs	r1, #1
 8011e7a:	4620      	mov	r0, r4
 8011e7c:	f7ff ff57 	bl	8011d2e <xQueueGenericReset>
 8011e80:	4620      	mov	r0, r4
 8011e82:	bd70      	pop	{r4, r5, r6, pc}
 8011e84:	4603      	mov	r3, r0
 8011e86:	e7f4      	b.n	8011e72 <xQueueGenericCreate+0x32>

08011e88 <xQueueGenericSend>:
 8011e88:	e92d 43f0 	stmdb	sp!, {r4, r5, r6, r7, r8, r9, lr}
 8011e8c:	b085      	sub	sp, #20
 8011e8e:	4688      	mov	r8, r1
 8011e90:	9201      	str	r2, [sp, #4]
 8011e92:	461f      	mov	r7, r3
 8011e94:	4604      	mov	r4, r0
 8011e96:	b940      	cbnz	r0, 8011eaa <xQueueGenericSend+0x22>
 8011e98:	f04f 0350 	mov.w	r3, #80	; 0x50
 8011e9c:	f383 8811 	msr	BASEPRI, r3
 8011ea0:	f3bf 8f6f 	isb	sy
 8011ea4:	f3bf 8f4f 	dsb	sy
 8011ea8:	e7fe      	b.n	8011ea8 <xQueueGenericSend+0x20>
 8011eaa:	b951      	cbnz	r1, 8011ec2 <xQueueGenericSend+0x3a>
 8011eac:	6c03      	ldr	r3, [r0, #64]	; 0x40
 8011eae:	b143      	cbz	r3, 8011ec2 <xQueueGenericSend+0x3a>
 8011eb0:	f04f 0350 	mov.w	r3, #80	; 0x50
 8011eb4:	f383 8811 	msr	BASEPRI, r3
 8011eb8:	f3bf 8f6f 	isb	sy
 8011ebc:	f3bf 8f4f 	dsb	sy
 8011ec0:	e7fe      	b.n	8011ec0 <xQueueGenericSend+0x38>
 8011ec2:	2f02      	cmp	r7, #2
 8011ec4:	d10b      	bne.n	8011ede <xQueueGenericSend+0x56>
 8011ec6:	6be3      	ldr	r3, [r4, #60]	; 0x3c
 8011ec8:	2b01      	cmp	r3, #1
 8011eca:	d008      	beq.n	8011ede <xQueueGenericSend+0x56>
 8011ecc:	f04f 0350 	mov.w	r3, #80	; 0x50
 8011ed0:	f383 8811 	msr	BASEPRI, r3
 8011ed4:	f3bf 8f6f 	isb	sy
 8011ed8:	f3bf 8f4f 	dsb	sy
 8011edc:	e7fe      	b.n	8011edc <xQueueGenericSend+0x54>
 8011ede:	f000 fff7 	bl	8012ed0 <xTaskGetSchedulerState>
 8011ee2:	4606      	mov	r6, r0
 8011ee4:	b950      	cbnz	r0, 8011efc <xQueueGenericSend+0x74>
 8011ee6:	9b01      	ldr	r3, [sp, #4]
 8011ee8:	b14b      	cbz	r3, 8011efe <xQueueGenericSend+0x76>
 8011eea:	f04f 0350 	mov.w	r3, #80	; 0x50
 8011eee:	f383 8811 	msr	BASEPRI, r3
 8011ef2:	f3bf 8f6f 	isb	sy
 8011ef6:	f3bf 8f4f 	dsb	sy
 8011efa:	e7fe      	b.n	8011efa <xQueueGenericSend+0x72>
 8011efc:	2600      	movs	r6, #0
 8011efe:	f04f 0900 	mov.w	r9, #0
 8011f02:	e037      	b.n	8011f74 <xQueueGenericSend+0xec>
 8011f04:	9d01      	ldr	r5, [sp, #4]
 8011f06:	b91d      	cbnz	r5, 8011f10 <xQueueGenericSend+0x88>
 8011f08:	f001 fd1c 	bl	8013944 <vPortExitCritical>
 8011f0c:	2000      	movs	r0, #0
 8011f0e:	e052      	b.n	8011fb6 <xQueueGenericSend+0x12e>
 8011f10:	b916      	cbnz	r6, 8011f18 <xQueueGenericSend+0x90>
 8011f12:	a802      	add	r0, sp, #8
 8011f14:	f000 ff8e 	bl	8012e34 <vTaskInternalSetTimeOutState>
 8011f18:	f001 fd14 	bl	8013944 <vPortExitCritical>
 8011f1c:	f000 fd7c 	bl	8012a18 <vTaskSuspendAll>
 8011f20:	f001 fcf0 	bl	8013904 <vPortEnterCritical>
 8011f24:	f894 3044 	ldrb.w	r3, [r4, #68]	; 0x44
 8011f28:	2bff      	cmp	r3, #255	; 0xff
 8011f2a:	bf08      	it	eq
 8011f2c:	f884 9044 	strbeq.w	r9, [r4, #68]	; 0x44
 8011f30:	f894 3045 	ldrb.w	r3, [r4, #69]	; 0x45
 8011f34:	2bff      	cmp	r3, #255	; 0xff
 8011f36:	bf08      	it	eq
 8011f38:	f884 9045 	strbeq.w	r9, [r4, #69]	; 0x45
 8011f3c:	f001 fd02 	bl	8013944 <vPortExitCritical>
 8011f40:	a901      	add	r1, sp, #4
 8011f42:	a802      	add	r0, sp, #8
 8011f44:	f000 ff82 	bl	8012e4c <xTaskCheckForTimeOut>
 8011f48:	2800      	cmp	r0, #0
 8011f4a:	d14a      	bne.n	8011fe2 <xQueueGenericSend+0x15a>
 8011f4c:	f001 fcda 	bl	8013904 <vPortEnterCritical>
 8011f50:	6ba2      	ldr	r2, [r4, #56]	; 0x38
 8011f52:	6be3      	ldr	r3, [r4, #60]	; 0x3c
 8011f54:	429a      	cmp	r2, r3
 8011f56:	d131      	bne.n	8011fbc <xQueueGenericSend+0x134>
 8011f58:	f001 fcf4 	bl	8013944 <vPortExitCritical>
 8011f5c:	9901      	ldr	r1, [sp, #4]
 8011f5e:	f104 0010 	add.w	r0, r4, #16
 8011f62:	f000 feeb 	bl	8012d3c <vTaskPlaceOnEventList>
 8011f66:	4620      	mov	r0, r4
 8011f68:	f7ff fea9 	bl	8011cbe <prvUnlockQueue>
 8011f6c:	f000 fdfa 	bl	8012b64 <xTaskResumeAll>
 8011f70:	b360      	cbz	r0, 8011fcc <xQueueGenericSend+0x144>
 8011f72:	2601      	movs	r6, #1
 8011f74:	f001 fcc6 	bl	8013904 <vPortEnterCritical>
 8011f78:	6ba2      	ldr	r2, [r4, #56]	; 0x38
 8011f7a:	6be3      	ldr	r3, [r4, #60]	; 0x3c
 8011f7c:	429a      	cmp	r2, r3
 8011f7e:	d301      	bcc.n	8011f84 <xQueueGenericSend+0xfc>
 8011f80:	2f02      	cmp	r7, #2
 8011f82:	d1bf      	bne.n	8011f04 <xQueueGenericSend+0x7c>
 8011f84:	463a      	mov	r2, r7
 8011f86:	4641      	mov	r1, r8
 8011f88:	4620      	mov	r0, r4
 8011f8a:	f7ff fe4d 	bl	8011c28 <prvCopyDataToQueue>
 8011f8e:	6a63      	ldr	r3, [r4, #36]	; 0x24
 8011f90:	b11b      	cbz	r3, 8011f9a <xQueueGenericSend+0x112>
 8011f92:	f104 0024 	add.w	r0, r4, #36	; 0x24
 8011f96:	f000 ff09 	bl	8012dac <xTaskRemoveFromEventList>
 8011f9a:	b148      	cbz	r0, 8011fb0 <xQueueGenericSend+0x128>
 8011f9c:	f04f 23e0 	mov.w	r3, #3758153728	; 0xe000e000
 8011fa0:	f04f 5280 	mov.w	r2, #268435456	; 0x10000000
 8011fa4:	f8c3 2d04 	str.w	r2, [r3, #3332]	; 0xd04
 8011fa8:	f3bf 8f4f 	dsb	sy
 8011fac:	f3bf 8f6f 	isb	sy
 8011fb0:	f001 fcc8 	bl	8013944 <vPortExitCritical>
 8011fb4:	2001      	movs	r0, #1
 8011fb6:	b005      	add	sp, #20
 8011fb8:	e8bd 83f0 	ldmia.w	sp!, {r4, r5, r6, r7, r8, r9, pc}
 8011fbc:	f001 fcc2 	bl	8013944 <vPortExitCritical>
 8011fc0:	4620      	mov	r0, r4
 8011fc2:	f7ff fe7c 	bl	8011cbe <prvUnlockQueue>
 8011fc6:	f000 fdcd 	bl	8012b64 <xTaskResumeAll>
 8011fca:	e7d2      	b.n	8011f72 <xQueueGenericSend+0xea>
 8011fcc:	f04f 23e0 	mov.w	r3, #3758153728	; 0xe000e000
 8011fd0:	f04f 5280 	mov.w	r2, #268435456	; 0x10000000
 8011fd4:	f8c3 2d04 	str.w	r2, [r3, #3332]	; 0xd04
 8011fd8:	f3bf 8f4f 	dsb	sy
 8011fdc:	f3bf 8f6f 	isb	sy
 8011fe0:	e7c7      	b.n	8011f72 <xQueueGenericSend+0xea>
 8011fe2:	4620      	mov	r0, r4
 8011fe4:	f7ff fe6b 	bl	8011cbe <prvUnlockQueue>
 8011fe8:	f000 fdbc 	bl	8012b64 <xTaskResumeAll>
 8011fec:	e78e      	b.n	8011f0c <xQueueGenericSend+0x84>

08011fee <xQueueCreateMutexStatic>:
 8011fee:	b513      	push	{r0, r1, r4, lr}
 8011ff0:	2200      	movs	r2, #0
 8011ff2:	460b      	mov	r3, r1
 8011ff4:	9000      	str	r0, [sp, #0]
 8011ff6:	4611      	mov	r1, r2
 8011ff8:	2001      	movs	r0, #1
 8011ffa:	f7ff fed7 	bl	8011dac <xQueueGenericCreateStatic>
 8011ffe:	4604      	mov	r4, r0
 8012000:	b138      	cbz	r0, 8012012 <xQueueCreateMutexStatic+0x24>
 8012002:	2300      	movs	r3, #0
 8012004:	6083      	str	r3, [r0, #8]
 8012006:	6003      	str	r3, [r0, #0]
 8012008:	60c3      	str	r3, [r0, #12]
 801200a:	461a      	mov	r2, r3
 801200c:	4619      	mov	r1, r3
 801200e:	f7ff ff3b 	bl	8011e88 <xQueueGenericSend>
 8012012:	4620      	mov	r0, r4
 8012014:	b002      	add	sp, #8
 8012016:	bd10      	pop	{r4, pc}

08012018 <xQueueCreateMutex>:
 8012018:	b538      	push	{r3, r4, r5, lr}
 801201a:	2048      	movs	r0, #72	; 0x48
 801201c:	f001 fdb6 	bl	8013b8c <pvPortMalloc>
 8012020:	4604      	mov	r4, r0
 8012022:	b188      	cbz	r0, 8012048 <xQueueCreateMutex+0x30>
 8012024:	2500      	movs	r5, #0
 8012026:	2101      	movs	r1, #1
 8012028:	e9c0 150f 	strd	r1, r5, [r0, #60]	; 0x3c
 801202c:	f880 5046 	strb.w	r5, [r0, #70]	; 0x46
 8012030:	6000      	str	r0, [r0, #0]
 8012032:	f7ff fe7c 	bl	8011d2e <xQueueGenericReset>
 8012036:	60a5      	str	r5, [r4, #8]
 8012038:	6025      	str	r5, [r4, #0]
 801203a:	60e5      	str	r5, [r4, #12]
 801203c:	462b      	mov	r3, r5
 801203e:	462a      	mov	r2, r5
 8012040:	4629      	mov	r1, r5
 8012042:	4620      	mov	r0, r4
 8012044:	f7ff ff20 	bl	8011e88 <xQueueGenericSend>
 8012048:	4620      	mov	r0, r4
 801204a:	bd38      	pop	{r3, r4, r5, pc}

0801204c <xQueueGenericSendFromISR>:
 801204c:	e92d 43f8 	stmdb	sp!, {r3, r4, r5, r6, r7, r8, r9, lr}
 8012050:	4689      	mov	r9, r1
 8012052:	4690      	mov	r8, r2
 8012054:	461f      	mov	r7, r3
 8012056:	4604      	mov	r4, r0
 8012058:	b940      	cbnz	r0, 801206c <xQueueGenericSendFromISR+0x20>
 801205a:	f04f 0350 	mov.w	r3, #80	; 0x50
 801205e:	f383 8811 	msr	BASEPRI, r3
 8012062:	f3bf 8f6f 	isb	sy
 8012066:	f3bf 8f4f 	dsb	sy
 801206a:	e7fe      	b.n	801206a <xQueueGenericSendFromISR+0x1e>
 801206c:	b951      	cbnz	r1, 8012084 <xQueueGenericSendFromISR+0x38>
 801206e:	6c03      	ldr	r3, [r0, #64]	; 0x40
 8012070:	b143      	cbz	r3, 8012084 <xQueueGenericSendFromISR+0x38>
 8012072:	f04f 0350 	mov.w	r3, #80	; 0x50
 8012076:	f383 8811 	msr	BASEPRI, r3
 801207a:	f3bf 8f6f 	isb	sy
 801207e:	f3bf 8f4f 	dsb	sy
 8012082:	e7fe      	b.n	8012082 <xQueueGenericSendFromISR+0x36>
 8012084:	2f02      	cmp	r7, #2
 8012086:	d10b      	bne.n	80120a0 <xQueueGenericSendFromISR+0x54>
 8012088:	6be3      	ldr	r3, [r4, #60]	; 0x3c
 801208a:	2b01      	cmp	r3, #1
 801208c:	d008      	beq.n	80120a0 <xQueueGenericSendFromISR+0x54>
 801208e:	f04f 0350 	mov.w	r3, #80	; 0x50
 8012092:	f383 8811 	msr	BASEPRI, r3
 8012096:	f3bf 8f6f 	isb	sy
 801209a:	f3bf 8f4f 	dsb	sy
 801209e:	e7fe      	b.n	801209e <xQueueGenericSendFromISR+0x52>
 80120a0:	f001 fd46 	bl	8013b30 <vPortValidateInterruptPriority>
 80120a4:	f3ef 8611 	mrs	r6, BASEPRI
 80120a8:	f04f 0350 	mov.w	r3, #80	; 0x50
 80120ac:	f383 8811 	msr	BASEPRI, r3
 80120b0:	f3bf 8f6f 	isb	sy
 80120b4:	f3bf 8f4f 	dsb	sy
 80120b8:	6ba2      	ldr	r2, [r4, #56]	; 0x38
 80120ba:	6be3      	ldr	r3, [r4, #60]	; 0x3c
 80120bc:	429a      	cmp	r2, r3
 80120be:	d301      	bcc.n	80120c4 <xQueueGenericSendFromISR+0x78>
 80120c0:	2f02      	cmp	r7, #2
 80120c2:	d123      	bne.n	801210c <xQueueGenericSendFromISR+0xc0>
 80120c4:	f894 5045 	ldrb.w	r5, [r4, #69]	; 0x45
 80120c8:	6ba3      	ldr	r3, [r4, #56]	; 0x38
 80120ca:	b26d      	sxtb	r5, r5
 80120cc:	463a      	mov	r2, r7
 80120ce:	4649      	mov	r1, r9
 80120d0:	4620      	mov	r0, r4
 80120d2:	f7ff fda9 	bl	8011c28 <prvCopyDataToQueue>
 80120d6:	1c6b      	adds	r3, r5, #1
 80120d8:	d113      	bne.n	8012102 <xQueueGenericSendFromISR+0xb6>
 80120da:	6a63      	ldr	r3, [r4, #36]	; 0x24
 80120dc:	b90b      	cbnz	r3, 80120e2 <xQueueGenericSendFromISR+0x96>
 80120de:	2001      	movs	r0, #1
 80120e0:	e00b      	b.n	80120fa <xQueueGenericSendFromISR+0xae>
 80120e2:	f104 0024 	add.w	r0, r4, #36	; 0x24
 80120e6:	f000 fe61 	bl	8012dac <xTaskRemoveFromEventList>
 80120ea:	2800      	cmp	r0, #0
 80120ec:	d0f7      	beq.n	80120de <xQueueGenericSendFromISR+0x92>
 80120ee:	f1b8 0f00 	cmp.w	r8, #0
 80120f2:	d0f4      	beq.n	80120de <xQueueGenericSendFromISR+0x92>
 80120f4:	2001      	movs	r0, #1
 80120f6:	f8c8 0000 	str.w	r0, [r8]
 80120fa:	f386 8811 	msr	BASEPRI, r6
 80120fe:	e8bd 83f8 	ldmia.w	sp!, {r3, r4, r5, r6, r7, r8, r9, pc}
 8012102:	3501      	adds	r5, #1
 8012104:	b26d      	sxtb	r5, r5
 8012106:	f884 5045 	strb.w	r5, [r4, #69]	; 0x45
 801210a:	e7e8      	b.n	80120de <xQueueGenericSendFromISR+0x92>
 801210c:	2000      	movs	r0, #0
 801210e:	e7f4      	b.n	80120fa <xQueueGenericSendFromISR+0xae>

08012110 <xQueueGiveFromISR>:
 8012110:	b570      	push	{r4, r5, r6, lr}
 8012112:	460d      	mov	r5, r1
 8012114:	4604      	mov	r4, r0
 8012116:	b940      	cbnz	r0, 801212a <xQueueGiveFromISR+0x1a>
 8012118:	f04f 0350 	mov.w	r3, #80	; 0x50
 801211c:	f383 8811 	msr	BASEPRI, r3
 8012120:	f3bf 8f6f 	isb	sy
 8012124:	f3bf 8f4f 	dsb	sy
 8012128:	e7fe      	b.n	8012128 <xQueueGiveFromISR+0x18>
 801212a:	6c03      	ldr	r3, [r0, #64]	; 0x40
 801212c:	b143      	cbz	r3, 8012140 <xQueueGiveFromISR+0x30>
 801212e:	f04f 0350 	mov.w	r3, #80	; 0x50
 8012132:	f383 8811 	msr	BASEPRI, r3
 8012136:	f3bf 8f6f 	isb	sy
 801213a:	f3bf 8f4f 	dsb	sy
 801213e:	e7fe      	b.n	801213e <xQueueGiveFromISR+0x2e>
 8012140:	6803      	ldr	r3, [r0, #0]
 8012142:	b953      	cbnz	r3, 801215a <xQueueGiveFromISR+0x4a>
 8012144:	6883      	ldr	r3, [r0, #8]
 8012146:	b143      	cbz	r3, 801215a <xQueueGiveFromISR+0x4a>
 8012148:	f04f 0350 	mov.w	r3, #80	; 0x50
 801214c:	f383 8811 	msr	BASEPRI, r3
 8012150:	f3bf 8f6f 	isb	sy
 8012154:	f3bf 8f4f 	dsb	sy
 8012158:	e7fe      	b.n	8012158 <xQueueGiveFromISR+0x48>
 801215a:	f001 fce9 	bl	8013b30 <vPortValidateInterruptPriority>
 801215e:	f3ef 8611 	mrs	r6, BASEPRI
 8012162:	f04f 0350 	mov.w	r3, #80	; 0x50
 8012166:	f383 8811 	msr	BASEPRI, r3
 801216a:	f3bf 8f6f 	isb	sy
 801216e:	f3bf 8f4f 	dsb	sy
 8012172:	6ba2      	ldr	r2, [r4, #56]	; 0x38
 8012174:	6be3      	ldr	r3, [r4, #60]	; 0x3c
 8012176:	4293      	cmp	r3, r2
 8012178:	d91c      	bls.n	80121b4 <xQueueGiveFromISR+0xa4>
 801217a:	f894 1045 	ldrb.w	r1, [r4, #69]	; 0x45
 801217e:	3201      	adds	r2, #1
 8012180:	29ff      	cmp	r1, #255	; 0xff
 8012182:	b24b      	sxtb	r3, r1
 8012184:	63a2      	str	r2, [r4, #56]	; 0x38
 8012186:	d110      	bne.n	80121aa <xQueueGiveFromISR+0x9a>
 8012188:	6a63      	ldr	r3, [r4, #36]	; 0x24
 801218a:	b90b      	cbnz	r3, 8012190 <xQueueGiveFromISR+0x80>
 801218c:	2001      	movs	r0, #1
 801218e:	e009      	b.n	80121a4 <xQueueGiveFromISR+0x94>
 8012190:	f104 0024 	add.w	r0, r4, #36	; 0x24
 8012194:	f000 fe0a 	bl	8012dac <xTaskRemoveFromEventList>
 8012198:	2800      	cmp	r0, #0
 801219a:	d0f7      	beq.n	801218c <xQueueGiveFromISR+0x7c>
 801219c:	2d00      	cmp	r5, #0
 801219e:	d0f5      	beq.n	801218c <xQueueGiveFromISR+0x7c>
 80121a0:	2001      	movs	r0, #1
 80121a2:	6028      	str	r0, [r5, #0]
 80121a4:	f386 8811 	msr	BASEPRI, r6
 80121a8:	bd70      	pop	{r4, r5, r6, pc}
 80121aa:	3301      	adds	r3, #1
 80121ac:	b25b      	sxtb	r3, r3
 80121ae:	f884 3045 	strb.w	r3, [r4, #69]	; 0x45
 80121b2:	e7eb      	b.n	801218c <xQueueGiveFromISR+0x7c>
 80121b4:	2000      	movs	r0, #0
 80121b6:	e7f5      	b.n	80121a4 <xQueueGiveFromISR+0x94>

080121b8 <xQueueReceive>:
 80121b8:	e92d 41ff 	stmdb	sp!, {r0, r1, r2, r3, r4, r5, r6, r7, r8, lr}
 80121bc:	460f      	mov	r7, r1
 80121be:	9201      	str	r2, [sp, #4]
 80121c0:	4604      	mov	r4, r0
 80121c2:	b940      	cbnz	r0, 80121d6 <xQueueReceive+0x1e>
 80121c4:	f04f 0350 	mov.w	r3, #80	; 0x50
 80121c8:	f383 8811 	msr	BASEPRI, r3
 80121cc:	f3bf 8f6f 	isb	sy
 80121d0:	f3bf 8f4f 	dsb	sy
 80121d4:	e7fe      	b.n	80121d4 <xQueueReceive+0x1c>
 80121d6:	b951      	cbnz	r1, 80121ee <xQueueReceive+0x36>
 80121d8:	6c03      	ldr	r3, [r0, #64]	; 0x40
 80121da:	b143      	cbz	r3, 80121ee <xQueueReceive+0x36>
 80121dc:	f04f 0350 	mov.w	r3, #80	; 0x50
 80121e0:	f383 8811 	msr	BASEPRI, r3
 80121e4:	f3bf 8f6f 	isb	sy
 80121e8:	f3bf 8f4f 	dsb	sy
 80121ec:	e7fe      	b.n	80121ec <xQueueReceive+0x34>
 80121ee:	f000 fe6f 	bl	8012ed0 <xTaskGetSchedulerState>
 80121f2:	4606      	mov	r6, r0
 80121f4:	b950      	cbnz	r0, 801220c <xQueueReceive+0x54>
 80121f6:	9b01      	ldr	r3, [sp, #4]
 80121f8:	b14b      	cbz	r3, 801220e <xQueueReceive+0x56>
 80121fa:	f04f 0350 	mov.w	r3, #80	; 0x50
 80121fe:	f383 8811 	msr	BASEPRI, r3
 8012202:	f3bf 8f6f 	isb	sy
 8012206:	f3bf 8f4f 	dsb	sy
 801220a:	e7fe      	b.n	801220a <xQueueReceive+0x52>
 801220c:	2600      	movs	r6, #0
 801220e:	f04f 0800 	mov.w	r8, #0
 8012212:	e03d      	b.n	8012290 <xQueueReceive+0xd8>
 8012214:	9d01      	ldr	r5, [sp, #4]
 8012216:	b91d      	cbnz	r5, 8012220 <xQueueReceive+0x68>
 8012218:	f001 fb94 	bl	8013944 <vPortExitCritical>
 801221c:	2000      	movs	r0, #0
 801221e:	e056      	b.n	80122ce <xQueueReceive+0x116>
 8012220:	b916      	cbnz	r6, 8012228 <xQueueReceive+0x70>
 8012222:	a802      	add	r0, sp, #8
 8012224:	f000 fe06 	bl	8012e34 <vTaskInternalSetTimeOutState>
 8012228:	f001 fb8c 	bl	8013944 <vPortExitCritical>
 801222c:	f000 fbf4 	bl	8012a18 <vTaskSuspendAll>
 8012230:	f001 fb68 	bl	8013904 <vPortEnterCritical>
 8012234:	f894 3044 	ldrb.w	r3, [r4, #68]	; 0x44
 8012238:	2bff      	cmp	r3, #255	; 0xff
 801223a:	bf08      	it	eq
 801223c:	f884 8044 	strbeq.w	r8, [r4, #68]	; 0x44
 8012240:	f894 3045 	ldrb.w	r3, [r4, #69]	; 0x45
 8012244:	2bff      	cmp	r3, #255	; 0xff
 8012246:	bf08      	it	eq
 8012248:	f884 8045 	strbeq.w	r8, [r4, #69]	; 0x45
 801224c:	f001 fb7a 	bl	8013944 <vPortExitCritical>
 8012250:	a901      	add	r1, sp, #4
 8012252:	a802      	add	r0, sp, #8
 8012254:	f000 fdfa 	bl	8012e4c <xTaskCheckForTimeOut>
 8012258:	2800      	cmp	r0, #0
 801225a:	d141      	bne.n	80122e0 <xQueueReceive+0x128>
 801225c:	4620      	mov	r0, r4
 801225e:	f7ff fcd8 	bl	8011c12 <prvIsQueueEmpty>
 8012262:	b3b8      	cbz	r0, 80122d4 <xQueueReceive+0x11c>
 8012264:	9901      	ldr	r1, [sp, #4]
 8012266:	f104 0024 	add.w	r0, r4, #36	; 0x24
 801226a:	f000 fd67 	bl	8012d3c <vTaskPlaceOnEventList>
 801226e:	4620      	mov	r0, r4
 8012270:	f7ff fd25 	bl	8011cbe <prvUnlockQueue>
 8012274:	f000 fc76 	bl	8012b64 <xTaskResumeAll>
 8012278:	b948      	cbnz	r0, 801228e <xQueueReceive+0xd6>
 801227a:	f04f 23e0 	mov.w	r3, #3758153728	; 0xe000e000
 801227e:	f04f 5280 	mov.w	r2, #268435456	; 0x10000000
 8012282:	f8c3 2d04 	str.w	r2, [r3, #3332]	; 0xd04
 8012286:	f3bf 8f4f 	dsb	sy
 801228a:	f3bf 8f6f 	isb	sy
 801228e:	2601      	movs	r6, #1
 8012290:	f001 fb38 	bl	8013904 <vPortEnterCritical>
 8012294:	6ba5      	ldr	r5, [r4, #56]	; 0x38
 8012296:	2d00      	cmp	r5, #0
 8012298:	d0bc      	beq.n	8012214 <xQueueReceive+0x5c>
 801229a:	4639      	mov	r1, r7
 801229c:	4620      	mov	r0, r4
 801229e:	3d01      	subs	r5, #1
 80122a0:	f7ff fcf7 	bl	8011c92 <prvCopyDataFromQueue>
 80122a4:	63a5      	str	r5, [r4, #56]	; 0x38
 80122a6:	6923      	ldr	r3, [r4, #16]
 80122a8:	b173      	cbz	r3, 80122c8 <xQueueReceive+0x110>
 80122aa:	f104 0010 	add.w	r0, r4, #16
 80122ae:	f000 fd7d 	bl	8012dac <xTaskRemoveFromEventList>
 80122b2:	b148      	cbz	r0, 80122c8 <xQueueReceive+0x110>
 80122b4:	f04f 23e0 	mov.w	r3, #3758153728	; 0xe000e000
 80122b8:	f04f 5280 	mov.w	r2, #268435456	; 0x10000000
 80122bc:	f8c3 2d04 	str.w	r2, [r3, #3332]	; 0xd04
 80122c0:	f3bf 8f4f 	dsb	sy
 80122c4:	f3bf 8f6f 	isb	sy
 80122c8:	f001 fb3c 	bl	8013944 <vPortExitCritical>
 80122cc:	2001      	movs	r0, #1
 80122ce:	b004      	add	sp, #16
 80122d0:	e8bd 81f0 	ldmia.w	sp!, {r4, r5, r6, r7, r8, pc}
 80122d4:	4620      	mov	r0, r4
 80122d6:	f7ff fcf2 	bl	8011cbe <prvUnlockQueue>
 80122da:	f000 fc43 	bl	8012b64 <xTaskResumeAll>
 80122de:	e7d6      	b.n	801228e <xQueueReceive+0xd6>
 80122e0:	4620      	mov	r0, r4
 80122e2:	f7ff fcec 	bl	8011cbe <prvUnlockQueue>
 80122e6:	f000 fc3d 	bl	8012b64 <xTaskResumeAll>
 80122ea:	4620      	mov	r0, r4
 80122ec:	f7ff fc91 	bl	8011c12 <prvIsQueueEmpty>
 80122f0:	2800      	cmp	r0, #0
 80122f2:	d0cc      	beq.n	801228e <xQueueReceive+0xd6>
 80122f4:	e792      	b.n	801221c <xQueueReceive+0x64>

080122f6 <xQueueSemaphoreTake>:
 80122f6:	b5f0      	push	{r4, r5, r6, r7, lr}
 80122f8:	b085      	sub	sp, #20
 80122fa:	4604      	mov	r4, r0
 80122fc:	9101      	str	r1, [sp, #4]
 80122fe:	b940      	cbnz	r0, 8012312 <xQueueSemaphoreTake+0x1c>
 8012300:	f04f 0350 	mov.w	r3, #80	; 0x50
 8012304:	f383 8811 	msr	BASEPRI, r3
 8012308:	f3bf 8f6f 	isb	sy
 801230c:	f3bf 8f4f 	dsb	sy
 8012310:	e7fe      	b.n	8012310 <xQueueSemaphoreTake+0x1a>
 8012312:	6c05      	ldr	r5, [r0, #64]	; 0x40
 8012314:	b145      	cbz	r5, 8012328 <xQueueSemaphoreTake+0x32>
 8012316:	f04f 0350 	mov.w	r3, #80	; 0x50
 801231a:	f383 8811 	msr	BASEPRI, r3
 801231e:	f3bf 8f6f 	isb	sy
 8012322:	f3bf 8f4f 	dsb	sy
 8012326:	e7fe      	b.n	8012326 <xQueueSemaphoreTake+0x30>
 8012328:	f000 fdd2 	bl	8012ed0 <xTaskGetSchedulerState>
 801232c:	4606      	mov	r6, r0
 801232e:	b950      	cbnz	r0, 8012346 <xQueueSemaphoreTake+0x50>
 8012330:	9b01      	ldr	r3, [sp, #4]
 8012332:	b15b      	cbz	r3, 801234c <xQueueSemaphoreTake+0x56>
 8012334:	f04f 0350 	mov.w	r3, #80	; 0x50
 8012338:	f383 8811 	msr	BASEPRI, r3
 801233c:	f3bf 8f6f 	isb	sy
 8012340:	f3bf 8f4f 	dsb	sy
 8012344:	e7fe      	b.n	8012344 <xQueueSemaphoreTake+0x4e>
 8012346:	462e      	mov	r6, r5
 8012348:	2700      	movs	r7, #0
 801234a:	e053      	b.n	80123f4 <xQueueSemaphoreTake+0xfe>
 801234c:	4605      	mov	r5, r0
 801234e:	e7fb      	b.n	8012348 <xQueueSemaphoreTake+0x52>
 8012350:	9b01      	ldr	r3, [sp, #4]
 8012352:	b963      	cbnz	r3, 801236e <xQueueSemaphoreTake+0x78>
 8012354:	b145      	cbz	r5, 8012368 <xQueueSemaphoreTake+0x72>
 8012356:	f04f 0350 	mov.w	r3, #80	; 0x50
 801235a:	f383 8811 	msr	BASEPRI, r3
 801235e:	f3bf 8f6f 	isb	sy
 8012362:	f3bf 8f4f 	dsb	sy
 8012366:	e7fe      	b.n	8012366 <xQueueSemaphoreTake+0x70>
 8012368:	f001 faec 	bl	8013944 <vPortExitCritical>
 801236c:	e062      	b.n	8012434 <xQueueSemaphoreTake+0x13e>
 801236e:	b916      	cbnz	r6, 8012376 <xQueueSemaphoreTake+0x80>
 8012370:	a802      	add	r0, sp, #8
 8012372:	f000 fd5f 	bl	8012e34 <vTaskInternalSetTimeOutState>
 8012376:	f001 fae5 	bl	8013944 <vPortExitCritical>
 801237a:	f000 fb4d 	bl	8012a18 <vTaskSuspendAll>
 801237e:	f001 fac1 	bl	8013904 <vPortEnterCritical>
 8012382:	f894 3044 	ldrb.w	r3, [r4, #68]	; 0x44
 8012386:	2bff      	cmp	r3, #255	; 0xff
 8012388:	bf08      	it	eq
 801238a:	f884 7044 	strbeq.w	r7, [r4, #68]	; 0x44
 801238e:	f894 3045 	ldrb.w	r3, [r4, #69]	; 0x45
 8012392:	2bff      	cmp	r3, #255	; 0xff
 8012394:	bf08      	it	eq
 8012396:	f884 7045 	strbeq.w	r7, [r4, #69]	; 0x45
 801239a:	f001 fad3 	bl	8013944 <vPortExitCritical>
 801239e:	a901      	add	r1, sp, #4
 80123a0:	a802      	add	r0, sp, #8
 80123a2:	f000 fd53 	bl	8012e4c <xTaskCheckForTimeOut>
 80123a6:	2800      	cmp	r0, #0
 80123a8:	d14d      	bne.n	8012446 <xQueueSemaphoreTake+0x150>
 80123aa:	4620      	mov	r0, r4
 80123ac:	f7ff fc31 	bl	8011c12 <prvIsQueueEmpty>
 80123b0:	2800      	cmp	r0, #0
 80123b2:	d042      	beq.n	801243a <xQueueSemaphoreTake+0x144>
 80123b4:	6823      	ldr	r3, [r4, #0]
 80123b6:	b93b      	cbnz	r3, 80123c8 <xQueueSemaphoreTake+0xd2>
 80123b8:	f001 faa4 	bl	8013904 <vPortEnterCritical>
 80123bc:	68a0      	ldr	r0, [r4, #8]
 80123be:	f000 fd97 	bl	8012ef0 <xTaskPriorityInherit>
 80123c2:	4605      	mov	r5, r0
 80123c4:	f001 fabe 	bl	8013944 <vPortExitCritical>
 80123c8:	9901      	ldr	r1, [sp, #4]
 80123ca:	f104 0024 	add.w	r0, r4, #36	; 0x24
 80123ce:	f000 fcb5 	bl	8012d3c <vTaskPlaceOnEventList>
 80123d2:	4620      	mov	r0, r4
 80123d4:	f7ff fc73 	bl	8011cbe <prvUnlockQueue>
 80123d8:	f000 fbc4 	bl	8012b64 <xTaskResumeAll>
 80123dc:	b948      	cbnz	r0, 80123f2 <xQueueSemaphoreTake+0xfc>
 80123de:	f04f 23e0 	mov.w	r3, #3758153728	; 0xe000e000
 80123e2:	f04f 5280 	mov.w	r2, #268435456	; 0x10000000
 80123e6:	f8c3 2d04 	str.w	r2, [r3, #3332]	; 0xd04
 80123ea:	f3bf 8f4f 	dsb	sy
 80123ee:	f3bf 8f6f 	isb	sy
 80123f2:	2601      	movs	r6, #1
 80123f4:	f001 fa86 	bl	8013904 <vPortEnterCritical>
 80123f8:	6ba3      	ldr	r3, [r4, #56]	; 0x38
 80123fa:	2b00      	cmp	r3, #0
 80123fc:	d0a8      	beq.n	8012350 <xQueueSemaphoreTake+0x5a>
 80123fe:	3b01      	subs	r3, #1
 8012400:	63a3      	str	r3, [r4, #56]	; 0x38
 8012402:	6823      	ldr	r3, [r4, #0]
 8012404:	b913      	cbnz	r3, 801240c <xQueueSemaphoreTake+0x116>
 8012406:	f000 fe69 	bl	80130dc <pvTaskIncrementMutexHeldCount>
 801240a:	60a0      	str	r0, [r4, #8]
 801240c:	6923      	ldr	r3, [r4, #16]
 801240e:	b173      	cbz	r3, 801242e <xQueueSemaphoreTake+0x138>
 8012410:	f104 0010 	add.w	r0, r4, #16
 8012414:	f000 fcca 	bl	8012dac <xTaskRemoveFromEventList>
 8012418:	b148      	cbz	r0, 801242e <xQueueSemaphoreTake+0x138>
 801241a:	f04f 23e0 	mov.w	r3, #3758153728	; 0xe000e000
 801241e:	f04f 5280 	mov.w	r2, #268435456	; 0x10000000
 8012422:	f8c3 2d04 	str.w	r2, [r3, #3332]	; 0xd04
 8012426:	f3bf 8f4f 	dsb	sy
 801242a:	f3bf 8f6f 	isb	sy
 801242e:	f001 fa89 	bl	8013944 <vPortExitCritical>
 8012432:	2501      	movs	r5, #1
 8012434:	4628      	mov	r0, r5
 8012436:	b005      	add	sp, #20
 8012438:	bdf0      	pop	{r4, r5, r6, r7, pc}
 801243a:	4620      	mov	r0, r4
 801243c:	f7ff fc3f 	bl	8011cbe <prvUnlockQueue>
 8012440:	f000 fb90 	bl	8012b64 <xTaskResumeAll>
 8012444:	e7d5      	b.n	80123f2 <xQueueSemaphoreTake+0xfc>
 8012446:	4620      	mov	r0, r4
 8012448:	f7ff fc39 	bl	8011cbe <prvUnlockQueue>
 801244c:	f000 fb8a 	bl	8012b64 <xTaskResumeAll>
 8012450:	4620      	mov	r0, r4
 8012452:	f7ff fbde 	bl	8011c12 <prvIsQueueEmpty>
 8012456:	2800      	cmp	r0, #0
 8012458:	d0cb      	beq.n	80123f2 <xQueueSemaphoreTake+0xfc>
 801245a:	2d00      	cmp	r5, #0
 801245c:	d0ea      	beq.n	8012434 <xQueueSemaphoreTake+0x13e>
 801245e:	f001 fa51 	bl	8013904 <vPortEnterCritical>
 8012462:	6a61      	ldr	r1, [r4, #36]	; 0x24
 8012464:	b119      	cbz	r1, 801246e <xQueueSemaphoreTake+0x178>
 8012466:	6b23      	ldr	r3, [r4, #48]	; 0x30
 8012468:	6819      	ldr	r1, [r3, #0]
 801246a:	f1c1 0107 	rsb	r1, r1, #7
 801246e:	68a0      	ldr	r0, [r4, #8]
 8012470:	f000 fddc 	bl	801302c <vTaskPriorityDisinheritAfterTimeout>
 8012474:	2500      	movs	r5, #0
 8012476:	f001 fa65 	bl	8013944 <vPortExitCritical>
 801247a:	e7db      	b.n	8012434 <xQueueSemaphoreTake+0x13e>

0801247c <xQueueReceiveFromISR>:
 801247c:	e92d 43f8 	stmdb	sp!, {r3, r4, r5, r6, r7, r8, r9, lr}
 8012480:	4689      	mov	r9, r1
 8012482:	4690      	mov	r8, r2
 8012484:	4605      	mov	r5, r0
 8012486:	b940      	cbnz	r0, 801249a <xQueueReceiveFromISR+0x1e>
 8012488:	f04f 0350 	mov.w	r3, #80	; 0x50
 801248c:	f383 8811 	msr	BASEPRI, r3
 8012490:	f3bf 8f6f 	isb	sy
 8012494:	f3bf 8f4f 	dsb	sy
 8012498:	e7fe      	b.n	8012498 <xQueueReceiveFromISR+0x1c>
 801249a:	b951      	cbnz	r1, 80124b2 <xQueueReceiveFromISR+0x36>
 801249c:	6c03      	ldr	r3, [r0, #64]	; 0x40
 801249e:	b143      	cbz	r3, 80124b2 <xQueueReceiveFromISR+0x36>
 80124a0:	f04f 0350 	mov.w	r3, #80	; 0x50
 80124a4:	f383 8811 	msr	BASEPRI, r3
 80124a8:	f3bf 8f6f 	isb	sy
 80124ac:	f3bf 8f4f 	dsb	sy
 80124b0:	e7fe      	b.n	80124b0 <xQueueReceiveFromISR+0x34>
 80124b2:	f001 fb3d 	bl	8013b30 <vPortValidateInterruptPriority>
 80124b6:	f3ef 8711 	mrs	r7, BASEPRI
 80124ba:	f04f 0350 	mov.w	r3, #80	; 0x50
 80124be:	f383 8811 	msr	BASEPRI, r3
 80124c2:	f3bf 8f6f 	isb	sy
 80124c6:	f3bf 8f4f 	dsb	sy
 80124ca:	6bac      	ldr	r4, [r5, #56]	; 0x38
 80124cc:	b31c      	cbz	r4, 8012516 <xQueueReceiveFromISR+0x9a>
 80124ce:	f895 6044 	ldrb.w	r6, [r5, #68]	; 0x44
 80124d2:	4649      	mov	r1, r9
 80124d4:	b276      	sxtb	r6, r6
 80124d6:	4628      	mov	r0, r5
 80124d8:	f7ff fbdb 	bl	8011c92 <prvCopyDataFromQueue>
 80124dc:	3c01      	subs	r4, #1
 80124de:	1c73      	adds	r3, r6, #1
 80124e0:	63ac      	str	r4, [r5, #56]	; 0x38
 80124e2:	d113      	bne.n	801250c <xQueueReceiveFromISR+0x90>
 80124e4:	692b      	ldr	r3, [r5, #16]
 80124e6:	b90b      	cbnz	r3, 80124ec <xQueueReceiveFromISR+0x70>
 80124e8:	2001      	movs	r0, #1
 80124ea:	e00b      	b.n	8012504 <xQueueReceiveFromISR+0x88>
 80124ec:	f105 0010 	add.w	r0, r5, #16
 80124f0:	f000 fc5c 	bl	8012dac <xTaskRemoveFromEventList>
 80124f4:	2800      	cmp	r0, #0
 80124f6:	d0f7      	beq.n	80124e8 <xQueueReceiveFromISR+0x6c>
 80124f8:	f1b8 0f00 	cmp.w	r8, #0
 80124fc:	d0f4      	beq.n	80124e8 <xQueueReceiveFromISR+0x6c>
 80124fe:	2001      	movs	r0, #1
 8012500:	f8c8 0000 	str.w	r0, [r8]
 8012504:	f387 8811 	msr	BASEPRI, r7
 8012508:	e8bd 83f8 	ldmia.w	sp!, {r3, r4, r5, r6, r7, r8, r9, pc}
 801250c:	3601      	adds	r6, #1
 801250e:	b276      	sxtb	r6, r6
 8012510:	f885 6044 	strb.w	r6, [r5, #68]	; 0x44
 8012514:	e7e8      	b.n	80124e8 <xQueueReceiveFromISR+0x6c>
 8012516:	4620      	mov	r0, r4
 8012518:	e7f4      	b.n	8012504 <xQueueReceiveFromISR+0x88>

0801251a <xQueueIsQueueFullFromISR>:
 801251a:	b940      	cbnz	r0, 801252e <xQueueIsQueueFullFromISR+0x14>
 801251c:	f04f 0350 	mov.w	r3, #80	; 0x50
 8012520:	f383 8811 	msr	BASEPRI, r3
 8012524:	f3bf 8f6f 	isb	sy
 8012528:	f3bf 8f4f 	dsb	sy
 801252c:	e7fe      	b.n	801252c <xQueueIsQueueFullFromISR+0x12>
 801252e:	6b83      	ldr	r3, [r0, #56]	; 0x38
 8012530:	6bc0      	ldr	r0, [r0, #60]	; 0x3c
 8012532:	1ac3      	subs	r3, r0, r3
 8012534:	4258      	negs	r0, r3
 8012536:	4158      	adcs	r0, r3
 8012538:	4770      	bx	lr
	...

0801253c <vQueueAddToRegistry>:
 801253c:	b510      	push	{r4, lr}
 801253e:	4a07      	ldr	r2, [pc, #28]	; (801255c <vQueueAddToRegistry+0x20>)
 8012540:	2300      	movs	r3, #0
 8012542:	f852 4033 	ldr.w	r4, [r2, r3, lsl #3]
 8012546:	b92c      	cbnz	r4, 8012554 <vQueueAddToRegistry+0x18>
 8012548:	f842 1033 	str.w	r1, [r2, r3, lsl #3]
 801254c:	eb02 03c3 	add.w	r3, r2, r3, lsl #3
 8012550:	6058      	str	r0, [r3, #4]
 8012552:	bd10      	pop	{r4, pc}
 8012554:	3301      	adds	r3, #1
 8012556:	2b08      	cmp	r3, #8
 8012558:	d1f3      	bne.n	8012542 <vQueueAddToRegistry+0x6>
 801255a:	e7fa      	b.n	8012552 <vQueueAddToRegistry+0x16>
 801255c:	2000cb58 	.word	0x2000cb58

08012560 <vQueueWaitForMessageRestricted>:
 8012560:	b570      	push	{r4, r5, r6, lr}
 8012562:	4604      	mov	r4, r0
 8012564:	460d      	mov	r5, r1
 8012566:	4616      	mov	r6, r2
 8012568:	f001 f9cc 	bl	8013904 <vPortEnterCritical>
 801256c:	f894 3044 	ldrb.w	r3, [r4, #68]	; 0x44
 8012570:	2bff      	cmp	r3, #255	; 0xff
 8012572:	bf04      	itt	eq
 8012574:	2300      	moveq	r3, #0
 8012576:	f884 3044 	strbeq.w	r3, [r4, #68]	; 0x44
 801257a:	f894 3045 	ldrb.w	r3, [r4, #69]	; 0x45
 801257e:	2bff      	cmp	r3, #255	; 0xff
 8012580:	bf04      	itt	eq
 8012582:	2300      	moveq	r3, #0
 8012584:	f884 3045 	strbeq.w	r3, [r4, #69]	; 0x45
 8012588:	f001 f9dc 	bl	8013944 <vPortExitCritical>
 801258c:	6ba3      	ldr	r3, [r4, #56]	; 0x38
 801258e:	b92b      	cbnz	r3, 801259c <vQueueWaitForMessageRestricted+0x3c>
 8012590:	4632      	mov	r2, r6
 8012592:	4629      	mov	r1, r5
 8012594:	f104 0024 	add.w	r0, r4, #36	; 0x24
 8012598:	f000 fbea 	bl	8012d70 <vTaskPlaceOnEventListRestricted>
 801259c:	4620      	mov	r0, r4
 801259e:	e8bd 4070 	ldmia.w	sp!, {r4, r5, r6, lr}
 80125a2:	f7ff bb8c 	b.w	8011cbe <prvUnlockQueue>
	...

080125a8 <prvAddNewTaskToReadyList>:
 80125a8:	e92d 41f0 	stmdb	sp!, {r4, r5, r6, r7, r8, lr}
 80125ac:	4604      	mov	r4, r0
 80125ae:	f001 f9a9 	bl	8013904 <vPortEnterCritical>
 80125b2:	4b2f      	ldr	r3, [pc, #188]	; (8012670 <prvAddNewTaskToReadyList+0xc8>)
 80125b4:	4e2f      	ldr	r6, [pc, #188]	; (8012674 <prvAddNewTaskToReadyList+0xcc>)
 80125b6:	681a      	ldr	r2, [r3, #0]
 80125b8:	4f2f      	ldr	r7, [pc, #188]	; (8012678 <prvAddNewTaskToReadyList+0xd0>)
 80125ba:	3201      	adds	r2, #1
 80125bc:	601a      	str	r2, [r3, #0]
 80125be:	6835      	ldr	r5, [r6, #0]
 80125c0:	2d00      	cmp	r5, #0
 80125c2:	d14a      	bne.n	801265a <prvAddNewTaskToReadyList+0xb2>
 80125c4:	6034      	str	r4, [r6, #0]
 80125c6:	681b      	ldr	r3, [r3, #0]
 80125c8:	2b01      	cmp	r3, #1
 80125ca:	d11f      	bne.n	801260c <prvAddNewTaskToReadyList+0x64>
 80125cc:	46b8      	mov	r8, r7
 80125ce:	4640      	mov	r0, r8
 80125d0:	3501      	adds	r5, #1
 80125d2:	f7ff fadd 	bl	8011b90 <vListInitialise>
 80125d6:	2d07      	cmp	r5, #7
 80125d8:	f108 0814 	add.w	r8, r8, #20
 80125dc:	d1f7      	bne.n	80125ce <prvAddNewTaskToReadyList+0x26>
 80125de:	f8df 80c0 	ldr.w	r8, [pc, #192]	; 80126a0 <prvAddNewTaskToReadyList+0xf8>
 80125e2:	4d26      	ldr	r5, [pc, #152]	; (801267c <prvAddNewTaskToReadyList+0xd4>)
 80125e4:	4640      	mov	r0, r8
 80125e6:	f7ff fad3 	bl	8011b90 <vListInitialise>
 80125ea:	4628      	mov	r0, r5
 80125ec:	f7ff fad0 	bl	8011b90 <vListInitialise>
 80125f0:	4823      	ldr	r0, [pc, #140]	; (8012680 <prvAddNewTaskToReadyList+0xd8>)
 80125f2:	f7ff facd 	bl	8011b90 <vListInitialise>
 80125f6:	4823      	ldr	r0, [pc, #140]	; (8012684 <prvAddNewTaskToReadyList+0xdc>)
 80125f8:	f7ff faca 	bl	8011b90 <vListInitialise>
 80125fc:	4822      	ldr	r0, [pc, #136]	; (8012688 <prvAddNewTaskToReadyList+0xe0>)
 80125fe:	f7ff fac7 	bl	8011b90 <vListInitialise>
 8012602:	4b22      	ldr	r3, [pc, #136]	; (801268c <prvAddNewTaskToReadyList+0xe4>)
 8012604:	f8c3 8000 	str.w	r8, [r3]
 8012608:	4b21      	ldr	r3, [pc, #132]	; (8012690 <prvAddNewTaskToReadyList+0xe8>)
 801260a:	601d      	str	r5, [r3, #0]
 801260c:	4a21      	ldr	r2, [pc, #132]	; (8012694 <prvAddNewTaskToReadyList+0xec>)
 801260e:	4922      	ldr	r1, [pc, #136]	; (8012698 <prvAddNewTaskToReadyList+0xf0>)
 8012610:	6813      	ldr	r3, [r2, #0]
 8012612:	6808      	ldr	r0, [r1, #0]
 8012614:	3301      	adds	r3, #1
 8012616:	6013      	str	r3, [r2, #0]
 8012618:	6ae2      	ldr	r2, [r4, #44]	; 0x2c
 801261a:	2301      	movs	r3, #1
 801261c:	4093      	lsls	r3, r2
 801261e:	4303      	orrs	r3, r0
 8012620:	2014      	movs	r0, #20
 8012622:	600b      	str	r3, [r1, #0]
 8012624:	fb00 7002 	mla	r0, r0, r2, r7
 8012628:	1d21      	adds	r1, r4, #4
 801262a:	f7ff fabf 	bl	8011bac <vListInsertEnd>
 801262e:	f001 f989 	bl	8013944 <vPortExitCritical>
 8012632:	4b1a      	ldr	r3, [pc, #104]	; (801269c <prvAddNewTaskToReadyList+0xf4>)
 8012634:	681b      	ldr	r3, [r3, #0]
 8012636:	b173      	cbz	r3, 8012656 <prvAddNewTaskToReadyList+0xae>
 8012638:	6833      	ldr	r3, [r6, #0]
 801263a:	6ada      	ldr	r2, [r3, #44]	; 0x2c
 801263c:	6ae3      	ldr	r3, [r4, #44]	; 0x2c
 801263e:	429a      	cmp	r2, r3
 8012640:	d209      	bcs.n	8012656 <prvAddNewTaskToReadyList+0xae>
 8012642:	f04f 23e0 	mov.w	r3, #3758153728	; 0xe000e000
 8012646:	f04f 5280 	mov.w	r2, #268435456	; 0x10000000
 801264a:	f8c3 2d04 	str.w	r2, [r3, #3332]	; 0xd04
 801264e:	f3bf 8f4f 	dsb	sy
 8012652:	f3bf 8f6f 	isb	sy
 8012656:	e8bd 81f0 	ldmia.w	sp!, {r4, r5, r6, r7, r8, pc}
 801265a:	4b10      	ldr	r3, [pc, #64]	; (801269c <prvAddNewTaskToReadyList+0xf4>)
 801265c:	681b      	ldr	r3, [r3, #0]
 801265e:	2b00      	cmp	r3, #0
 8012660:	d1d4      	bne.n	801260c <prvAddNewTaskToReadyList+0x64>
 8012662:	6833      	ldr	r3, [r6, #0]
 8012664:	6ada      	ldr	r2, [r3, #44]	; 0x2c
 8012666:	6ae3      	ldr	r3, [r4, #44]	; 0x2c
 8012668:	429a      	cmp	r2, r3
 801266a:	bf98      	it	ls
 801266c:	6034      	strls	r4, [r6, #0]
 801266e:	e7cd      	b.n	801260c <prvAddNewTaskToReadyList+0x64>
 8012670:	2000cc34 	.word	0x2000cc34
 8012674:	2000cb98 	.word	0x2000cb98
 8012678:	2000cba4 	.word	0x2000cba4
 801267c:	2000cc5c 	.word	0x2000cc5c
 8012680:	2000cc7c 	.word	0x2000cc7c
 8012684:	2000cca8 	.word	0x2000cca8
 8012688:	2000cc94 	.word	0x2000cc94
 801268c:	2000cb9c 	.word	0x2000cb9c
 8012690:	2000cba0 	.word	0x2000cba0
 8012694:	2000cc40 	.word	0x2000cc40
 8012698:	2000cc44 	.word	0x2000cc44
 801269c:	2000cc90 	.word	0x2000cc90
 80126a0:	2000cc48 	.word	0x2000cc48

080126a4 <prvAddCurrentTaskToDelayedList>:
 80126a4:	b5f8      	push	{r3, r4, r5, r6, r7, lr}
 80126a6:	4b1a      	ldr	r3, [pc, #104]	; (8012710 <prvAddCurrentTaskToDelayedList+0x6c>)
 80126a8:	4e1a      	ldr	r6, [pc, #104]	; (8012714 <prvAddCurrentTaskToDelayedList+0x70>)
 80126aa:	681d      	ldr	r5, [r3, #0]
 80126ac:	4604      	mov	r4, r0
 80126ae:	6830      	ldr	r0, [r6, #0]
 80126b0:	3004      	adds	r0, #4
 80126b2:	460f      	mov	r7, r1
 80126b4:	f7ff fa9d 	bl	8011bf2 <uxListRemove>
 80126b8:	b940      	cbnz	r0, 80126cc <prvAddCurrentTaskToDelayedList+0x28>
 80126ba:	6832      	ldr	r2, [r6, #0]
 80126bc:	4916      	ldr	r1, [pc, #88]	; (8012718 <prvAddCurrentTaskToDelayedList+0x74>)
 80126be:	6ad0      	ldr	r0, [r2, #44]	; 0x2c
 80126c0:	680b      	ldr	r3, [r1, #0]
 80126c2:	2201      	movs	r2, #1
 80126c4:	4082      	lsls	r2, r0
 80126c6:	ea23 0302 	bic.w	r3, r3, r2
 80126ca:	600b      	str	r3, [r1, #0]
 80126cc:	1c63      	adds	r3, r4, #1
 80126ce:	d107      	bne.n	80126e0 <prvAddCurrentTaskToDelayedList+0x3c>
 80126d0:	b137      	cbz	r7, 80126e0 <prvAddCurrentTaskToDelayedList+0x3c>
 80126d2:	6831      	ldr	r1, [r6, #0]
 80126d4:	4811      	ldr	r0, [pc, #68]	; (801271c <prvAddCurrentTaskToDelayedList+0x78>)
 80126d6:	e8bd 40f8 	ldmia.w	sp!, {r3, r4, r5, r6, r7, lr}
 80126da:	3104      	adds	r1, #4
 80126dc:	f7ff ba66 	b.w	8011bac <vListInsertEnd>
 80126e0:	6833      	ldr	r3, [r6, #0]
 80126e2:	192c      	adds	r4, r5, r4
 80126e4:	605c      	str	r4, [r3, #4]
 80126e6:	d307      	bcc.n	80126f8 <prvAddCurrentTaskToDelayedList+0x54>
 80126e8:	4b0d      	ldr	r3, [pc, #52]	; (8012720 <prvAddCurrentTaskToDelayedList+0x7c>)
 80126ea:	6818      	ldr	r0, [r3, #0]
 80126ec:	6831      	ldr	r1, [r6, #0]
 80126ee:	e8bd 40f8 	ldmia.w	sp!, {r3, r4, r5, r6, r7, lr}
 80126f2:	3104      	adds	r1, #4
 80126f4:	f7ff ba66 	b.w	8011bc4 <vListInsert>
 80126f8:	4b0a      	ldr	r3, [pc, #40]	; (8012724 <prvAddCurrentTaskToDelayedList+0x80>)
 80126fa:	6818      	ldr	r0, [r3, #0]
 80126fc:	6831      	ldr	r1, [r6, #0]
 80126fe:	3104      	adds	r1, #4
 8012700:	f7ff fa60 	bl	8011bc4 <vListInsert>
 8012704:	4b08      	ldr	r3, [pc, #32]	; (8012728 <prvAddCurrentTaskToDelayedList+0x84>)
 8012706:	681a      	ldr	r2, [r3, #0]
 8012708:	42a2      	cmp	r2, r4
 801270a:	bf88      	it	hi
 801270c:	601c      	strhi	r4, [r3, #0]
 801270e:	bdf8      	pop	{r3, r4, r5, r6, r7, pc}
 8012710:	2000ccbc 	.word	0x2000ccbc
 8012714:	2000cb98 	.word	0x2000cb98
 8012718:	2000cc44 	.word	0x2000cc44
 801271c:	2000cc94 	.word	0x2000cc94
 8012720:	2000cba0 	.word	0x2000cba0
 8012724:	2000cb9c 	.word	0x2000cb9c
 8012728:	2000cc70 	.word	0x2000cc70

0801272c <prvResetNextTaskUnblockTime>:
 801272c:	4a06      	ldr	r2, [pc, #24]	; (8012748 <prvResetNextTaskUnblockTime+0x1c>)
 801272e:	6813      	ldr	r3, [r2, #0]
 8012730:	6819      	ldr	r1, [r3, #0]
 8012732:	4b06      	ldr	r3, [pc, #24]	; (801274c <prvResetNextTaskUnblockTime+0x20>)
 8012734:	b919      	cbnz	r1, 801273e <prvResetNextTaskUnblockTime+0x12>
 8012736:	f04f 32ff 	mov.w	r2, #4294967295
 801273a:	601a      	str	r2, [r3, #0]
 801273c:	4770      	bx	lr
 801273e:	6812      	ldr	r2, [r2, #0]
 8012740:	68d2      	ldr	r2, [r2, #12]
 8012742:	68d2      	ldr	r2, [r2, #12]
 8012744:	6852      	ldr	r2, [r2, #4]
 8012746:	e7f8      	b.n	801273a <prvResetNextTaskUnblockTime+0xe>
 8012748:	2000cb9c 	.word	0x2000cb9c
 801274c:	2000cc70 	.word	0x2000cc70

08012750 <prvDeleteTCB>:
 8012750:	b510      	push	{r4, lr}
 8012752:	4604      	mov	r4, r0
 8012754:	3050      	adds	r0, #80	; 0x50
 8012756:	f002 ffdd 	bl	8015714 <_reclaim_reent>
 801275a:	f894 30b5 	ldrb.w	r3, [r4, #181]	; 0xb5
 801275e:	b93b      	cbnz	r3, 8012770 <prvDeleteTCB+0x20>
 8012760:	6b20      	ldr	r0, [r4, #48]	; 0x30
 8012762:	f001 fa20 	bl	8013ba6 <vPortFree>
 8012766:	4620      	mov	r0, r4
 8012768:	e8bd 4010 	ldmia.w	sp!, {r4, lr}
 801276c:	f001 ba1b 	b.w	8013ba6 <vPortFree>
 8012770:	2b01      	cmp	r3, #1
 8012772:	d0f8      	beq.n	8012766 <prvDeleteTCB+0x16>
 8012774:	2b02      	cmp	r3, #2
 8012776:	d008      	beq.n	801278a <prvDeleteTCB+0x3a>
 8012778:	f04f 0350 	mov.w	r3, #80	; 0x50
 801277c:	f383 8811 	msr	BASEPRI, r3
 8012780:	f3bf 8f6f 	isb	sy
 8012784:	f3bf 8f4f 	dsb	sy
 8012788:	e7fe      	b.n	8012788 <prvDeleteTCB+0x38>
 801278a:	bd10      	pop	{r4, pc}

0801278c <prvIdleTask>:
 801278c:	b580      	push	{r7, lr}
 801278e:	4c13      	ldr	r4, [pc, #76]	; (80127dc <prvIdleTask+0x50>)
 8012790:	4f13      	ldr	r7, [pc, #76]	; (80127e0 <prvIdleTask+0x54>)
 8012792:	4d14      	ldr	r5, [pc, #80]	; (80127e4 <prvIdleTask+0x58>)
 8012794:	6823      	ldr	r3, [r4, #0]
 8012796:	b973      	cbnz	r3, 80127b6 <prvIdleTask+0x2a>
 8012798:	4b13      	ldr	r3, [pc, #76]	; (80127e8 <prvIdleTask+0x5c>)
 801279a:	681b      	ldr	r3, [r3, #0]
 801279c:	2b01      	cmp	r3, #1
 801279e:	d9f8      	bls.n	8012792 <prvIdleTask+0x6>
 80127a0:	f04f 23e0 	mov.w	r3, #3758153728	; 0xe000e000
 80127a4:	f04f 5280 	mov.w	r2, #268435456	; 0x10000000
 80127a8:	f8c3 2d04 	str.w	r2, [r3, #3332]	; 0xd04
 80127ac:	f3bf 8f4f 	dsb	sy
 80127b0:	f3bf 8f6f 	isb	sy
 80127b4:	e7ed      	b.n	8012792 <prvIdleTask+0x6>
 80127b6:	f001 f8a5 	bl	8013904 <vPortEnterCritical>
 80127ba:	68fb      	ldr	r3, [r7, #12]
 80127bc:	68de      	ldr	r6, [r3, #12]
 80127be:	1d30      	adds	r0, r6, #4
 80127c0:	f7ff fa17 	bl	8011bf2 <uxListRemove>
 80127c4:	682b      	ldr	r3, [r5, #0]
 80127c6:	3b01      	subs	r3, #1
 80127c8:	602b      	str	r3, [r5, #0]
 80127ca:	6823      	ldr	r3, [r4, #0]
 80127cc:	3b01      	subs	r3, #1
 80127ce:	6023      	str	r3, [r4, #0]
 80127d0:	f001 f8b8 	bl	8013944 <vPortExitCritical>
 80127d4:	4630      	mov	r0, r6
 80127d6:	f7ff ffbb 	bl	8012750 <prvDeleteTCB>
 80127da:	e7db      	b.n	8012794 <prvIdleTask+0x8>
 80127dc:	2000cc38 	.word	0x2000cc38
 80127e0:	2000cca8 	.word	0x2000cca8
 80127e4:	2000cc34 	.word	0x2000cc34
 80127e8:	2000cba4 	.word	0x2000cba4

080127ec <prvInitialiseNewTask.constprop.0>:
 80127ec:	e92d 47f0 	stmdb	sp!, {r4, r5, r6, r7, r8, r9, sl, lr}
 80127f0:	e9dd 8409 	ldrd	r8, r4, [sp, #36]	; 0x24
 80127f4:	f102 4280 	add.w	r2, r2, #1073741824	; 0x40000000
 80127f8:	6b26      	ldr	r6, [r4, #48]	; 0x30
 80127fa:	3a01      	subs	r2, #1
 80127fc:	eb06 0682 	add.w	r6, r6, r2, lsl #2
 8012800:	4607      	mov	r7, r0
 8012802:	4699      	mov	r9, r3
 8012804:	f026 0607 	bic.w	r6, r6, #7
 8012808:	2900      	cmp	r1, #0
 801280a:	d043      	beq.n	8012894 <prvInitialiseNewTask.constprop.0+0xa8>
 801280c:	1e4b      	subs	r3, r1, #1
 801280e:	f104 0234 	add.w	r2, r4, #52	; 0x34
 8012812:	f101 050f 	add.w	r5, r1, #15
 8012816:	f813 1f01 	ldrb.w	r1, [r3, #1]!
 801281a:	f802 1b01 	strb.w	r1, [r2], #1
 801281e:	b109      	cbz	r1, 8012824 <prvInitialiseNewTask.constprop.0+0x38>
 8012820:	42ab      	cmp	r3, r5
 8012822:	d1f8      	bne.n	8012816 <prvInitialiseNewTask.constprop.0+0x2a>
 8012824:	2300      	movs	r3, #0
 8012826:	f884 3043 	strb.w	r3, [r4, #67]	; 0x43
 801282a:	9d08      	ldr	r5, [sp, #32]
 801282c:	2d06      	cmp	r5, #6
 801282e:	bf28      	it	cs
 8012830:	2506      	movcs	r5, #6
 8012832:	f04f 0a00 	mov.w	sl, #0
 8012836:	62e5      	str	r5, [r4, #44]	; 0x2c
 8012838:	6465      	str	r5, [r4, #68]	; 0x44
 801283a:	1d20      	adds	r0, r4, #4
 801283c:	f8c4 a048 	str.w	sl, [r4, #72]	; 0x48
 8012840:	f7ff f9b1 	bl	8011ba6 <vListInitialiseItem>
 8012844:	f1c5 0507 	rsb	r5, r5, #7
 8012848:	f104 0018 	add.w	r0, r4, #24
 801284c:	f7ff f9ab 	bl	8011ba6 <vListInitialiseItem>
 8012850:	f8c4 a0b0 	str.w	sl, [r4, #176]	; 0xb0
 8012854:	2260      	movs	r2, #96	; 0x60
 8012856:	4651      	mov	r1, sl
 8012858:	6124      	str	r4, [r4, #16]
 801285a:	61a5      	str	r5, [r4, #24]
 801285c:	6264      	str	r4, [r4, #36]	; 0x24
 801285e:	f8c4 a04c 	str.w	sl, [r4, #76]	; 0x4c
 8012862:	f884 a0b4 	strb.w	sl, [r4, #180]	; 0xb4
 8012866:	f104 0050 	add.w	r0, r4, #80	; 0x50
 801286a:	f002 fe55 	bl	8015518 <memset>
 801286e:	4b0b      	ldr	r3, [pc, #44]	; (801289c <prvInitialiseNewTask.constprop.0+0xb0>)
 8012870:	6563      	str	r3, [r4, #84]	; 0x54
 8012872:	4b0b      	ldr	r3, [pc, #44]	; (80128a0 <prvInitialiseNewTask.constprop.0+0xb4>)
 8012874:	65a3      	str	r3, [r4, #88]	; 0x58
 8012876:	4b0b      	ldr	r3, [pc, #44]	; (80128a4 <prvInitialiseNewTask.constprop.0+0xb8>)
 8012878:	65e3      	str	r3, [r4, #92]	; 0x5c
 801287a:	464a      	mov	r2, r9
 801287c:	4639      	mov	r1, r7
 801287e:	4630      	mov	r0, r6
 8012880:	f001 f818 	bl	80138b4 <pxPortInitialiseStack>
 8012884:	6020      	str	r0, [r4, #0]
 8012886:	f1b8 0f00 	cmp.w	r8, #0
 801288a:	d001      	beq.n	8012890 <prvInitialiseNewTask.constprop.0+0xa4>
 801288c:	f8c8 4000 	str.w	r4, [r8]
 8012890:	e8bd 87f0 	ldmia.w	sp!, {r4, r5, r6, r7, r8, r9, sl, pc}
 8012894:	f884 1034 	strb.w	r1, [r4, #52]	; 0x34
 8012898:	e7c7      	b.n	801282a <prvInitialiseNewTask.constprop.0+0x3e>
 801289a:	bf00      	nop
 801289c:	08028bac 	.word	0x08028bac
 80128a0:	08028bcc 	.word	0x08028bcc
 80128a4:	08028b8c 	.word	0x08028b8c

080128a8 <xTaskCreateStatic>:
 80128a8:	b570      	push	{r4, r5, r6, lr}
 80128aa:	b086      	sub	sp, #24
 80128ac:	e9dd 540b 	ldrd	r5, r4, [sp, #44]	; 0x2c
 80128b0:	b945      	cbnz	r5, 80128c4 <xTaskCreateStatic+0x1c>
 80128b2:	f04f 0350 	mov.w	r3, #80	; 0x50
 80128b6:	f383 8811 	msr	BASEPRI, r3
 80128ba:	f3bf 8f6f 	isb	sy
 80128be:	f3bf 8f4f 	dsb	sy
 80128c2:	e7fe      	b.n	80128c2 <xTaskCreateStatic+0x1a>
 80128c4:	b944      	cbnz	r4, 80128d8 <xTaskCreateStatic+0x30>
 80128c6:	f04f 0350 	mov.w	r3, #80	; 0x50
 80128ca:	f383 8811 	msr	BASEPRI, r3
 80128ce:	f3bf 8f6f 	isb	sy
 80128d2:	f3bf 8f4f 	dsb	sy
 80128d6:	e7fe      	b.n	80128d6 <xTaskCreateStatic+0x2e>
 80128d8:	26b8      	movs	r6, #184	; 0xb8
 80128da:	9605      	str	r6, [sp, #20]
 80128dc:	9e05      	ldr	r6, [sp, #20]
 80128de:	2eb8      	cmp	r6, #184	; 0xb8
 80128e0:	d008      	beq.n	80128f4 <xTaskCreateStatic+0x4c>
 80128e2:	f04f 0350 	mov.w	r3, #80	; 0x50
 80128e6:	f383 8811 	msr	BASEPRI, r3
 80128ea:	f3bf 8f6f 	isb	sy
 80128ee:	f3bf 8f4f 	dsb	sy
 80128f2:	e7fe      	b.n	80128f2 <xTaskCreateStatic+0x4a>
 80128f4:	6325      	str	r5, [r4, #48]	; 0x30
 80128f6:	2502      	movs	r5, #2
 80128f8:	f884 50b5 	strb.w	r5, [r4, #181]	; 0xb5
 80128fc:	ad04      	add	r5, sp, #16
 80128fe:	9501      	str	r5, [sp, #4]
 8012900:	9d0a      	ldr	r5, [sp, #40]	; 0x28
 8012902:	9402      	str	r4, [sp, #8]
 8012904:	9500      	str	r5, [sp, #0]
 8012906:	9e05      	ldr	r6, [sp, #20]
 8012908:	f7ff ff70 	bl	80127ec <prvInitialiseNewTask.constprop.0>
 801290c:	4620      	mov	r0, r4
 801290e:	f7ff fe4b 	bl	80125a8 <prvAddNewTaskToReadyList>
 8012912:	9804      	ldr	r0, [sp, #16]
 8012914:	b006      	add	sp, #24
 8012916:	bd70      	pop	{r4, r5, r6, pc}

08012918 <xTaskCreate>:
 8012918:	e92d 43f0 	stmdb	sp!, {r4, r5, r6, r7, r8, r9, lr}
 801291c:	4607      	mov	r7, r0
 801291e:	b085      	sub	sp, #20
 8012920:	0090      	lsls	r0, r2, #2
 8012922:	4688      	mov	r8, r1
 8012924:	4616      	mov	r6, r2
 8012926:	4699      	mov	r9, r3
 8012928:	f001 f930 	bl	8013b8c <pvPortMalloc>
 801292c:	4605      	mov	r5, r0
 801292e:	b1e8      	cbz	r0, 801296c <xTaskCreate+0x54>
 8012930:	20b8      	movs	r0, #184	; 0xb8
 8012932:	f001 f92b 	bl	8013b8c <pvPortMalloc>
 8012936:	4604      	mov	r4, r0
 8012938:	b1a8      	cbz	r0, 8012966 <xTaskCreate+0x4e>
 801293a:	2300      	movs	r3, #0
 801293c:	f880 30b5 	strb.w	r3, [r0, #181]	; 0xb5
 8012940:	9b0d      	ldr	r3, [sp, #52]	; 0x34
 8012942:	6305      	str	r5, [r0, #48]	; 0x30
 8012944:	9301      	str	r3, [sp, #4]
 8012946:	9b0c      	ldr	r3, [sp, #48]	; 0x30
 8012948:	9002      	str	r0, [sp, #8]
 801294a:	9300      	str	r3, [sp, #0]
 801294c:	4632      	mov	r2, r6
 801294e:	464b      	mov	r3, r9
 8012950:	4641      	mov	r1, r8
 8012952:	4638      	mov	r0, r7
 8012954:	f7ff ff4a 	bl	80127ec <prvInitialiseNewTask.constprop.0>
 8012958:	4620      	mov	r0, r4
 801295a:	f7ff fe25 	bl	80125a8 <prvAddNewTaskToReadyList>
 801295e:	2001      	movs	r0, #1
 8012960:	b005      	add	sp, #20
 8012962:	e8bd 83f0 	ldmia.w	sp!, {r4, r5, r6, r7, r8, r9, pc}
 8012966:	4628      	mov	r0, r5
 8012968:	f001 f91d 	bl	8013ba6 <vPortFree>
 801296c:	f04f 30ff 	mov.w	r0, #4294967295
 8012970:	e7f6      	b.n	8012960 <xTaskCreate+0x48>
	...

08012974 <vTaskStartScheduler>:
 8012974:	b510      	push	{r4, lr}
 8012976:	b088      	sub	sp, #32
 8012978:	2400      	movs	r4, #0
 801297a:	aa07      	add	r2, sp, #28
 801297c:	a906      	add	r1, sp, #24
 801297e:	a805      	add	r0, sp, #20
 8012980:	e9cd 4405 	strd	r4, r4, [sp, #20]
 8012984:	f7f8 fc6a 	bl	800b25c <vApplicationGetIdleTaskMemory>
 8012988:	9b05      	ldr	r3, [sp, #20]
 801298a:	9302      	str	r3, [sp, #8]
 801298c:	9b06      	ldr	r3, [sp, #24]
 801298e:	9a07      	ldr	r2, [sp, #28]
 8012990:	491a      	ldr	r1, [pc, #104]	; (80129fc <vTaskStartScheduler+0x88>)
 8012992:	481b      	ldr	r0, [pc, #108]	; (8012a00 <vTaskStartScheduler+0x8c>)
 8012994:	e9cd 4300 	strd	r4, r3, [sp]
 8012998:	4623      	mov	r3, r4
 801299a:	f7ff ff85 	bl	80128a8 <xTaskCreateStatic>
 801299e:	b350      	cbz	r0, 80129f6 <vTaskStartScheduler+0x82>
 80129a0:	f000 fd78 	bl	8013494 <xTimerCreateTimerTask>
 80129a4:	2801      	cmp	r0, #1
 80129a6:	d11b      	bne.n	80129e0 <vTaskStartScheduler+0x6c>
 80129a8:	f04f 0350 	mov.w	r3, #80	; 0x50
 80129ac:	f383 8811 	msr	BASEPRI, r3
 80129b0:	f3bf 8f6f 	isb	sy
 80129b4:	f3bf 8f4f 	dsb	sy
 80129b8:	4b12      	ldr	r3, [pc, #72]	; (8012a04 <vTaskStartScheduler+0x90>)
 80129ba:	4a13      	ldr	r2, [pc, #76]	; (8012a08 <vTaskStartScheduler+0x94>)
 80129bc:	681b      	ldr	r3, [r3, #0]
 80129be:	3350      	adds	r3, #80	; 0x50
 80129c0:	6013      	str	r3, [r2, #0]
 80129c2:	4b12      	ldr	r3, [pc, #72]	; (8012a0c <vTaskStartScheduler+0x98>)
 80129c4:	f04f 32ff 	mov.w	r2, #4294967295
 80129c8:	601a      	str	r2, [r3, #0]
 80129ca:	4b11      	ldr	r3, [pc, #68]	; (8012a10 <vTaskStartScheduler+0x9c>)
 80129cc:	6018      	str	r0, [r3, #0]
 80129ce:	4b11      	ldr	r3, [pc, #68]	; (8012a14 <vTaskStartScheduler+0xa0>)
 80129d0:	601c      	str	r4, [r3, #0]
 80129d2:	f7f8 fc42 	bl	800b25a <configureTimerForRunTimeStats>
 80129d6:	b008      	add	sp, #32
 80129d8:	e8bd 4010 	ldmia.w	sp!, {r4, lr}
 80129dc:	f001 b822 	b.w	8013a24 <xPortStartScheduler>
 80129e0:	3001      	adds	r0, #1
 80129e2:	d108      	bne.n	80129f6 <vTaskStartScheduler+0x82>
 80129e4:	f04f 0350 	mov.w	r3, #80	; 0x50
 80129e8:	f383 8811 	msr	BASEPRI, r3
 80129ec:	f3bf 8f6f 	isb	sy
 80129f0:	f3bf 8f4f 	dsb	sy
 80129f4:	e7fe      	b.n	80129f4 <vTaskStartScheduler+0x80>
 80129f6:	b008      	add	sp, #32
 80129f8:	bd10      	pop	{r4, pc}
 80129fa:	bf00      	nop
 80129fc:	08015b4c 	.word	0x08015b4c
 8012a00:	0801278d 	.word	0x0801278d
 8012a04:	2000cb98 	.word	0x2000cb98
 8012a08:	200000fc 	.word	0x200000fc
 8012a0c:	2000cc70 	.word	0x2000cc70
 8012a10:	2000cc90 	.word	0x2000cc90
 8012a14:	2000ccbc 	.word	0x2000ccbc

08012a18 <vTaskSuspendAll>:
 8012a18:	4a02      	ldr	r2, [pc, #8]	; (8012a24 <vTaskSuspendAll+0xc>)
 8012a1a:	6813      	ldr	r3, [r2, #0]
 8012a1c:	3301      	adds	r3, #1
 8012a1e:	6013      	str	r3, [r2, #0]
 8012a20:	4770      	bx	lr
 8012a22:	bf00      	nop
 8012a24:	2000cc3c 	.word	0x2000cc3c

08012a28 <xTaskGetTickCount>:
 8012a28:	4b01      	ldr	r3, [pc, #4]	; (8012a30 <xTaskGetTickCount+0x8>)
 8012a2a:	6818      	ldr	r0, [r3, #0]
 8012a2c:	4770      	bx	lr
 8012a2e:	bf00      	nop
 8012a30:	2000ccbc 	.word	0x2000ccbc

08012a34 <xTaskIncrementTick>:
 8012a34:	4b40      	ldr	r3, [pc, #256]	; (8012b38 <xTaskIncrementTick+0x104>)
 8012a36:	681b      	ldr	r3, [r3, #0]
 8012a38:	e92d 4ff7 	stmdb	sp!, {r0, r1, r2, r4, r5, r6, r7, r8, r9, sl, fp, lr}
 8012a3c:	2b00      	cmp	r3, #0
 8012a3e:	d174      	bne.n	8012b2a <xTaskIncrementTick+0xf6>
 8012a40:	4b3e      	ldr	r3, [pc, #248]	; (8012b3c <xTaskIncrementTick+0x108>)
 8012a42:	681d      	ldr	r5, [r3, #0]
 8012a44:	3501      	adds	r5, #1
 8012a46:	601d      	str	r5, [r3, #0]
 8012a48:	b9bd      	cbnz	r5, 8012a7a <xTaskIncrementTick+0x46>
 8012a4a:	4b3d      	ldr	r3, [pc, #244]	; (8012b40 <xTaskIncrementTick+0x10c>)
 8012a4c:	681a      	ldr	r2, [r3, #0]
 8012a4e:	6812      	ldr	r2, [r2, #0]
 8012a50:	b142      	cbz	r2, 8012a64 <xTaskIncrementTick+0x30>
 8012a52:	f04f 0350 	mov.w	r3, #80	; 0x50
 8012a56:	f383 8811 	msr	BASEPRI, r3
 8012a5a:	f3bf 8f6f 	isb	sy
 8012a5e:	f3bf 8f4f 	dsb	sy
 8012a62:	e7fe      	b.n	8012a62 <xTaskIncrementTick+0x2e>
 8012a64:	4a37      	ldr	r2, [pc, #220]	; (8012b44 <xTaskIncrementTick+0x110>)
 8012a66:	6819      	ldr	r1, [r3, #0]
 8012a68:	6810      	ldr	r0, [r2, #0]
 8012a6a:	6018      	str	r0, [r3, #0]
 8012a6c:	6011      	str	r1, [r2, #0]
 8012a6e:	4a36      	ldr	r2, [pc, #216]	; (8012b48 <xTaskIncrementTick+0x114>)
 8012a70:	6813      	ldr	r3, [r2, #0]
 8012a72:	3301      	adds	r3, #1
 8012a74:	6013      	str	r3, [r2, #0]
 8012a76:	f7ff fe59 	bl	801272c <prvResetNextTaskUnblockTime>
 8012a7a:	4e34      	ldr	r6, [pc, #208]	; (8012b4c <xTaskIncrementTick+0x118>)
 8012a7c:	4f34      	ldr	r7, [pc, #208]	; (8012b50 <xTaskIncrementTick+0x11c>)
 8012a7e:	6833      	ldr	r3, [r6, #0]
 8012a80:	f8df 80d8 	ldr.w	r8, [pc, #216]	; 8012b5c <xTaskIncrementTick+0x128>
 8012a84:	429d      	cmp	r5, r3
 8012a86:	f04f 0400 	mov.w	r4, #0
 8012a8a:	d211      	bcs.n	8012ab0 <xTaskIncrementTick+0x7c>
 8012a8c:	f8d8 3000 	ldr.w	r3, [r8]
 8012a90:	6adb      	ldr	r3, [r3, #44]	; 0x2c
 8012a92:	2214      	movs	r2, #20
 8012a94:	4353      	muls	r3, r2
 8012a96:	58fb      	ldr	r3, [r7, r3]
 8012a98:	2b02      	cmp	r3, #2
 8012a9a:	4b2e      	ldr	r3, [pc, #184]	; (8012b54 <xTaskIncrementTick+0x120>)
 8012a9c:	681b      	ldr	r3, [r3, #0]
 8012a9e:	bf28      	it	cs
 8012aa0:	2401      	movcs	r4, #1
 8012aa2:	2b00      	cmp	r3, #0
 8012aa4:	bf18      	it	ne
 8012aa6:	2401      	movne	r4, #1
 8012aa8:	4620      	mov	r0, r4
 8012aaa:	b003      	add	sp, #12
 8012aac:	e8bd 8ff0 	ldmia.w	sp!, {r4, r5, r6, r7, r8, r9, sl, fp, pc}
 8012ab0:	f8df a08c 	ldr.w	sl, [pc, #140]	; 8012b40 <xTaskIncrementTick+0x10c>
 8012ab4:	f8df 90a8 	ldr.w	r9, [pc, #168]	; 8012b60 <xTaskIncrementTick+0x12c>
 8012ab8:	f8da 3000 	ldr.w	r3, [sl]
 8012abc:	681b      	ldr	r3, [r3, #0]
 8012abe:	b91b      	cbnz	r3, 8012ac8 <xTaskIncrementTick+0x94>
 8012ac0:	f04f 33ff 	mov.w	r3, #4294967295
 8012ac4:	6033      	str	r3, [r6, #0]
 8012ac6:	e7e1      	b.n	8012a8c <xTaskIncrementTick+0x58>
 8012ac8:	f8da 3000 	ldr.w	r3, [sl]
 8012acc:	68db      	ldr	r3, [r3, #12]
 8012ace:	f8d3 b00c 	ldr.w	fp, [r3, #12]
 8012ad2:	f8db 2004 	ldr.w	r2, [fp, #4]
 8012ad6:	4295      	cmp	r5, r2
 8012ad8:	d201      	bcs.n	8012ade <xTaskIncrementTick+0xaa>
 8012ada:	6032      	str	r2, [r6, #0]
 8012adc:	e7d6      	b.n	8012a8c <xTaskIncrementTick+0x58>
 8012ade:	f10b 0104 	add.w	r1, fp, #4
 8012ae2:	4608      	mov	r0, r1
 8012ae4:	9101      	str	r1, [sp, #4]
 8012ae6:	f7ff f884 	bl	8011bf2 <uxListRemove>
 8012aea:	f8db 2028 	ldr.w	r2, [fp, #40]	; 0x28
 8012aee:	9901      	ldr	r1, [sp, #4]
 8012af0:	b122      	cbz	r2, 8012afc <xTaskIncrementTick+0xc8>
 8012af2:	f10b 0018 	add.w	r0, fp, #24
 8012af6:	f7ff f87c 	bl	8011bf2 <uxListRemove>
 8012afa:	9901      	ldr	r1, [sp, #4]
 8012afc:	f8db 002c 	ldr.w	r0, [fp, #44]	; 0x2c
 8012b00:	f8d9 3000 	ldr.w	r3, [r9]
 8012b04:	2201      	movs	r2, #1
 8012b06:	4082      	lsls	r2, r0
 8012b08:	431a      	orrs	r2, r3
 8012b0a:	f8c9 2000 	str.w	r2, [r9]
 8012b0e:	2214      	movs	r2, #20
 8012b10:	fb02 7000 	mla	r0, r2, r0, r7
 8012b14:	f7ff f84a 	bl	8011bac <vListInsertEnd>
 8012b18:	f8d8 1000 	ldr.w	r1, [r8]
 8012b1c:	f8db 202c 	ldr.w	r2, [fp, #44]	; 0x2c
 8012b20:	6acb      	ldr	r3, [r1, #44]	; 0x2c
 8012b22:	429a      	cmp	r2, r3
 8012b24:	bf28      	it	cs
 8012b26:	2401      	movcs	r4, #1
 8012b28:	e7c6      	b.n	8012ab8 <xTaskIncrementTick+0x84>
 8012b2a:	4a0b      	ldr	r2, [pc, #44]	; (8012b58 <xTaskIncrementTick+0x124>)
 8012b2c:	6813      	ldr	r3, [r2, #0]
 8012b2e:	3301      	adds	r3, #1
 8012b30:	6013      	str	r3, [r2, #0]
 8012b32:	2400      	movs	r4, #0
 8012b34:	e7b8      	b.n	8012aa8 <xTaskIncrementTick+0x74>
 8012b36:	bf00      	nop
 8012b38:	2000cc3c 	.word	0x2000cc3c
 8012b3c:	2000ccbc 	.word	0x2000ccbc
 8012b40:	2000cb9c 	.word	0x2000cb9c
 8012b44:	2000cba0 	.word	0x2000cba0
 8012b48:	2000cc74 	.word	0x2000cc74
 8012b4c:	2000cc70 	.word	0x2000cc70
 8012b50:	2000cba4 	.word	0x2000cba4
 8012b54:	2000ccc0 	.word	0x2000ccc0
 8012b58:	2000cc78 	.word	0x2000cc78
 8012b5c:	2000cb98 	.word	0x2000cb98
 8012b60:	2000cc44 	.word	0x2000cc44

08012b64 <xTaskResumeAll>:
 8012b64:	e92d 41f3 	stmdb	sp!, {r0, r1, r4, r5, r6, r7, r8, lr}
 8012b68:	4c32      	ldr	r4, [pc, #200]	; (8012c34 <xTaskResumeAll+0xd0>)
 8012b6a:	6823      	ldr	r3, [r4, #0]
 8012b6c:	b943      	cbnz	r3, 8012b80 <xTaskResumeAll+0x1c>
 8012b6e:	f04f 0350 	mov.w	r3, #80	; 0x50
 8012b72:	f383 8811 	msr	BASEPRI, r3
 8012b76:	f3bf 8f6f 	isb	sy
 8012b7a:	f3bf 8f4f 	dsb	sy
 8012b7e:	e7fe      	b.n	8012b7e <xTaskResumeAll+0x1a>
 8012b80:	f000 fec0 	bl	8013904 <vPortEnterCritical>
 8012b84:	6823      	ldr	r3, [r4, #0]
 8012b86:	3b01      	subs	r3, #1
 8012b88:	6023      	str	r3, [r4, #0]
 8012b8a:	6824      	ldr	r4, [r4, #0]
 8012b8c:	b134      	cbz	r4, 8012b9c <xTaskResumeAll+0x38>
 8012b8e:	2400      	movs	r4, #0
 8012b90:	f000 fed8 	bl	8013944 <vPortExitCritical>
 8012b94:	4620      	mov	r0, r4
 8012b96:	b002      	add	sp, #8
 8012b98:	e8bd 81f0 	ldmia.w	sp!, {r4, r5, r6, r7, r8, pc}
 8012b9c:	4b26      	ldr	r3, [pc, #152]	; (8012c38 <xTaskResumeAll+0xd4>)
 8012b9e:	681b      	ldr	r3, [r3, #0]
 8012ba0:	2b00      	cmp	r3, #0
 8012ba2:	d0f4      	beq.n	8012b8e <xTaskResumeAll+0x2a>
 8012ba4:	4d25      	ldr	r5, [pc, #148]	; (8012c3c <xTaskResumeAll+0xd8>)
 8012ba6:	4e26      	ldr	r6, [pc, #152]	; (8012c40 <xTaskResumeAll+0xdc>)
 8012ba8:	f8df 80a4 	ldr.w	r8, [pc, #164]	; 8012c50 <xTaskResumeAll+0xec>
 8012bac:	e01f      	b.n	8012bee <xTaskResumeAll+0x8a>
 8012bae:	68eb      	ldr	r3, [r5, #12]
 8012bb0:	68dc      	ldr	r4, [r3, #12]
 8012bb2:	f104 0018 	add.w	r0, r4, #24
 8012bb6:	f7ff f81c 	bl	8011bf2 <uxListRemove>
 8012bba:	1d21      	adds	r1, r4, #4
 8012bbc:	4608      	mov	r0, r1
 8012bbe:	9101      	str	r1, [sp, #4]
 8012bc0:	f7ff f817 	bl	8011bf2 <uxListRemove>
 8012bc4:	6ae2      	ldr	r2, [r4, #44]	; 0x2c
 8012bc6:	6830      	ldr	r0, [r6, #0]
 8012bc8:	9901      	ldr	r1, [sp, #4]
 8012bca:	2701      	movs	r7, #1
 8012bcc:	fa07 f302 	lsl.w	r3, r7, r2
 8012bd0:	4303      	orrs	r3, r0
 8012bd2:	2014      	movs	r0, #20
 8012bd4:	fb00 8002 	mla	r0, r0, r2, r8
 8012bd8:	6033      	str	r3, [r6, #0]
 8012bda:	f7fe ffe7 	bl	8011bac <vListInsertEnd>
 8012bde:	4b19      	ldr	r3, [pc, #100]	; (8012c44 <xTaskResumeAll+0xe0>)
 8012be0:	6ae2      	ldr	r2, [r4, #44]	; 0x2c
 8012be2:	681b      	ldr	r3, [r3, #0]
 8012be4:	6adb      	ldr	r3, [r3, #44]	; 0x2c
 8012be6:	429a      	cmp	r2, r3
 8012be8:	d301      	bcc.n	8012bee <xTaskResumeAll+0x8a>
 8012bea:	4b17      	ldr	r3, [pc, #92]	; (8012c48 <xTaskResumeAll+0xe4>)
 8012bec:	601f      	str	r7, [r3, #0]
 8012bee:	682b      	ldr	r3, [r5, #0]
 8012bf0:	2b00      	cmp	r3, #0
 8012bf2:	d1dc      	bne.n	8012bae <xTaskResumeAll+0x4a>
 8012bf4:	b10c      	cbz	r4, 8012bfa <xTaskResumeAll+0x96>
 8012bf6:	f7ff fd99 	bl	801272c <prvResetNextTaskUnblockTime>
 8012bfa:	4d14      	ldr	r5, [pc, #80]	; (8012c4c <xTaskResumeAll+0xe8>)
 8012bfc:	682c      	ldr	r4, [r5, #0]
 8012bfe:	b144      	cbz	r4, 8012c12 <xTaskResumeAll+0xae>
 8012c00:	4e11      	ldr	r6, [pc, #68]	; (8012c48 <xTaskResumeAll+0xe4>)
 8012c02:	2701      	movs	r7, #1
 8012c04:	f7ff ff16 	bl	8012a34 <xTaskIncrementTick>
 8012c08:	b100      	cbz	r0, 8012c0c <xTaskResumeAll+0xa8>
 8012c0a:	6037      	str	r7, [r6, #0]
 8012c0c:	3c01      	subs	r4, #1
 8012c0e:	d1f9      	bne.n	8012c04 <xTaskResumeAll+0xa0>
 8012c10:	602c      	str	r4, [r5, #0]
 8012c12:	4b0d      	ldr	r3, [pc, #52]	; (8012c48 <xTaskResumeAll+0xe4>)
 8012c14:	681b      	ldr	r3, [r3, #0]
 8012c16:	2b00      	cmp	r3, #0
 8012c18:	d0b9      	beq.n	8012b8e <xTaskResumeAll+0x2a>
 8012c1a:	f04f 23e0 	mov.w	r3, #3758153728	; 0xe000e000
 8012c1e:	f04f 5280 	mov.w	r2, #268435456	; 0x10000000
 8012c22:	f8c3 2d04 	str.w	r2, [r3, #3332]	; 0xd04
 8012c26:	f3bf 8f4f 	dsb	sy
 8012c2a:	f3bf 8f6f 	isb	sy
 8012c2e:	2401      	movs	r4, #1
 8012c30:	e7ae      	b.n	8012b90 <xTaskResumeAll+0x2c>
 8012c32:	bf00      	nop
 8012c34:	2000cc3c 	.word	0x2000cc3c
 8012c38:	2000cc34 	.word	0x2000cc34
 8012c3c:	2000cc7c 	.word	0x2000cc7c
 8012c40:	2000cc44 	.word	0x2000cc44
 8012c44:	2000cb98 	.word	0x2000cb98
 8012c48:	2000ccc0 	.word	0x2000ccc0
 8012c4c:	2000cc78 	.word	0x2000cc78
 8012c50:	2000cba4 	.word	0x2000cba4

08012c54 <vTaskDelay>:
 8012c54:	b508      	push	{r3, lr}
 8012c56:	b950      	cbnz	r0, 8012c6e <vTaskDelay+0x1a>
 8012c58:	f04f 23e0 	mov.w	r3, #3758153728	; 0xe000e000
 8012c5c:	f04f 5280 	mov.w	r2, #268435456	; 0x10000000
 8012c60:	f8c3 2d04 	str.w	r2, [r3, #3332]	; 0xd04
 8012c64:	f3bf 8f4f 	dsb	sy
 8012c68:	f3bf 8f6f 	isb	sy
 8012c6c:	bd08      	pop	{r3, pc}
 8012c6e:	4b0a      	ldr	r3, [pc, #40]	; (8012c98 <vTaskDelay+0x44>)
 8012c70:	6819      	ldr	r1, [r3, #0]
 8012c72:	b141      	cbz	r1, 8012c86 <vTaskDelay+0x32>
 8012c74:	f04f 0350 	mov.w	r3, #80	; 0x50
 8012c78:	f383 8811 	msr	BASEPRI, r3
 8012c7c:	f3bf 8f6f 	isb	sy
 8012c80:	f3bf 8f4f 	dsb	sy
 8012c84:	e7fe      	b.n	8012c84 <vTaskDelay+0x30>
 8012c86:	f7ff fec7 	bl	8012a18 <vTaskSuspendAll>
 8012c8a:	f7ff fd0b 	bl	80126a4 <prvAddCurrentTaskToDelayedList>
 8012c8e:	f7ff ff69 	bl	8012b64 <xTaskResumeAll>
 8012c92:	2800      	cmp	r0, #0
 8012c94:	d0e0      	beq.n	8012c58 <vTaskDelay+0x4>
 8012c96:	e7e9      	b.n	8012c6c <vTaskDelay+0x18>
 8012c98:	2000cc3c 	.word	0x2000cc3c

08012c9c <vTaskSwitchContext>:
 8012c9c:	4b20      	ldr	r3, [pc, #128]	; (8012d20 <vTaskSwitchContext+0x84>)
 8012c9e:	681a      	ldr	r2, [r3, #0]
 8012ca0:	4b20      	ldr	r3, [pc, #128]	; (8012d24 <vTaskSwitchContext+0x88>)
 8012ca2:	b510      	push	{r4, lr}
 8012ca4:	b112      	cbz	r2, 8012cac <vTaskSwitchContext+0x10>
 8012ca6:	2201      	movs	r2, #1
 8012ca8:	601a      	str	r2, [r3, #0]
 8012caa:	bd10      	pop	{r4, pc}
 8012cac:	601a      	str	r2, [r3, #0]
 8012cae:	f7f9 f95b 	bl	800bf68 <getRunTimeCounterValue>
 8012cb2:	4a1d      	ldr	r2, [pc, #116]	; (8012d28 <vTaskSwitchContext+0x8c>)
 8012cb4:	6814      	ldr	r4, [r2, #0]
 8012cb6:	42a0      	cmp	r0, r4
 8012cb8:	d905      	bls.n	8012cc6 <vTaskSwitchContext+0x2a>
 8012cba:	4b1c      	ldr	r3, [pc, #112]	; (8012d2c <vTaskSwitchContext+0x90>)
 8012cbc:	6819      	ldr	r1, [r3, #0]
 8012cbe:	6ccb      	ldr	r3, [r1, #76]	; 0x4c
 8012cc0:	1b1b      	subs	r3, r3, r4
 8012cc2:	4403      	add	r3, r0
 8012cc4:	64cb      	str	r3, [r1, #76]	; 0x4c
 8012cc6:	4b1a      	ldr	r3, [pc, #104]	; (8012d30 <vTaskSwitchContext+0x94>)
 8012cc8:	6010      	str	r0, [r2, #0]
 8012cca:	681a      	ldr	r2, [r3, #0]
 8012ccc:	fab2 f282 	clz	r2, r2
 8012cd0:	b2d2      	uxtb	r2, r2
 8012cd2:	f1c2 021f 	rsb	r2, r2, #31
 8012cd6:	2314      	movs	r3, #20
 8012cd8:	4916      	ldr	r1, [pc, #88]	; (8012d34 <vTaskSwitchContext+0x98>)
 8012cda:	4353      	muls	r3, r2
 8012cdc:	18c8      	adds	r0, r1, r3
 8012cde:	58cc      	ldr	r4, [r1, r3]
 8012ce0:	b944      	cbnz	r4, 8012cf4 <vTaskSwitchContext+0x58>
 8012ce2:	f04f 0350 	mov.w	r3, #80	; 0x50
 8012ce6:	f383 8811 	msr	BASEPRI, r3
 8012cea:	f3bf 8f6f 	isb	sy
 8012cee:	f3bf 8f4f 	dsb	sy
 8012cf2:	e7fe      	b.n	8012cf2 <vTaskSwitchContext+0x56>
 8012cf4:	6844      	ldr	r4, [r0, #4]
 8012cf6:	3308      	adds	r3, #8
 8012cf8:	6864      	ldr	r4, [r4, #4]
 8012cfa:	6044      	str	r4, [r0, #4]
 8012cfc:	440b      	add	r3, r1
 8012cfe:	429c      	cmp	r4, r3
 8012d00:	bf04      	itt	eq
 8012d02:	6863      	ldreq	r3, [r4, #4]
 8012d04:	6043      	streq	r3, [r0, #4]
 8012d06:	2314      	movs	r3, #20
 8012d08:	fb03 1202 	mla	r2, r3, r2, r1
 8012d0c:	6853      	ldr	r3, [r2, #4]
 8012d0e:	68da      	ldr	r2, [r3, #12]
 8012d10:	4b06      	ldr	r3, [pc, #24]	; (8012d2c <vTaskSwitchContext+0x90>)
 8012d12:	601a      	str	r2, [r3, #0]
 8012d14:	681b      	ldr	r3, [r3, #0]
 8012d16:	4a08      	ldr	r2, [pc, #32]	; (8012d38 <vTaskSwitchContext+0x9c>)
 8012d18:	3350      	adds	r3, #80	; 0x50
 8012d1a:	6013      	str	r3, [r2, #0]
 8012d1c:	e7c5      	b.n	8012caa <vTaskSwitchContext+0xe>
 8012d1e:	bf00      	nop
 8012d20:	2000cc3c 	.word	0x2000cc3c
 8012d24:	2000ccc0 	.word	0x2000ccc0
 8012d28:	2000cc30 	.word	0x2000cc30
 8012d2c:	2000cb98 	.word	0x2000cb98
 8012d30:	2000cc44 	.word	0x2000cc44
 8012d34:	2000cba4 	.word	0x2000cba4
 8012d38:	200000fc 	.word	0x200000fc

08012d3c <vTaskPlaceOnEventList>:
 8012d3c:	b510      	push	{r4, lr}
 8012d3e:	460c      	mov	r4, r1
 8012d40:	b940      	cbnz	r0, 8012d54 <vTaskPlaceOnEventList+0x18>
 8012d42:	f04f 0350 	mov.w	r3, #80	; 0x50
 8012d46:	f383 8811 	msr	BASEPRI, r3
 8012d4a:	f3bf 8f6f 	isb	sy
 8012d4e:	f3bf 8f4f 	dsb	sy
 8012d52:	e7fe      	b.n	8012d52 <vTaskPlaceOnEventList+0x16>
 8012d54:	4b05      	ldr	r3, [pc, #20]	; (8012d6c <vTaskPlaceOnEventList+0x30>)
 8012d56:	6819      	ldr	r1, [r3, #0]
 8012d58:	3118      	adds	r1, #24
 8012d5a:	f7fe ff33 	bl	8011bc4 <vListInsert>
 8012d5e:	4620      	mov	r0, r4
 8012d60:	2101      	movs	r1, #1
 8012d62:	e8bd 4010 	ldmia.w	sp!, {r4, lr}
 8012d66:	f7ff bc9d 	b.w	80126a4 <prvAddCurrentTaskToDelayedList>
 8012d6a:	bf00      	nop
 8012d6c:	2000cb98 	.word	0x2000cb98

08012d70 <vTaskPlaceOnEventListRestricted>:
 8012d70:	b538      	push	{r3, r4, r5, lr}
 8012d72:	460d      	mov	r5, r1
 8012d74:	4614      	mov	r4, r2
 8012d76:	b940      	cbnz	r0, 8012d8a <vTaskPlaceOnEventListRestricted+0x1a>
 8012d78:	f04f 0350 	mov.w	r3, #80	; 0x50
 8012d7c:	f383 8811 	msr	BASEPRI, r3
 8012d80:	f3bf 8f6f 	isb	sy
 8012d84:	f3bf 8f4f 	dsb	sy
 8012d88:	e7fe      	b.n	8012d88 <vTaskPlaceOnEventListRestricted+0x18>
 8012d8a:	4b07      	ldr	r3, [pc, #28]	; (8012da8 <vTaskPlaceOnEventListRestricted+0x38>)
 8012d8c:	6819      	ldr	r1, [r3, #0]
 8012d8e:	3118      	adds	r1, #24
 8012d90:	f7fe ff0c 	bl	8011bac <vListInsertEnd>
 8012d94:	2c00      	cmp	r4, #0
 8012d96:	4621      	mov	r1, r4
 8012d98:	bf0c      	ite	eq
 8012d9a:	4628      	moveq	r0, r5
 8012d9c:	f04f 30ff 	movne.w	r0, #4294967295
 8012da0:	e8bd 4038 	ldmia.w	sp!, {r3, r4, r5, lr}
 8012da4:	f7ff bc7e 	b.w	80126a4 <prvAddCurrentTaskToDelayedList>
 8012da8:	2000cb98 	.word	0x2000cb98

08012dac <xTaskRemoveFromEventList>:
 8012dac:	68c3      	ldr	r3, [r0, #12]
 8012dae:	b537      	push	{r0, r1, r2, r4, r5, lr}
 8012db0:	68dc      	ldr	r4, [r3, #12]
 8012db2:	b944      	cbnz	r4, 8012dc6 <xTaskRemoveFromEventList+0x1a>
 8012db4:	f04f 0350 	mov.w	r3, #80	; 0x50
 8012db8:	f383 8811 	msr	BASEPRI, r3
 8012dbc:	f3bf 8f6f 	isb	sy
 8012dc0:	f3bf 8f4f 	dsb	sy
 8012dc4:	e7fe      	b.n	8012dc4 <xTaskRemoveFromEventList+0x18>
 8012dc6:	f104 0118 	add.w	r1, r4, #24
 8012dca:	4608      	mov	r0, r1
 8012dcc:	9101      	str	r1, [sp, #4]
 8012dce:	f7fe ff10 	bl	8011bf2 <uxListRemove>
 8012dd2:	4b12      	ldr	r3, [pc, #72]	; (8012e1c <xTaskRemoveFromEventList+0x70>)
 8012dd4:	9901      	ldr	r1, [sp, #4]
 8012dd6:	681b      	ldr	r3, [r3, #0]
 8012dd8:	b9f3      	cbnz	r3, 8012e18 <xTaskRemoveFromEventList+0x6c>
 8012dda:	1d21      	adds	r1, r4, #4
 8012ddc:	4608      	mov	r0, r1
 8012dde:	9101      	str	r1, [sp, #4]
 8012de0:	f7fe ff07 	bl	8011bf2 <uxListRemove>
 8012de4:	480e      	ldr	r0, [pc, #56]	; (8012e20 <xTaskRemoveFromEventList+0x74>)
 8012de6:	6ae2      	ldr	r2, [r4, #44]	; 0x2c
 8012de8:	6805      	ldr	r5, [r0, #0]
 8012dea:	9901      	ldr	r1, [sp, #4]
 8012dec:	2301      	movs	r3, #1
 8012dee:	4093      	lsls	r3, r2
 8012df0:	432b      	orrs	r3, r5
 8012df2:	6003      	str	r3, [r0, #0]
 8012df4:	4b0b      	ldr	r3, [pc, #44]	; (8012e24 <xTaskRemoveFromEventList+0x78>)
 8012df6:	2014      	movs	r0, #20
 8012df8:	fb00 3002 	mla	r0, r0, r2, r3
 8012dfc:	f7fe fed6 	bl	8011bac <vListInsertEnd>
 8012e00:	4b09      	ldr	r3, [pc, #36]	; (8012e28 <xTaskRemoveFromEventList+0x7c>)
 8012e02:	6ae2      	ldr	r2, [r4, #44]	; 0x2c
 8012e04:	681b      	ldr	r3, [r3, #0]
 8012e06:	6adb      	ldr	r3, [r3, #44]	; 0x2c
 8012e08:	429a      	cmp	r2, r3
 8012e0a:	bf85      	ittet	hi
 8012e0c:	4b07      	ldrhi	r3, [pc, #28]	; (8012e2c <xTaskRemoveFromEventList+0x80>)
 8012e0e:	2001      	movhi	r0, #1
 8012e10:	2000      	movls	r0, #0
 8012e12:	6018      	strhi	r0, [r3, #0]
 8012e14:	b003      	add	sp, #12
 8012e16:	bd30      	pop	{r4, r5, pc}
 8012e18:	4805      	ldr	r0, [pc, #20]	; (8012e30 <xTaskRemoveFromEventList+0x84>)
 8012e1a:	e7ef      	b.n	8012dfc <xTaskRemoveFromEventList+0x50>
 8012e1c:	2000cc3c 	.word	0x2000cc3c
 8012e20:	2000cc44 	.word	0x2000cc44
 8012e24:	2000cba4 	.word	0x2000cba4
 8012e28:	2000cb98 	.word	0x2000cb98
 8012e2c:	2000ccc0 	.word	0x2000ccc0
 8012e30:	2000cc7c 	.word	0x2000cc7c

08012e34 <vTaskInternalSetTimeOutState>:
 8012e34:	4b03      	ldr	r3, [pc, #12]	; (8012e44 <vTaskInternalSetTimeOutState+0x10>)
 8012e36:	681b      	ldr	r3, [r3, #0]
 8012e38:	6003      	str	r3, [r0, #0]
 8012e3a:	4b03      	ldr	r3, [pc, #12]	; (8012e48 <vTaskInternalSetTimeOutState+0x14>)
 8012e3c:	681b      	ldr	r3, [r3, #0]
 8012e3e:	6043      	str	r3, [r0, #4]
 8012e40:	4770      	bx	lr
 8012e42:	bf00      	nop
 8012e44:	2000cc74 	.word	0x2000cc74
 8012e48:	2000ccbc 	.word	0x2000ccbc

08012e4c <xTaskCheckForTimeOut>:
 8012e4c:	b570      	push	{r4, r5, r6, lr}
 8012e4e:	460c      	mov	r4, r1
 8012e50:	4605      	mov	r5, r0
 8012e52:	b940      	cbnz	r0, 8012e66 <xTaskCheckForTimeOut+0x1a>
 8012e54:	f04f 0350 	mov.w	r3, #80	; 0x50
 8012e58:	f383 8811 	msr	BASEPRI, r3
 8012e5c:	f3bf 8f6f 	isb	sy
 8012e60:	f3bf 8f4f 	dsb	sy
 8012e64:	e7fe      	b.n	8012e64 <xTaskCheckForTimeOut+0x18>
 8012e66:	b941      	cbnz	r1, 8012e7a <xTaskCheckForTimeOut+0x2e>
 8012e68:	f04f 0350 	mov.w	r3, #80	; 0x50
 8012e6c:	f383 8811 	msr	BASEPRI, r3
 8012e70:	f3bf 8f6f 	isb	sy
 8012e74:	f3bf 8f4f 	dsb	sy
 8012e78:	e7fe      	b.n	8012e78 <xTaskCheckForTimeOut+0x2c>
 8012e7a:	f000 fd43 	bl	8013904 <vPortEnterCritical>
 8012e7e:	4b0f      	ldr	r3, [pc, #60]	; (8012ebc <xTaskCheckForTimeOut+0x70>)
 8012e80:	6819      	ldr	r1, [r3, #0]
 8012e82:	6823      	ldr	r3, [r4, #0]
 8012e84:	1c5a      	adds	r2, r3, #1
 8012e86:	d010      	beq.n	8012eaa <xTaskCheckForTimeOut+0x5e>
 8012e88:	480d      	ldr	r0, [pc, #52]	; (8012ec0 <xTaskCheckForTimeOut+0x74>)
 8012e8a:	682e      	ldr	r6, [r5, #0]
 8012e8c:	6800      	ldr	r0, [r0, #0]
 8012e8e:	686a      	ldr	r2, [r5, #4]
 8012e90:	4286      	cmp	r6, r0
 8012e92:	d001      	beq.n	8012e98 <xTaskCheckForTimeOut+0x4c>
 8012e94:	428a      	cmp	r2, r1
 8012e96:	d90f      	bls.n	8012eb8 <xTaskCheckForTimeOut+0x6c>
 8012e98:	1a88      	subs	r0, r1, r2
 8012e9a:	4283      	cmp	r3, r0
 8012e9c:	d90a      	bls.n	8012eb4 <xTaskCheckForTimeOut+0x68>
 8012e9e:	1a5b      	subs	r3, r3, r1
 8012ea0:	4413      	add	r3, r2
 8012ea2:	6023      	str	r3, [r4, #0]
 8012ea4:	4628      	mov	r0, r5
 8012ea6:	f7ff ffc5 	bl	8012e34 <vTaskInternalSetTimeOutState>
 8012eaa:	2400      	movs	r4, #0
 8012eac:	f000 fd4a 	bl	8013944 <vPortExitCritical>
 8012eb0:	4620      	mov	r0, r4
 8012eb2:	bd70      	pop	{r4, r5, r6, pc}
 8012eb4:	2300      	movs	r3, #0
 8012eb6:	6023      	str	r3, [r4, #0]
 8012eb8:	2401      	movs	r4, #1
 8012eba:	e7f7      	b.n	8012eac <xTaskCheckForTimeOut+0x60>
 8012ebc:	2000ccbc 	.word	0x2000ccbc
 8012ec0:	2000cc74 	.word	0x2000cc74

08012ec4 <vTaskMissedYield>:
 8012ec4:	4b01      	ldr	r3, [pc, #4]	; (8012ecc <vTaskMissedYield+0x8>)
 8012ec6:	2201      	movs	r2, #1
 8012ec8:	601a      	str	r2, [r3, #0]
 8012eca:	4770      	bx	lr
 8012ecc:	2000ccc0 	.word	0x2000ccc0

08012ed0 <xTaskGetSchedulerState>:
 8012ed0:	4b05      	ldr	r3, [pc, #20]	; (8012ee8 <xTaskGetSchedulerState+0x18>)
 8012ed2:	681b      	ldr	r3, [r3, #0]
 8012ed4:	b133      	cbz	r3, 8012ee4 <xTaskGetSchedulerState+0x14>
 8012ed6:	4b05      	ldr	r3, [pc, #20]	; (8012eec <xTaskGetSchedulerState+0x1c>)
 8012ed8:	681b      	ldr	r3, [r3, #0]
 8012eda:	2b00      	cmp	r3, #0
 8012edc:	bf0c      	ite	eq
 8012ede:	2002      	moveq	r0, #2
 8012ee0:	2000      	movne	r0, #0
 8012ee2:	4770      	bx	lr
 8012ee4:	2001      	movs	r0, #1
 8012ee6:	4770      	bx	lr
 8012ee8:	2000cc90 	.word	0x2000cc90
 8012eec:	2000cc3c 	.word	0x2000cc3c

08012ef0 <xTaskPriorityInherit>:
 8012ef0:	b5f7      	push	{r0, r1, r2, r4, r5, r6, r7, lr}
 8012ef2:	4604      	mov	r4, r0
 8012ef4:	2800      	cmp	r0, #0
 8012ef6:	d031      	beq.n	8012f5c <xTaskPriorityInherit+0x6c>
 8012ef8:	4d20      	ldr	r5, [pc, #128]	; (8012f7c <xTaskPriorityInherit+0x8c>)
 8012efa:	6ac3      	ldr	r3, [r0, #44]	; 0x2c
 8012efc:	682a      	ldr	r2, [r5, #0]
 8012efe:	6ad2      	ldr	r2, [r2, #44]	; 0x2c
 8012f00:	4293      	cmp	r3, r2
 8012f02:	d233      	bcs.n	8012f6c <xTaskPriorityInherit+0x7c>
 8012f04:	6982      	ldr	r2, [r0, #24]
 8012f06:	4e1e      	ldr	r6, [pc, #120]	; (8012f80 <xTaskPriorityInherit+0x90>)
 8012f08:	2a00      	cmp	r2, #0
 8012f0a:	bfa1      	itttt	ge
 8012f0c:	682a      	ldrge	r2, [r5, #0]
 8012f0e:	6ad2      	ldrge	r2, [r2, #44]	; 0x2c
 8012f10:	f1c2 0207 	rsbge	r2, r2, #7
 8012f14:	6182      	strge	r2, [r0, #24]
 8012f16:	2214      	movs	r2, #20
 8012f18:	fb02 6303 	mla	r3, r2, r3, r6
 8012f1c:	6942      	ldr	r2, [r0, #20]
 8012f1e:	429a      	cmp	r2, r3
 8012f20:	d11e      	bne.n	8012f60 <xTaskPriorityInherit+0x70>
 8012f22:	1d01      	adds	r1, r0, #4
 8012f24:	4608      	mov	r0, r1
 8012f26:	9101      	str	r1, [sp, #4]
 8012f28:	f7fe fe63 	bl	8011bf2 <uxListRemove>
 8012f2c:	4b15      	ldr	r3, [pc, #84]	; (8012f84 <xTaskPriorityInherit+0x94>)
 8012f2e:	9901      	ldr	r1, [sp, #4]
 8012f30:	b930      	cbnz	r0, 8012f40 <xTaskPriorityInherit+0x50>
 8012f32:	6ae7      	ldr	r7, [r4, #44]	; 0x2c
 8012f34:	681a      	ldr	r2, [r3, #0]
 8012f36:	2001      	movs	r0, #1
 8012f38:	40b8      	lsls	r0, r7
 8012f3a:	ea22 0200 	bic.w	r2, r2, r0
 8012f3e:	601a      	str	r2, [r3, #0]
 8012f40:	682a      	ldr	r2, [r5, #0]
 8012f42:	681d      	ldr	r5, [r3, #0]
 8012f44:	6ad2      	ldr	r2, [r2, #44]	; 0x2c
 8012f46:	62e2      	str	r2, [r4, #44]	; 0x2c
 8012f48:	2401      	movs	r4, #1
 8012f4a:	fa04 f002 	lsl.w	r0, r4, r2
 8012f4e:	4328      	orrs	r0, r5
 8012f50:	6018      	str	r0, [r3, #0]
 8012f52:	2014      	movs	r0, #20
 8012f54:	fb00 6002 	mla	r0, r0, r2, r6
 8012f58:	f7fe fe28 	bl	8011bac <vListInsertEnd>
 8012f5c:	4620      	mov	r0, r4
 8012f5e:	e003      	b.n	8012f68 <xTaskPriorityInherit+0x78>
 8012f60:	682b      	ldr	r3, [r5, #0]
 8012f62:	6adb      	ldr	r3, [r3, #44]	; 0x2c
 8012f64:	62c3      	str	r3, [r0, #44]	; 0x2c
 8012f66:	2001      	movs	r0, #1
 8012f68:	b003      	add	sp, #12
 8012f6a:	bdf0      	pop	{r4, r5, r6, r7, pc}
 8012f6c:	682b      	ldr	r3, [r5, #0]
 8012f6e:	6c40      	ldr	r0, [r0, #68]	; 0x44
 8012f70:	6adc      	ldr	r4, [r3, #44]	; 0x2c
 8012f72:	42a0      	cmp	r0, r4
 8012f74:	bf2c      	ite	cs
 8012f76:	2000      	movcs	r0, #0
 8012f78:	2001      	movcc	r0, #1
 8012f7a:	e7f5      	b.n	8012f68 <xTaskPriorityInherit+0x78>
 8012f7c:	2000cb98 	.word	0x2000cb98
 8012f80:	2000cba4 	.word	0x2000cba4
 8012f84:	2000cc44 	.word	0x2000cc44

08012f88 <xTaskPriorityDisinherit>:
 8012f88:	b5f7      	push	{r0, r1, r2, r4, r5, r6, r7, lr}
 8012f8a:	4604      	mov	r4, r0
 8012f8c:	b910      	cbnz	r0, 8012f94 <xTaskPriorityDisinherit+0xc>
 8012f8e:	2000      	movs	r0, #0
 8012f90:	b003      	add	sp, #12
 8012f92:	bdf0      	pop	{r4, r5, r6, r7, pc}
 8012f94:	4b22      	ldr	r3, [pc, #136]	; (8013020 <xTaskPriorityDisinherit+0x98>)
 8012f96:	681b      	ldr	r3, [r3, #0]
 8012f98:	4283      	cmp	r3, r0
 8012f9a:	d008      	beq.n	8012fae <xTaskPriorityDisinherit+0x26>
 8012f9c:	f04f 0350 	mov.w	r3, #80	; 0x50
 8012fa0:	f383 8811 	msr	BASEPRI, r3
 8012fa4:	f3bf 8f6f 	isb	sy
 8012fa8:	f3bf 8f4f 	dsb	sy
 8012fac:	e7fe      	b.n	8012fac <xTaskPriorityDisinherit+0x24>
 8012fae:	6c9b      	ldr	r3, [r3, #72]	; 0x48
 8012fb0:	b943      	cbnz	r3, 8012fc4 <xTaskPriorityDisinherit+0x3c>
 8012fb2:	f04f 0350 	mov.w	r3, #80	; 0x50
 8012fb6:	f383 8811 	msr	BASEPRI, r3
 8012fba:	f3bf 8f6f 	isb	sy
 8012fbe:	f3bf 8f4f 	dsb	sy
 8012fc2:	e7fe      	b.n	8012fc2 <xTaskPriorityDisinherit+0x3a>
 8012fc4:	6ac1      	ldr	r1, [r0, #44]	; 0x2c
 8012fc6:	6c42      	ldr	r2, [r0, #68]	; 0x44
 8012fc8:	3b01      	subs	r3, #1
 8012fca:	4291      	cmp	r1, r2
 8012fcc:	6483      	str	r3, [r0, #72]	; 0x48
 8012fce:	d0de      	beq.n	8012f8e <xTaskPriorityDisinherit+0x6>
 8012fd0:	2b00      	cmp	r3, #0
 8012fd2:	d1dc      	bne.n	8012f8e <xTaskPriorityDisinherit+0x6>
 8012fd4:	1d01      	adds	r1, r0, #4
 8012fd6:	4608      	mov	r0, r1
 8012fd8:	9101      	str	r1, [sp, #4]
 8012fda:	f7fe fe0a 	bl	8011bf2 <uxListRemove>
 8012fde:	4f11      	ldr	r7, [pc, #68]	; (8013024 <xTaskPriorityDisinherit+0x9c>)
 8012fe0:	4a11      	ldr	r2, [pc, #68]	; (8013028 <xTaskPriorityDisinherit+0xa0>)
 8012fe2:	9901      	ldr	r1, [sp, #4]
 8012fe4:	b950      	cbnz	r0, 8012ffc <xTaskPriorityDisinherit+0x74>
 8012fe6:	6ae0      	ldr	r0, [r4, #44]	; 0x2c
 8012fe8:	2614      	movs	r6, #20
 8012fea:	4346      	muls	r6, r0
 8012fec:	59bb      	ldr	r3, [r7, r6]
 8012fee:	b92b      	cbnz	r3, 8012ffc <xTaskPriorityDisinherit+0x74>
 8012ff0:	6813      	ldr	r3, [r2, #0]
 8012ff2:	2501      	movs	r5, #1
 8012ff4:	4085      	lsls	r5, r0
 8012ff6:	ea23 0305 	bic.w	r3, r3, r5
 8012ffa:	6013      	str	r3, [r2, #0]
 8012ffc:	6c63      	ldr	r3, [r4, #68]	; 0x44
 8012ffe:	62e3      	str	r3, [r4, #44]	; 0x2c
 8013000:	f1c3 0007 	rsb	r0, r3, #7
 8013004:	61a0      	str	r0, [r4, #24]
 8013006:	6810      	ldr	r0, [r2, #0]
 8013008:	2401      	movs	r4, #1
 801300a:	fa04 f503 	lsl.w	r5, r4, r3
 801300e:	4305      	orrs	r5, r0
 8013010:	2014      	movs	r0, #20
 8013012:	fb00 7003 	mla	r0, r0, r3, r7
 8013016:	6015      	str	r5, [r2, #0]
 8013018:	f7fe fdc8 	bl	8011bac <vListInsertEnd>
 801301c:	4620      	mov	r0, r4
 801301e:	e7b7      	b.n	8012f90 <xTaskPriorityDisinherit+0x8>
 8013020:	2000cb98 	.word	0x2000cb98
 8013024:	2000cba4 	.word	0x2000cba4
 8013028:	2000cc44 	.word	0x2000cc44

0801302c <vTaskPriorityDisinheritAfterTimeout>:
 801302c:	b537      	push	{r0, r1, r2, r4, r5, lr}
 801302e:	4604      	mov	r4, r0
 8013030:	2800      	cmp	r0, #0
 8013032:	d04b      	beq.n	80130cc <vTaskPriorityDisinheritAfterTimeout+0xa0>
 8013034:	6c82      	ldr	r2, [r0, #72]	; 0x48
 8013036:	b942      	cbnz	r2, 801304a <vTaskPriorityDisinheritAfterTimeout+0x1e>
 8013038:	f04f 0350 	mov.w	r3, #80	; 0x50
 801303c:	f383 8811 	msr	BASEPRI, r3
 8013040:	f3bf 8f6f 	isb	sy
 8013044:	f3bf 8f4f 	dsb	sy
 8013048:	e7fe      	b.n	8013048 <vTaskPriorityDisinheritAfterTimeout+0x1c>
 801304a:	6c43      	ldr	r3, [r0, #68]	; 0x44
 801304c:	4299      	cmp	r1, r3
 801304e:	bf38      	it	cc
 8013050:	4619      	movcc	r1, r3
 8013052:	6ac3      	ldr	r3, [r0, #44]	; 0x2c
 8013054:	428b      	cmp	r3, r1
 8013056:	d039      	beq.n	80130cc <vTaskPriorityDisinheritAfterTimeout+0xa0>
 8013058:	2a01      	cmp	r2, #1
 801305a:	d137      	bne.n	80130cc <vTaskPriorityDisinheritAfterTimeout+0xa0>
 801305c:	4a1c      	ldr	r2, [pc, #112]	; (80130d0 <vTaskPriorityDisinheritAfterTimeout+0xa4>)
 801305e:	6812      	ldr	r2, [r2, #0]
 8013060:	4282      	cmp	r2, r0
 8013062:	d108      	bne.n	8013076 <vTaskPriorityDisinheritAfterTimeout+0x4a>
 8013064:	f04f 0350 	mov.w	r3, #80	; 0x50
 8013068:	f383 8811 	msr	BASEPRI, r3
 801306c:	f3bf 8f6f 	isb	sy
 8013070:	f3bf 8f4f 	dsb	sy
 8013074:	e7fe      	b.n	8013074 <vTaskPriorityDisinheritAfterTimeout+0x48>
 8013076:	6982      	ldr	r2, [r0, #24]
 8013078:	4d16      	ldr	r5, [pc, #88]	; (80130d4 <vTaskPriorityDisinheritAfterTimeout+0xa8>)
 801307a:	62c1      	str	r1, [r0, #44]	; 0x2c
 801307c:	2a00      	cmp	r2, #0
 801307e:	f04f 0214 	mov.w	r2, #20
 8013082:	fb02 5303 	mla	r3, r2, r3, r5
 8013086:	6942      	ldr	r2, [r0, #20]
 8013088:	bfa4      	itt	ge
 801308a:	f1c1 0107 	rsbge	r1, r1, #7
 801308e:	6181      	strge	r1, [r0, #24]
 8013090:	429a      	cmp	r2, r3
 8013092:	d11b      	bne.n	80130cc <vTaskPriorityDisinheritAfterTimeout+0xa0>
 8013094:	1d01      	adds	r1, r0, #4
 8013096:	4608      	mov	r0, r1
 8013098:	9101      	str	r1, [sp, #4]
 801309a:	f7fe fdaa 	bl	8011bf2 <uxListRemove>
 801309e:	6ae4      	ldr	r4, [r4, #44]	; 0x2c
 80130a0:	4a0d      	ldr	r2, [pc, #52]	; (80130d8 <vTaskPriorityDisinheritAfterTimeout+0xac>)
 80130a2:	9901      	ldr	r1, [sp, #4]
 80130a4:	b928      	cbnz	r0, 80130b2 <vTaskPriorityDisinheritAfterTimeout+0x86>
 80130a6:	6813      	ldr	r3, [r2, #0]
 80130a8:	2001      	movs	r0, #1
 80130aa:	40a0      	lsls	r0, r4
 80130ac:	ea23 0300 	bic.w	r3, r3, r0
 80130b0:	6013      	str	r3, [r2, #0]
 80130b2:	6810      	ldr	r0, [r2, #0]
 80130b4:	2301      	movs	r3, #1
 80130b6:	40a3      	lsls	r3, r4
 80130b8:	4303      	orrs	r3, r0
 80130ba:	2014      	movs	r0, #20
 80130bc:	fb00 5004 	mla	r0, r0, r4, r5
 80130c0:	6013      	str	r3, [r2, #0]
 80130c2:	b003      	add	sp, #12
 80130c4:	e8bd 4030 	ldmia.w	sp!, {r4, r5, lr}
 80130c8:	f7fe bd70 	b.w	8011bac <vListInsertEnd>
 80130cc:	b003      	add	sp, #12
 80130ce:	bd30      	pop	{r4, r5, pc}
 80130d0:	2000cb98 	.word	0x2000cb98
 80130d4:	2000cba4 	.word	0x2000cba4
 80130d8:	2000cc44 	.word	0x2000cc44

080130dc <pvTaskIncrementMutexHeldCount>:
 80130dc:	4b04      	ldr	r3, [pc, #16]	; (80130f0 <pvTaskIncrementMutexHeldCount+0x14>)
 80130de:	681a      	ldr	r2, [r3, #0]
 80130e0:	b11a      	cbz	r2, 80130ea <pvTaskIncrementMutexHeldCount+0xe>
 80130e2:	6819      	ldr	r1, [r3, #0]
 80130e4:	6c8a      	ldr	r2, [r1, #72]	; 0x48
 80130e6:	3201      	adds	r2, #1
 80130e8:	648a      	str	r2, [r1, #72]	; 0x48
 80130ea:	6818      	ldr	r0, [r3, #0]
 80130ec:	4770      	bx	lr
 80130ee:	bf00      	nop
 80130f0:	2000cb98 	.word	0x2000cb98

080130f4 <xTaskNotifyWait>:
 80130f4:	e92d 41f0 	stmdb	sp!, {r4, r5, r6, r7, r8, lr}
 80130f8:	4c22      	ldr	r4, [pc, #136]	; (8013184 <xTaskNotifyWait+0x90>)
 80130fa:	461e      	mov	r6, r3
 80130fc:	4680      	mov	r8, r0
 80130fe:	460f      	mov	r7, r1
 8013100:	4615      	mov	r5, r2
 8013102:	f000 fbff 	bl	8013904 <vPortEnterCritical>
 8013106:	6823      	ldr	r3, [r4, #0]
 8013108:	f893 30b4 	ldrb.w	r3, [r3, #180]	; 0xb4
 801310c:	2b02      	cmp	r3, #2
 801310e:	d018      	beq.n	8013142 <xTaskNotifyWait+0x4e>
 8013110:	6822      	ldr	r2, [r4, #0]
 8013112:	f8d2 30b0 	ldr.w	r3, [r2, #176]	; 0xb0
 8013116:	ea23 0308 	bic.w	r3, r3, r8
 801311a:	f8c2 30b0 	str.w	r3, [r2, #176]	; 0xb0
 801311e:	6823      	ldr	r3, [r4, #0]
 8013120:	2101      	movs	r1, #1
 8013122:	f883 10b4 	strb.w	r1, [r3, #180]	; 0xb4
 8013126:	b166      	cbz	r6, 8013142 <xTaskNotifyWait+0x4e>
 8013128:	4630      	mov	r0, r6
 801312a:	f7ff fabb 	bl	80126a4 <prvAddCurrentTaskToDelayedList>
 801312e:	f04f 23e0 	mov.w	r3, #3758153728	; 0xe000e000
 8013132:	f04f 5280 	mov.w	r2, #268435456	; 0x10000000
 8013136:	f8c3 2d04 	str.w	r2, [r3, #3332]	; 0xd04
 801313a:	f3bf 8f4f 	dsb	sy
 801313e:	f3bf 8f6f 	isb	sy
 8013142:	f000 fbff 	bl	8013944 <vPortExitCritical>
 8013146:	f000 fbdd 	bl	8013904 <vPortEnterCritical>
 801314a:	b11d      	cbz	r5, 8013154 <xTaskNotifyWait+0x60>
 801314c:	6823      	ldr	r3, [r4, #0]
 801314e:	f8d3 30b0 	ldr.w	r3, [r3, #176]	; 0xb0
 8013152:	602b      	str	r3, [r5, #0]
 8013154:	6823      	ldr	r3, [r4, #0]
 8013156:	f893 30b4 	ldrb.w	r3, [r3, #180]	; 0xb4
 801315a:	2b02      	cmp	r3, #2
 801315c:	bf01      	itttt	eq
 801315e:	6822      	ldreq	r2, [r4, #0]
 8013160:	f8d2 30b0 	ldreq.w	r3, [r2, #176]	; 0xb0
 8013164:	43bb      	biceq	r3, r7
 8013166:	f8c2 30b0 	streq.w	r3, [r2, #176]	; 0xb0
 801316a:	6823      	ldr	r3, [r4, #0]
 801316c:	f04f 0200 	mov.w	r2, #0
 8013170:	bf0c      	ite	eq
 8013172:	2501      	moveq	r5, #1
 8013174:	2500      	movne	r5, #0
 8013176:	f883 20b4 	strb.w	r2, [r3, #180]	; 0xb4
 801317a:	f000 fbe3 	bl	8013944 <vPortExitCritical>
 801317e:	4628      	mov	r0, r5
 8013180:	e8bd 81f0 	ldmia.w	sp!, {r4, r5, r6, r7, r8, pc}
 8013184:	2000cb98 	.word	0x2000cb98

08013188 <xTaskGenericNotify>:
 8013188:	b5f7      	push	{r0, r1, r2, r4, r5, r6, r7, lr}
 801318a:	460e      	mov	r6, r1
 801318c:	4617      	mov	r7, r2
 801318e:	461d      	mov	r5, r3
 8013190:	4604      	mov	r4, r0
 8013192:	b940      	cbnz	r0, 80131a6 <xTaskGenericNotify+0x1e>
 8013194:	f04f 0350 	mov.w	r3, #80	; 0x50
 8013198:	f383 8811 	msr	BASEPRI, r3
 801319c:	f3bf 8f6f 	isb	sy
 80131a0:	f3bf 8f4f 	dsb	sy
 80131a4:	e7fe      	b.n	80131a4 <xTaskGenericNotify+0x1c>
 80131a6:	f000 fbad 	bl	8013904 <vPortEnterCritical>
 80131aa:	b115      	cbz	r5, 80131b2 <xTaskGenericNotify+0x2a>
 80131ac:	f8d4 30b0 	ldr.w	r3, [r4, #176]	; 0xb0
 80131b0:	602b      	str	r3, [r5, #0]
 80131b2:	f894 50b4 	ldrb.w	r5, [r4, #180]	; 0xb4
 80131b6:	2302      	movs	r3, #2
 80131b8:	b2ed      	uxtb	r5, r5
 80131ba:	f884 30b4 	strb.w	r3, [r4, #180]	; 0xb4
 80131be:	2f04      	cmp	r7, #4
 80131c0:	d81b      	bhi.n	80131fa <xTaskGenericNotify+0x72>
 80131c2:	e8df f007 	tbb	[pc, r7]
 80131c6:	030e      	.short	0x030e
 80131c8:	0609      	.short	0x0609
 80131ca:	16          	.byte	0x16
 80131cb:	00          	.byte	0x00
 80131cc:	f8d4 10b0 	ldr.w	r1, [r4, #176]	; 0xb0
 80131d0:	430e      	orrs	r6, r1
 80131d2:	f8c4 60b0 	str.w	r6, [r4, #176]	; 0xb0
 80131d6:	e004      	b.n	80131e2 <xTaskGenericNotify+0x5a>
 80131d8:	f8d4 30b0 	ldr.w	r3, [r4, #176]	; 0xb0
 80131dc:	3301      	adds	r3, #1
 80131de:	f8c4 30b0 	str.w	r3, [r4, #176]	; 0xb0
 80131e2:	2d01      	cmp	r5, #1
 80131e4:	d016      	beq.n	8013214 <xTaskGenericNotify+0x8c>
 80131e6:	2501      	movs	r5, #1
 80131e8:	f000 fbac 	bl	8013944 <vPortExitCritical>
 80131ec:	4628      	mov	r0, r5
 80131ee:	b003      	add	sp, #12
 80131f0:	bdf0      	pop	{r4, r5, r6, r7, pc}
 80131f2:	2d02      	cmp	r5, #2
 80131f4:	d1ed      	bne.n	80131d2 <xTaskGenericNotify+0x4a>
 80131f6:	2500      	movs	r5, #0
 80131f8:	e7f6      	b.n	80131e8 <xTaskGenericNotify+0x60>
 80131fa:	f8d4 30b0 	ldr.w	r3, [r4, #176]	; 0xb0
 80131fe:	3301      	adds	r3, #1
 8013200:	d0ef      	beq.n	80131e2 <xTaskGenericNotify+0x5a>
 8013202:	f04f 0350 	mov.w	r3, #80	; 0x50
 8013206:	f383 8811 	msr	BASEPRI, r3
 801320a:	f3bf 8f6f 	isb	sy
 801320e:	f3bf 8f4f 	dsb	sy
 8013212:	e7fe      	b.n	8013212 <xTaskGenericNotify+0x8a>
 8013214:	1d21      	adds	r1, r4, #4
 8013216:	4608      	mov	r0, r1
 8013218:	9101      	str	r1, [sp, #4]
 801321a:	f7fe fcea 	bl	8011bf2 <uxListRemove>
 801321e:	4815      	ldr	r0, [pc, #84]	; (8013274 <xTaskGenericNotify+0xec>)
 8013220:	6ae2      	ldr	r2, [r4, #44]	; 0x2c
 8013222:	6806      	ldr	r6, [r0, #0]
 8013224:	9901      	ldr	r1, [sp, #4]
 8013226:	fa05 f302 	lsl.w	r3, r5, r2
 801322a:	4333      	orrs	r3, r6
 801322c:	6003      	str	r3, [r0, #0]
 801322e:	4b12      	ldr	r3, [pc, #72]	; (8013278 <xTaskGenericNotify+0xf0>)
 8013230:	2014      	movs	r0, #20
 8013232:	fb00 3002 	mla	r0, r0, r2, r3
 8013236:	f7fe fcb9 	bl	8011bac <vListInsertEnd>
 801323a:	6aa3      	ldr	r3, [r4, #40]	; 0x28
 801323c:	b143      	cbz	r3, 8013250 <xTaskGenericNotify+0xc8>
 801323e:	f04f 0350 	mov.w	r3, #80	; 0x50
 8013242:	f383 8811 	msr	BASEPRI, r3
 8013246:	f3bf 8f6f 	isb	sy
 801324a:	f3bf 8f4f 	dsb	sy
 801324e:	e7fe      	b.n	801324e <xTaskGenericNotify+0xc6>
 8013250:	4b0a      	ldr	r3, [pc, #40]	; (801327c <xTaskGenericNotify+0xf4>)
 8013252:	6ae2      	ldr	r2, [r4, #44]	; 0x2c
 8013254:	681b      	ldr	r3, [r3, #0]
 8013256:	6adb      	ldr	r3, [r3, #44]	; 0x2c
 8013258:	429a      	cmp	r2, r3
 801325a:	d9c4      	bls.n	80131e6 <xTaskGenericNotify+0x5e>
 801325c:	f04f 23e0 	mov.w	r3, #3758153728	; 0xe000e000
 8013260:	f04f 5280 	mov.w	r2, #268435456	; 0x10000000
 8013264:	f8c3 2d04 	str.w	r2, [r3, #3332]	; 0xd04
 8013268:	f3bf 8f4f 	dsb	sy
 801326c:	f3bf 8f6f 	isb	sy
 8013270:	e7ba      	b.n	80131e8 <xTaskGenericNotify+0x60>
 8013272:	bf00      	nop
 8013274:	2000cc44 	.word	0x2000cc44
 8013278:	2000cba4 	.word	0x2000cba4
 801327c:	2000cb98 	.word	0x2000cb98

08013280 <xTaskGenericNotifyFromISR>:
 8013280:	e92d 43f7 	stmdb	sp!, {r0, r1, r2, r4, r5, r6, r7, r8, r9, lr}
 8013284:	f8dd 8028 	ldr.w	r8, [sp, #40]	; 0x28
 8013288:	460e      	mov	r6, r1
 801328a:	4617      	mov	r7, r2
 801328c:	461d      	mov	r5, r3
 801328e:	4604      	mov	r4, r0
 8013290:	b940      	cbnz	r0, 80132a4 <xTaskGenericNotifyFromISR+0x24>
 8013292:	f04f 0350 	mov.w	r3, #80	; 0x50
 8013296:	f383 8811 	msr	BASEPRI, r3
 801329a:	f3bf 8f6f 	isb	sy
 801329e:	f3bf 8f4f 	dsb	sy
 80132a2:	e7fe      	b.n	80132a2 <xTaskGenericNotifyFromISR+0x22>
 80132a4:	f000 fc44 	bl	8013b30 <vPortValidateInterruptPriority>
 80132a8:	f3ef 8911 	mrs	r9, BASEPRI
 80132ac:	f04f 0350 	mov.w	r3, #80	; 0x50
 80132b0:	f383 8811 	msr	BASEPRI, r3
 80132b4:	f3bf 8f6f 	isb	sy
 80132b8:	f3bf 8f4f 	dsb	sy
 80132bc:	b115      	cbz	r5, 80132c4 <xTaskGenericNotifyFromISR+0x44>
 80132be:	f8d4 30b0 	ldr.w	r3, [r4, #176]	; 0xb0
 80132c2:	602b      	str	r3, [r5, #0]
 80132c4:	f894 50b4 	ldrb.w	r5, [r4, #180]	; 0xb4
 80132c8:	2302      	movs	r3, #2
 80132ca:	b2ed      	uxtb	r5, r5
 80132cc:	f884 30b4 	strb.w	r3, [r4, #180]	; 0xb4
 80132d0:	2f04      	cmp	r7, #4
 80132d2:	d81b      	bhi.n	801330c <xTaskGenericNotifyFromISR+0x8c>
 80132d4:	e8df f007 	tbb	[pc, r7]
 80132d8:	0609030e 	.word	0x0609030e
 80132dc:	16          	.byte	0x16
 80132dd:	00          	.byte	0x00
 80132de:	f8d4 10b0 	ldr.w	r1, [r4, #176]	; 0xb0
 80132e2:	430e      	orrs	r6, r1
 80132e4:	f8c4 60b0 	str.w	r6, [r4, #176]	; 0xb0
 80132e8:	e004      	b.n	80132f4 <xTaskGenericNotifyFromISR+0x74>
 80132ea:	f8d4 30b0 	ldr.w	r3, [r4, #176]	; 0xb0
 80132ee:	3301      	adds	r3, #1
 80132f0:	f8c4 30b0 	str.w	r3, [r4, #176]	; 0xb0
 80132f4:	2d01      	cmp	r5, #1
 80132f6:	d016      	beq.n	8013326 <xTaskGenericNotifyFromISR+0xa6>
 80132f8:	2001      	movs	r0, #1
 80132fa:	f389 8811 	msr	BASEPRI, r9
 80132fe:	b003      	add	sp, #12
 8013300:	e8bd 83f0 	ldmia.w	sp!, {r4, r5, r6, r7, r8, r9, pc}
 8013304:	2d02      	cmp	r5, #2
 8013306:	d1ed      	bne.n	80132e4 <xTaskGenericNotifyFromISR+0x64>
 8013308:	2000      	movs	r0, #0
 801330a:	e7f6      	b.n	80132fa <xTaskGenericNotifyFromISR+0x7a>
 801330c:	f8d4 30b0 	ldr.w	r3, [r4, #176]	; 0xb0
 8013310:	3301      	adds	r3, #1
 8013312:	d0ef      	beq.n	80132f4 <xTaskGenericNotifyFromISR+0x74>
 8013314:	f04f 0350 	mov.w	r3, #80	; 0x50
 8013318:	f383 8811 	msr	BASEPRI, r3
 801331c:	f3bf 8f6f 	isb	sy
 8013320:	f3bf 8f4f 	dsb	sy
 8013324:	e7fe      	b.n	8013324 <xTaskGenericNotifyFromISR+0xa4>
 8013326:	6aa3      	ldr	r3, [r4, #40]	; 0x28
 8013328:	b143      	cbz	r3, 801333c <xTaskGenericNotifyFromISR+0xbc>
 801332a:	f04f 0350 	mov.w	r3, #80	; 0x50
 801332e:	f383 8811 	msr	BASEPRI, r3
 8013332:	f3bf 8f6f 	isb	sy
 8013336:	f3bf 8f4f 	dsb	sy
 801333a:	e7fe      	b.n	801333a <xTaskGenericNotifyFromISR+0xba>
 801333c:	4b13      	ldr	r3, [pc, #76]	; (801338c <xTaskGenericNotifyFromISR+0x10c>)
 801333e:	681b      	ldr	r3, [r3, #0]
 8013340:	bb03      	cbnz	r3, 8013384 <xTaskGenericNotifyFromISR+0x104>
 8013342:	1d21      	adds	r1, r4, #4
 8013344:	4608      	mov	r0, r1
 8013346:	9101      	str	r1, [sp, #4]
 8013348:	f7fe fc53 	bl	8011bf2 <uxListRemove>
 801334c:	4a10      	ldr	r2, [pc, #64]	; (8013390 <xTaskGenericNotifyFromISR+0x110>)
 801334e:	6ae3      	ldr	r3, [r4, #44]	; 0x2c
 8013350:	6810      	ldr	r0, [r2, #0]
 8013352:	9901      	ldr	r1, [sp, #4]
 8013354:	409d      	lsls	r5, r3
 8013356:	4305      	orrs	r5, r0
 8013358:	6015      	str	r5, [r2, #0]
 801335a:	4a0e      	ldr	r2, [pc, #56]	; (8013394 <xTaskGenericNotifyFromISR+0x114>)
 801335c:	2014      	movs	r0, #20
 801335e:	fb00 2003 	mla	r0, r0, r3, r2
 8013362:	f7fe fc23 	bl	8011bac <vListInsertEnd>
 8013366:	4b0c      	ldr	r3, [pc, #48]	; (8013398 <xTaskGenericNotifyFromISR+0x118>)
 8013368:	6ae2      	ldr	r2, [r4, #44]	; 0x2c
 801336a:	681b      	ldr	r3, [r3, #0]
 801336c:	6adb      	ldr	r3, [r3, #44]	; 0x2c
 801336e:	429a      	cmp	r2, r3
 8013370:	d9c2      	bls.n	80132f8 <xTaskGenericNotifyFromISR+0x78>
 8013372:	2301      	movs	r3, #1
 8013374:	f1b8 0f00 	cmp.w	r8, #0
 8013378:	d001      	beq.n	801337e <xTaskGenericNotifyFromISR+0xfe>
 801337a:	f8c8 3000 	str.w	r3, [r8]
 801337e:	4a07      	ldr	r2, [pc, #28]	; (801339c <xTaskGenericNotifyFromISR+0x11c>)
 8013380:	6013      	str	r3, [r2, #0]
 8013382:	e7b9      	b.n	80132f8 <xTaskGenericNotifyFromISR+0x78>
 8013384:	4806      	ldr	r0, [pc, #24]	; (80133a0 <xTaskGenericNotifyFromISR+0x120>)
 8013386:	f104 0118 	add.w	r1, r4, #24
 801338a:	e7ea      	b.n	8013362 <xTaskGenericNotifyFromISR+0xe2>
 801338c:	2000cc3c 	.word	0x2000cc3c
 8013390:	2000cc44 	.word	0x2000cc44
 8013394:	2000cba4 	.word	0x2000cba4
 8013398:	2000cb98 	.word	0x2000cb98
 801339c:	2000ccc0 	.word	0x2000ccc0
 80133a0:	2000cc7c 	.word	0x2000cc7c

080133a4 <prvCheckForValidListAndQueue>:
 80133a4:	b5f7      	push	{r0, r1, r2, r4, r5, r6, r7, lr}
 80133a6:	4c11      	ldr	r4, [pc, #68]	; (80133ec <prvCheckForValidListAndQueue+0x48>)
 80133a8:	f000 faac 	bl	8013904 <vPortEnterCritical>
 80133ac:	6825      	ldr	r5, [r4, #0]
 80133ae:	b9bd      	cbnz	r5, 80133e0 <prvCheckForValidListAndQueue+0x3c>
 80133b0:	4f0f      	ldr	r7, [pc, #60]	; (80133f0 <prvCheckForValidListAndQueue+0x4c>)
 80133b2:	4e10      	ldr	r6, [pc, #64]	; (80133f4 <prvCheckForValidListAndQueue+0x50>)
 80133b4:	4638      	mov	r0, r7
 80133b6:	f7fe fbeb 	bl	8011b90 <vListInitialise>
 80133ba:	4630      	mov	r0, r6
 80133bc:	f7fe fbe8 	bl	8011b90 <vListInitialise>
 80133c0:	4b0d      	ldr	r3, [pc, #52]	; (80133f8 <prvCheckForValidListAndQueue+0x54>)
 80133c2:	4a0e      	ldr	r2, [pc, #56]	; (80133fc <prvCheckForValidListAndQueue+0x58>)
 80133c4:	601f      	str	r7, [r3, #0]
 80133c6:	4b0e      	ldr	r3, [pc, #56]	; (8013400 <prvCheckForValidListAndQueue+0x5c>)
 80133c8:	210c      	movs	r1, #12
 80133ca:	601e      	str	r6, [r3, #0]
 80133cc:	200a      	movs	r0, #10
 80133ce:	4b0d      	ldr	r3, [pc, #52]	; (8013404 <prvCheckForValidListAndQueue+0x60>)
 80133d0:	9500      	str	r5, [sp, #0]
 80133d2:	f7fe fceb 	bl	8011dac <xQueueGenericCreateStatic>
 80133d6:	6020      	str	r0, [r4, #0]
 80133d8:	b110      	cbz	r0, 80133e0 <prvCheckForValidListAndQueue+0x3c>
 80133da:	490b      	ldr	r1, [pc, #44]	; (8013408 <prvCheckForValidListAndQueue+0x64>)
 80133dc:	f7ff f8ae 	bl	801253c <vQueueAddToRegistry>
 80133e0:	b003      	add	sp, #12
 80133e2:	e8bd 40f0 	ldmia.w	sp!, {r4, r5, r6, r7, lr}
 80133e6:	f000 baad 	b.w	8013944 <vPortExitCritical>
 80133ea:	bf00      	nop
 80133ec:	2000cdb8 	.word	0x2000cdb8
 80133f0:	2000cd44 	.word	0x2000cd44
 80133f4:	2000cd58 	.word	0x2000cd58
 80133f8:	2000ccc4 	.word	0x2000ccc4
 80133fc:	2000cccc 	.word	0x2000cccc
 8013400:	2000ccc8 	.word	0x2000ccc8
 8013404:	2000cd70 	.word	0x2000cd70
 8013408:	08015b51 	.word	0x08015b51

0801340c <prvInsertTimerInActiveList>:
 801340c:	4291      	cmp	r1, r2
 801340e:	b508      	push	{r3, lr}
 8013410:	6041      	str	r1, [r0, #4]
 8013412:	6100      	str	r0, [r0, #16]
 8013414:	d80a      	bhi.n	801342c <prvInsertTimerInActiveList+0x20>
 8013416:	1ad2      	subs	r2, r2, r3
 8013418:	6983      	ldr	r3, [r0, #24]
 801341a:	429a      	cmp	r2, r3
 801341c:	d20d      	bcs.n	801343a <prvInsertTimerInActiveList+0x2e>
 801341e:	4b08      	ldr	r3, [pc, #32]	; (8013440 <prvInsertTimerInActiveList+0x34>)
 8013420:	1d01      	adds	r1, r0, #4
 8013422:	6818      	ldr	r0, [r3, #0]
 8013424:	f7fe fbce 	bl	8011bc4 <vListInsert>
 8013428:	2000      	movs	r0, #0
 801342a:	bd08      	pop	{r3, pc}
 801342c:	429a      	cmp	r2, r3
 801342e:	d201      	bcs.n	8013434 <prvInsertTimerInActiveList+0x28>
 8013430:	4299      	cmp	r1, r3
 8013432:	d202      	bcs.n	801343a <prvInsertTimerInActiveList+0x2e>
 8013434:	4b03      	ldr	r3, [pc, #12]	; (8013444 <prvInsertTimerInActiveList+0x38>)
 8013436:	1d01      	adds	r1, r0, #4
 8013438:	e7f3      	b.n	8013422 <prvInsertTimerInActiveList+0x16>
 801343a:	2001      	movs	r0, #1
 801343c:	e7f5      	b.n	801342a <prvInsertTimerInActiveList+0x1e>
 801343e:	bf00      	nop
 8013440:	2000ccc8 	.word	0x2000ccc8
 8013444:	2000ccc4 	.word	0x2000ccc4

08013448 <prvInitialiseNewTimer>:
 8013448:	e92d 41f0 	stmdb	sp!, {r4, r5, r6, r7, r8, lr}
 801344c:	9c07      	ldr	r4, [sp, #28]
 801344e:	4680      	mov	r8, r0
 8013450:	4616      	mov	r6, r2
 8013452:	461f      	mov	r7, r3
 8013454:	460d      	mov	r5, r1
 8013456:	b941      	cbnz	r1, 801346a <prvInitialiseNewTimer+0x22>
 8013458:	f04f 0350 	mov.w	r3, #80	; 0x50
 801345c:	f383 8811 	msr	BASEPRI, r3
 8013460:	f3bf 8f6f 	isb	sy
 8013464:	f3bf 8f4f 	dsb	sy
 8013468:	e7fe      	b.n	8013468 <prvInitialiseNewTimer+0x20>
 801346a:	b18c      	cbz	r4, 8013490 <prvInitialiseNewTimer+0x48>
 801346c:	f7ff ff9a 	bl	80133a4 <prvCheckForValidListAndQueue>
 8013470:	9b06      	ldr	r3, [sp, #24]
 8013472:	f8c4 8000 	str.w	r8, [r4]
 8013476:	e9c4 5706 	strd	r5, r7, [r4, #24]
 801347a:	6223      	str	r3, [r4, #32]
 801347c:	1d20      	adds	r0, r4, #4
 801347e:	f7fe fb92 	bl	8011ba6 <vListInitialiseItem>
 8013482:	b12e      	cbz	r6, 8013490 <prvInitialiseNewTimer+0x48>
 8013484:	f894 3024 	ldrb.w	r3, [r4, #36]	; 0x24
 8013488:	f043 0304 	orr.w	r3, r3, #4
 801348c:	f884 3024 	strb.w	r3, [r4, #36]	; 0x24
 8013490:	e8bd 81f0 	ldmia.w	sp!, {r4, r5, r6, r7, r8, pc}

08013494 <xTimerCreateTimerTask>:
 8013494:	b510      	push	{r4, lr}
 8013496:	b088      	sub	sp, #32
 8013498:	f7ff ff84 	bl	80133a4 <prvCheckForValidListAndQueue>
 801349c:	4b12      	ldr	r3, [pc, #72]	; (80134e8 <xTimerCreateTimerTask+0x54>)
 801349e:	681b      	ldr	r3, [r3, #0]
 80134a0:	b1b3      	cbz	r3, 80134d0 <xTimerCreateTimerTask+0x3c>
 80134a2:	2400      	movs	r4, #0
 80134a4:	aa07      	add	r2, sp, #28
 80134a6:	a906      	add	r1, sp, #24
 80134a8:	a805      	add	r0, sp, #20
 80134aa:	e9cd 4405 	strd	r4, r4, [sp, #20]
 80134ae:	f7f7 fee1 	bl	800b274 <vApplicationGetTimerTaskMemory>
 80134b2:	9b05      	ldr	r3, [sp, #20]
 80134b4:	9302      	str	r3, [sp, #8]
 80134b6:	9b06      	ldr	r3, [sp, #24]
 80134b8:	9301      	str	r3, [sp, #4]
 80134ba:	2302      	movs	r3, #2
 80134bc:	9300      	str	r3, [sp, #0]
 80134be:	9a07      	ldr	r2, [sp, #28]
 80134c0:	490a      	ldr	r1, [pc, #40]	; (80134ec <xTimerCreateTimerTask+0x58>)
 80134c2:	480b      	ldr	r0, [pc, #44]	; (80134f0 <xTimerCreateTimerTask+0x5c>)
 80134c4:	4623      	mov	r3, r4
 80134c6:	f7ff f9ef 	bl	80128a8 <xTaskCreateStatic>
 80134ca:	4b0a      	ldr	r3, [pc, #40]	; (80134f4 <xTimerCreateTimerTask+0x60>)
 80134cc:	6018      	str	r0, [r3, #0]
 80134ce:	b940      	cbnz	r0, 80134e2 <xTimerCreateTimerTask+0x4e>
 80134d0:	f04f 0350 	mov.w	r3, #80	; 0x50
 80134d4:	f383 8811 	msr	BASEPRI, r3
 80134d8:	f3bf 8f6f 	isb	sy
 80134dc:	f3bf 8f4f 	dsb	sy
 80134e0:	e7fe      	b.n	80134e0 <xTimerCreateTimerTask+0x4c>
 80134e2:	2001      	movs	r0, #1
 80134e4:	b008      	add	sp, #32
 80134e6:	bd10      	pop	{r4, pc}
 80134e8:	2000cdb8 	.word	0x2000cdb8
 80134ec:	08015b56 	.word	0x08015b56
 80134f0:	08013681 	.word	0x08013681
 80134f4:	2000cdbc 	.word	0x2000cdbc

080134f8 <xTimerCreate>:
 80134f8:	b530      	push	{r4, r5, lr}
 80134fa:	b087      	sub	sp, #28
 80134fc:	4605      	mov	r5, r0
 80134fe:	2028      	movs	r0, #40	; 0x28
 8013500:	e9cd 2104 	strd	r2, r1, [sp, #16]
 8013504:	9303      	str	r3, [sp, #12]
 8013506:	f000 fb41 	bl	8013b8c <pvPortMalloc>
 801350a:	4604      	mov	r4, r0
 801350c:	b158      	cbz	r0, 8013526 <xTimerCreate+0x2e>
 801350e:	2000      	movs	r0, #0
 8013510:	f884 0024 	strb.w	r0, [r4, #36]	; 0x24
 8013514:	980a      	ldr	r0, [sp, #40]	; 0x28
 8013516:	9000      	str	r0, [sp, #0]
 8013518:	e9dd 3203 	ldrd	r3, r2, [sp, #12]
 801351c:	9905      	ldr	r1, [sp, #20]
 801351e:	9401      	str	r4, [sp, #4]
 8013520:	4628      	mov	r0, r5
 8013522:	f7ff ff91 	bl	8013448 <prvInitialiseNewTimer>
 8013526:	4620      	mov	r0, r4
 8013528:	b007      	add	sp, #28
 801352a:	bd30      	pop	{r4, r5, pc}

0801352c <xTimerCreateStatic>:
 801352c:	b530      	push	{r4, r5, lr}
 801352e:	b085      	sub	sp, #20
 8013530:	2528      	movs	r5, #40	; 0x28
 8013532:	9503      	str	r5, [sp, #12]
 8013534:	9d03      	ldr	r5, [sp, #12]
 8013536:	9c09      	ldr	r4, [sp, #36]	; 0x24
 8013538:	2d28      	cmp	r5, #40	; 0x28
 801353a:	d008      	beq.n	801354e <xTimerCreateStatic+0x22>
 801353c:	f04f 0350 	mov.w	r3, #80	; 0x50
 8013540:	f383 8811 	msr	BASEPRI, r3
 8013544:	f3bf 8f6f 	isb	sy
 8013548:	f3bf 8f4f 	dsb	sy
 801354c:	e7fe      	b.n	801354c <xTimerCreateStatic+0x20>
 801354e:	9d03      	ldr	r5, [sp, #12]
 8013550:	b944      	cbnz	r4, 8013564 <xTimerCreateStatic+0x38>
 8013552:	f04f 0350 	mov.w	r3, #80	; 0x50
 8013556:	f383 8811 	msr	BASEPRI, r3
 801355a:	f3bf 8f6f 	isb	sy
 801355e:	f3bf 8f4f 	dsb	sy
 8013562:	e7fe      	b.n	8013562 <xTimerCreateStatic+0x36>
 8013564:	2502      	movs	r5, #2
 8013566:	f884 5024 	strb.w	r5, [r4, #36]	; 0x24
 801356a:	9d08      	ldr	r5, [sp, #32]
 801356c:	9401      	str	r4, [sp, #4]
 801356e:	9500      	str	r5, [sp, #0]
 8013570:	f7ff ff6a 	bl	8013448 <prvInitialiseNewTimer>
 8013574:	4620      	mov	r0, r4
 8013576:	b005      	add	sp, #20
 8013578:	bd30      	pop	{r4, r5, pc}
	...

0801357c <xTimerGenericCommand>:
 801357c:	b57f      	push	{r0, r1, r2, r3, r4, r5, r6, lr}
 801357e:	4616      	mov	r6, r2
 8013580:	4604      	mov	r4, r0
 8013582:	461a      	mov	r2, r3
 8013584:	b940      	cbnz	r0, 8013598 <xTimerGenericCommand+0x1c>
 8013586:	f04f 0350 	mov.w	r3, #80	; 0x50
 801358a:	f383 8811 	msr	BASEPRI, r3
 801358e:	f3bf 8f6f 	isb	sy
 8013592:	f3bf 8f4f 	dsb	sy
 8013596:	e7fe      	b.n	8013596 <xTimerGenericCommand+0x1a>
 8013598:	4d0d      	ldr	r5, [pc, #52]	; (80135d0 <xTimerGenericCommand+0x54>)
 801359a:	6828      	ldr	r0, [r5, #0]
 801359c:	b180      	cbz	r0, 80135c0 <xTimerGenericCommand+0x44>
 801359e:	2905      	cmp	r1, #5
 80135a0:	e9cd 1601 	strd	r1, r6, [sp, #4]
 80135a4:	9403      	str	r4, [sp, #12]
 80135a6:	dc0d      	bgt.n	80135c4 <xTimerGenericCommand+0x48>
 80135a8:	f7ff fc92 	bl	8012ed0 <xTaskGetSchedulerState>
 80135ac:	2300      	movs	r3, #0
 80135ae:	2802      	cmp	r0, #2
 80135b0:	bf08      	it	eq
 80135b2:	9a08      	ldreq	r2, [sp, #32]
 80135b4:	6828      	ldr	r0, [r5, #0]
 80135b6:	bf18      	it	ne
 80135b8:	461a      	movne	r2, r3
 80135ba:	a901      	add	r1, sp, #4
 80135bc:	f7fe fc64 	bl	8011e88 <xQueueGenericSend>
 80135c0:	b004      	add	sp, #16
 80135c2:	bd70      	pop	{r4, r5, r6, pc}
 80135c4:	2300      	movs	r3, #0
 80135c6:	a901      	add	r1, sp, #4
 80135c8:	f7fe fd40 	bl	801204c <xQueueGenericSendFromISR>
 80135cc:	e7f8      	b.n	80135c0 <xTimerGenericCommand+0x44>
 80135ce:	bf00      	nop
 80135d0:	2000cdb8 	.word	0x2000cdb8

080135d4 <prvSampleTimeNow>:
 80135d4:	e92d 47ff 	stmdb	sp!, {r0, r1, r2, r3, r4, r5, r6, r7, r8, r9, sl, lr}
 80135d8:	f8df 80a0 	ldr.w	r8, [pc, #160]	; 801367c <prvSampleTimeNow+0xa8>
 80135dc:	4606      	mov	r6, r0
 80135de:	f7ff fa23 	bl	8012a28 <xTaskGetTickCount>
 80135e2:	f8d8 3000 	ldr.w	r3, [r8]
 80135e6:	4283      	cmp	r3, r0
 80135e8:	4605      	mov	r5, r0
 80135ea:	d940      	bls.n	801366e <prvSampleTimeNow+0x9a>
 80135ec:	4f21      	ldr	r7, [pc, #132]	; (8013674 <prvSampleTimeNow+0xa0>)
 80135ee:	f04f 0900 	mov.w	r9, #0
 80135f2:	683b      	ldr	r3, [r7, #0]
 80135f4:	681a      	ldr	r2, [r3, #0]
 80135f6:	b95a      	cbnz	r2, 8013610 <prvSampleTimeNow+0x3c>
 80135f8:	4a1f      	ldr	r2, [pc, #124]	; (8013678 <prvSampleTimeNow+0xa4>)
 80135fa:	6811      	ldr	r1, [r2, #0]
 80135fc:	6039      	str	r1, [r7, #0]
 80135fe:	6013      	str	r3, [r2, #0]
 8013600:	2301      	movs	r3, #1
 8013602:	4628      	mov	r0, r5
 8013604:	6033      	str	r3, [r6, #0]
 8013606:	f8c8 5000 	str.w	r5, [r8]
 801360a:	b004      	add	sp, #16
 801360c:	e8bd 87f0 	ldmia.w	sp!, {r4, r5, r6, r7, r8, r9, sl, pc}
 8013610:	68db      	ldr	r3, [r3, #12]
 8013612:	68dc      	ldr	r4, [r3, #12]
 8013614:	f8d3 a000 	ldr.w	sl, [r3]
 8013618:	1d21      	adds	r1, r4, #4
 801361a:	4608      	mov	r0, r1
 801361c:	9103      	str	r1, [sp, #12]
 801361e:	f7fe fae8 	bl	8011bf2 <uxListRemove>
 8013622:	6a23      	ldr	r3, [r4, #32]
 8013624:	4620      	mov	r0, r4
 8013626:	4798      	blx	r3
 8013628:	f894 3024 	ldrb.w	r3, [r4, #36]	; 0x24
 801362c:	9903      	ldr	r1, [sp, #12]
 801362e:	f013 0f04 	tst.w	r3, #4
 8013632:	d0de      	beq.n	80135f2 <prvSampleTimeNow+0x1e>
 8013634:	69a3      	ldr	r3, [r4, #24]
 8013636:	4453      	add	r3, sl
 8013638:	459a      	cmp	sl, r3
 801363a:	d205      	bcs.n	8013648 <prvSampleTimeNow+0x74>
 801363c:	6838      	ldr	r0, [r7, #0]
 801363e:	6063      	str	r3, [r4, #4]
 8013640:	6124      	str	r4, [r4, #16]
 8013642:	f7fe fabf 	bl	8011bc4 <vListInsert>
 8013646:	e7d4      	b.n	80135f2 <prvSampleTimeNow+0x1e>
 8013648:	2300      	movs	r3, #0
 801364a:	f8cd 9000 	str.w	r9, [sp]
 801364e:	4652      	mov	r2, sl
 8013650:	4619      	mov	r1, r3
 8013652:	4620      	mov	r0, r4
 8013654:	f7ff ff92 	bl	801357c <xTimerGenericCommand>
 8013658:	2800      	cmp	r0, #0
 801365a:	d1ca      	bne.n	80135f2 <prvSampleTimeNow+0x1e>
 801365c:	f04f 0350 	mov.w	r3, #80	; 0x50
 8013660:	f383 8811 	msr	BASEPRI, r3
 8013664:	f3bf 8f6f 	isb	sy
 8013668:	f3bf 8f4f 	dsb	sy
 801366c:	e7fe      	b.n	801366c <prvSampleTimeNow+0x98>
 801366e:	2300      	movs	r3, #0
 8013670:	e7c7      	b.n	8013602 <prvSampleTimeNow+0x2e>
 8013672:	bf00      	nop
 8013674:	2000ccc4 	.word	0x2000ccc4
 8013678:	2000ccc8 	.word	0x2000ccc8
 801367c:	2000cd6c 	.word	0x2000cd6c

08013680 <prvTimerTask>:
 8013680:	e92d 43f0 	stmdb	sp!, {r4, r5, r6, r7, r8, r9, lr}
 8013684:	4d69      	ldr	r5, [pc, #420]	; (801382c <prvTimerTask+0x1ac>)
 8013686:	4e6a      	ldr	r6, [pc, #424]	; (8013830 <prvTimerTask+0x1b0>)
 8013688:	b087      	sub	sp, #28
 801368a:	682b      	ldr	r3, [r5, #0]
 801368c:	f8d3 8000 	ldr.w	r8, [r3]
 8013690:	f1b8 0f00 	cmp.w	r8, #0
 8013694:	d035      	beq.n	8013702 <prvTimerTask+0x82>
 8013696:	68db      	ldr	r3, [r3, #12]
 8013698:	f8d3 8000 	ldr.w	r8, [r3]
 801369c:	2400      	movs	r4, #0
 801369e:	f7ff f9bb 	bl	8012a18 <vTaskSuspendAll>
 80136a2:	a803      	add	r0, sp, #12
 80136a4:	f7ff ff96 	bl	80135d4 <prvSampleTimeNow>
 80136a8:	9b03      	ldr	r3, [sp, #12]
 80136aa:	4681      	mov	r9, r0
 80136ac:	2b00      	cmp	r3, #0
 80136ae:	d16a      	bne.n	8013786 <prvTimerTask+0x106>
 80136b0:	2c00      	cmp	r4, #0
 80136b2:	d14d      	bne.n	8013750 <prvTimerTask+0xd0>
 80136b4:	4540      	cmp	r0, r8
 80136b6:	d351      	bcc.n	801375c <prvTimerTask+0xdc>
 80136b8:	f7ff fa54 	bl	8012b64 <xTaskResumeAll>
 80136bc:	682b      	ldr	r3, [r5, #0]
 80136be:	68db      	ldr	r3, [r3, #12]
 80136c0:	68df      	ldr	r7, [r3, #12]
 80136c2:	1d38      	adds	r0, r7, #4
 80136c4:	f7fe fa95 	bl	8011bf2 <uxListRemove>
 80136c8:	f897 3024 	ldrb.w	r3, [r7, #36]	; 0x24
 80136cc:	0758      	lsls	r0, r3, #29
 80136ce:	d51a      	bpl.n	8013706 <prvTimerTask+0x86>
 80136d0:	69b9      	ldr	r1, [r7, #24]
 80136d2:	4643      	mov	r3, r8
 80136d4:	464a      	mov	r2, r9
 80136d6:	4441      	add	r1, r8
 80136d8:	4638      	mov	r0, r7
 80136da:	f7ff fe97 	bl	801340c <prvInsertTimerInActiveList>
 80136de:	b1b0      	cbz	r0, 801370e <prvTimerTask+0x8e>
 80136e0:	9400      	str	r4, [sp, #0]
 80136e2:	4623      	mov	r3, r4
 80136e4:	4642      	mov	r2, r8
 80136e6:	4621      	mov	r1, r4
 80136e8:	4638      	mov	r0, r7
 80136ea:	f7ff ff47 	bl	801357c <xTimerGenericCommand>
 80136ee:	b970      	cbnz	r0, 801370e <prvTimerTask+0x8e>
 80136f0:	f04f 0350 	mov.w	r3, #80	; 0x50
 80136f4:	f383 8811 	msr	BASEPRI, r3
 80136f8:	f3bf 8f6f 	isb	sy
 80136fc:	f3bf 8f4f 	dsb	sy
 8013700:	e7fe      	b.n	8013700 <prvTimerTask+0x80>
 8013702:	2401      	movs	r4, #1
 8013704:	e7cb      	b.n	801369e <prvTimerTask+0x1e>
 8013706:	f023 0301 	bic.w	r3, r3, #1
 801370a:	f887 3024 	strb.w	r3, [r7, #36]	; 0x24
 801370e:	6a3b      	ldr	r3, [r7, #32]
 8013710:	4638      	mov	r0, r7
 8013712:	4798      	blx	r3
 8013714:	6830      	ldr	r0, [r6, #0]
 8013716:	2200      	movs	r2, #0
 8013718:	a903      	add	r1, sp, #12
 801371a:	f7fe fd4d 	bl	80121b8 <xQueueReceive>
 801371e:	2800      	cmp	r0, #0
 8013720:	d0b3      	beq.n	801368a <prvTimerTask+0xa>
 8013722:	9b03      	ldr	r3, [sp, #12]
 8013724:	2b00      	cmp	r3, #0
 8013726:	dbf5      	blt.n	8013714 <prvTimerTask+0x94>
 8013728:	9c05      	ldr	r4, [sp, #20]
 801372a:	6963      	ldr	r3, [r4, #20]
 801372c:	b113      	cbz	r3, 8013734 <prvTimerTask+0xb4>
 801372e:	1d20      	adds	r0, r4, #4
 8013730:	f7fe fa5f 	bl	8011bf2 <uxListRemove>
 8013734:	a802      	add	r0, sp, #8
 8013736:	f7ff ff4d 	bl	80135d4 <prvSampleTimeNow>
 801373a:	9b03      	ldr	r3, [sp, #12]
 801373c:	4602      	mov	r2, r0
 801373e:	2b09      	cmp	r3, #9
 8013740:	d8e8      	bhi.n	8013714 <prvTimerTask+0x94>
 8013742:	e8df f003 	tbb	[pc, r3]
 8013746:	2323      	.short	0x2323
 8013748:	6b534c23 	.word	0x6b534c23
 801374c:	534c2323 	.word	0x534c2323
 8013750:	4b38      	ldr	r3, [pc, #224]	; (8013834 <prvTimerTask+0x1b4>)
 8013752:	681b      	ldr	r3, [r3, #0]
 8013754:	681c      	ldr	r4, [r3, #0]
 8013756:	fab4 f484 	clz	r4, r4
 801375a:	0964      	lsrs	r4, r4, #5
 801375c:	6830      	ldr	r0, [r6, #0]
 801375e:	4622      	mov	r2, r4
 8013760:	eba8 0109 	sub.w	r1, r8, r9
 8013764:	f7fe fefc 	bl	8012560 <vQueueWaitForMessageRestricted>
 8013768:	f7ff f9fc 	bl	8012b64 <xTaskResumeAll>
 801376c:	2800      	cmp	r0, #0
 801376e:	d1d1      	bne.n	8013714 <prvTimerTask+0x94>
 8013770:	f04f 23e0 	mov.w	r3, #3758153728	; 0xe000e000
 8013774:	f04f 5280 	mov.w	r2, #268435456	; 0x10000000
 8013778:	f8c3 2d04 	str.w	r2, [r3, #3332]	; 0xd04
 801377c:	f3bf 8f4f 	dsb	sy
 8013780:	f3bf 8f6f 	isb	sy
 8013784:	e7c6      	b.n	8013714 <prvTimerTask+0x94>
 8013786:	f7ff f9ed 	bl	8012b64 <xTaskResumeAll>
 801378a:	e7c3      	b.n	8013714 <prvTimerTask+0x94>
 801378c:	f894 3024 	ldrb.w	r3, [r4, #36]	; 0x24
 8013790:	69a1      	ldr	r1, [r4, #24]
 8013792:	f043 0301 	orr.w	r3, r3, #1
 8013796:	f884 3024 	strb.w	r3, [r4, #36]	; 0x24
 801379a:	9b04      	ldr	r3, [sp, #16]
 801379c:	4620      	mov	r0, r4
 801379e:	4419      	add	r1, r3
 80137a0:	f7ff fe34 	bl	801340c <prvInsertTimerInActiveList>
 80137a4:	2800      	cmp	r0, #0
 80137a6:	d0b5      	beq.n	8013714 <prvTimerTask+0x94>
 80137a8:	6a23      	ldr	r3, [r4, #32]
 80137aa:	4620      	mov	r0, r4
 80137ac:	4798      	blx	r3
 80137ae:	f894 3024 	ldrb.w	r3, [r4, #36]	; 0x24
 80137b2:	0759      	lsls	r1, r3, #29
 80137b4:	d5ae      	bpl.n	8013714 <prvTimerTask+0x94>
 80137b6:	69a2      	ldr	r2, [r4, #24]
 80137b8:	9904      	ldr	r1, [sp, #16]
 80137ba:	2300      	movs	r3, #0
 80137bc:	440a      	add	r2, r1
 80137be:	9300      	str	r3, [sp, #0]
 80137c0:	4619      	mov	r1, r3
 80137c2:	4620      	mov	r0, r4
 80137c4:	f7ff feda 	bl	801357c <xTimerGenericCommand>
 80137c8:	2800      	cmp	r0, #0
 80137ca:	d1a3      	bne.n	8013714 <prvTimerTask+0x94>
 80137cc:	f04f 0350 	mov.w	r3, #80	; 0x50
 80137d0:	f383 8811 	msr	BASEPRI, r3
 80137d4:	f3bf 8f6f 	isb	sy
 80137d8:	f3bf 8f4f 	dsb	sy
 80137dc:	e7fe      	b.n	80137dc <prvTimerTask+0x15c>
 80137de:	f894 3024 	ldrb.w	r3, [r4, #36]	; 0x24
 80137e2:	f023 0301 	bic.w	r3, r3, #1
 80137e6:	f884 3024 	strb.w	r3, [r4, #36]	; 0x24
 80137ea:	e793      	b.n	8013714 <prvTimerTask+0x94>
 80137ec:	f894 3024 	ldrb.w	r3, [r4, #36]	; 0x24
 80137f0:	f043 0301 	orr.w	r3, r3, #1
 80137f4:	f884 3024 	strb.w	r3, [r4, #36]	; 0x24
 80137f8:	9904      	ldr	r1, [sp, #16]
 80137fa:	61a1      	str	r1, [r4, #24]
 80137fc:	b941      	cbnz	r1, 8013810 <prvTimerTask+0x190>
 80137fe:	f04f 0350 	mov.w	r3, #80	; 0x50
 8013802:	f383 8811 	msr	BASEPRI, r3
 8013806:	f3bf 8f6f 	isb	sy
 801380a:	f3bf 8f4f 	dsb	sy
 801380e:	e7fe      	b.n	801380e <prvTimerTask+0x18e>
 8013810:	4603      	mov	r3, r0
 8013812:	4401      	add	r1, r0
 8013814:	4620      	mov	r0, r4
 8013816:	f7ff fdf9 	bl	801340c <prvInsertTimerInActiveList>
 801381a:	e77b      	b.n	8013714 <prvTimerTask+0x94>
 801381c:	f894 3024 	ldrb.w	r3, [r4, #36]	; 0x24
 8013820:	079a      	lsls	r2, r3, #30
 8013822:	d4de      	bmi.n	80137e2 <prvTimerTask+0x162>
 8013824:	4620      	mov	r0, r4
 8013826:	f000 f9be 	bl	8013ba6 <vPortFree>
 801382a:	e773      	b.n	8013714 <prvTimerTask+0x94>
 801382c:	2000ccc4 	.word	0x2000ccc4
 8013830:	2000cdb8 	.word	0x2000cdb8
 8013834:	2000ccc8 	.word	0x2000ccc8

08013838 <prvPortStartFirstTask>:
 8013838:	4808      	ldr	r0, [pc, #32]	; (801385c <prvPortStartFirstTask+0x24>)
 801383a:	6800      	ldr	r0, [r0, #0]
 801383c:	6800      	ldr	r0, [r0, #0]
 801383e:	f380 8808 	msr	MSP, r0
 8013842:	f04f 0000 	mov.w	r0, #0
 8013846:	f380 8814 	msr	CONTROL, r0
 801384a:	b662      	cpsie	i
 801384c:	b661      	cpsie	f
 801384e:	f3bf 8f4f 	dsb	sy
 8013852:	f3bf 8f6f 	isb	sy
 8013856:	df00      	svc	0
 8013858:	bf00      	nop
 801385a:	0000      	.short	0x0000
 801385c:	e000ed08 	.word	0xe000ed08

08013860 <vPortEnableVFP>:
 8013860:	f8df 000c 	ldr.w	r0, [pc, #12]	; 8013870 <vPortEnableVFP+0x10>
 8013864:	6801      	ldr	r1, [r0, #0]
 8013866:	f441 0170 	orr.w	r1, r1, #15728640	; 0xf00000
 801386a:	6001      	str	r1, [r0, #0]
 801386c:	4770      	bx	lr
 801386e:	0000      	.short	0x0000
 8013870:	e000ed88 	.word	0xe000ed88

08013874 <prvTaskExitError>:
 8013874:	b082      	sub	sp, #8
 8013876:	2300      	movs	r3, #0
 8013878:	9301      	str	r3, [sp, #4]
 801387a:	4b0d      	ldr	r3, [pc, #52]	; (80138b0 <prvTaskExitError+0x3c>)
 801387c:	681b      	ldr	r3, [r3, #0]
 801387e:	3301      	adds	r3, #1
 8013880:	d008      	beq.n	8013894 <prvTaskExitError+0x20>
 8013882:	f04f 0350 	mov.w	r3, #80	; 0x50
 8013886:	f383 8811 	msr	BASEPRI, r3
 801388a:	f3bf 8f6f 	isb	sy
 801388e:	f3bf 8f4f 	dsb	sy
 8013892:	e7fe      	b.n	8013892 <prvTaskExitError+0x1e>
 8013894:	f04f 0350 	mov.w	r3, #80	; 0x50
 8013898:	f383 8811 	msr	BASEPRI, r3
 801389c:	f3bf 8f6f 	isb	sy
 80138a0:	f3bf 8f4f 	dsb	sy
 80138a4:	9b01      	ldr	r3, [sp, #4]
 80138a6:	2b00      	cmp	r3, #0
 80138a8:	d0fc      	beq.n	80138a4 <prvTaskExitError+0x30>
 80138aa:	b002      	add	sp, #8
 80138ac:	4770      	bx	lr
 80138ae:	bf00      	nop
 80138b0:	20000094 	.word	0x20000094

080138b4 <pxPortInitialiseStack>:
 80138b4:	f04f 7380 	mov.w	r3, #16777216	; 0x1000000
 80138b8:	f840 3c04 	str.w	r3, [r0, #-4]
 80138bc:	4b07      	ldr	r3, [pc, #28]	; (80138dc <pxPortInitialiseStack+0x28>)
 80138be:	f840 3c0c 	str.w	r3, [r0, #-12]
 80138c2:	f021 0101 	bic.w	r1, r1, #1
 80138c6:	f06f 0302 	mvn.w	r3, #2
 80138ca:	f840 1c08 	str.w	r1, [r0, #-8]
 80138ce:	f840 2c20 	str.w	r2, [r0, #-32]
 80138d2:	f840 3c24 	str.w	r3, [r0, #-36]
 80138d6:	3844      	subs	r0, #68	; 0x44
 80138d8:	4770      	bx	lr
 80138da:	bf00      	nop
 80138dc:	08013875 	.word	0x08013875

080138e0 <SVC_Handler>:
 80138e0:	4b07      	ldr	r3, [pc, #28]	; (8013900 <pxCurrentTCBConst2>)
 80138e2:	6819      	ldr	r1, [r3, #0]
 80138e4:	6808      	ldr	r0, [r1, #0]
 80138e6:	e8b0 4ff0 	ldmia.w	r0!, {r4, r5, r6, r7, r8, r9, sl, fp, lr}
 80138ea:	f380 8809 	msr	PSP, r0
 80138ee:	f3bf 8f6f 	isb	sy
 80138f2:	f04f 0000 	mov.w	r0, #0
 80138f6:	f380 8811 	msr	BASEPRI, r0
 80138fa:	4770      	bx	lr
 80138fc:	f3af 8000 	nop.w

08013900 <pxCurrentTCBConst2>:
 8013900:	2000cb98 	.word	0x2000cb98

08013904 <vPortEnterCritical>:
 8013904:	f04f 0350 	mov.w	r3, #80	; 0x50
 8013908:	f383 8811 	msr	BASEPRI, r3
 801390c:	f3bf 8f6f 	isb	sy
 8013910:	f3bf 8f4f 	dsb	sy
 8013914:	4a0a      	ldr	r2, [pc, #40]	; (8013940 <vPortEnterCritical+0x3c>)
 8013916:	6813      	ldr	r3, [r2, #0]
 8013918:	3301      	adds	r3, #1
 801391a:	2b01      	cmp	r3, #1
 801391c:	6013      	str	r3, [r2, #0]
 801391e:	d10e      	bne.n	801393e <vPortEnterCritical+0x3a>
 8013920:	f04f 23e0 	mov.w	r3, #3758153728	; 0xe000e000
 8013924:	f8d3 3d04 	ldr.w	r3, [r3, #3332]	; 0xd04
 8013928:	b2db      	uxtb	r3, r3
 801392a:	b143      	cbz	r3, 801393e <vPortEnterCritical+0x3a>
 801392c:	f04f 0350 	mov.w	r3, #80	; 0x50
 8013930:	f383 8811 	msr	BASEPRI, r3
 8013934:	f3bf 8f6f 	isb	sy
 8013938:	f3bf 8f4f 	dsb	sy
 801393c:	e7fe      	b.n	801393c <vPortEnterCritical+0x38>
 801393e:	4770      	bx	lr
 8013940:	20000094 	.word	0x20000094

08013944 <vPortExitCritical>:
 8013944:	4a08      	ldr	r2, [pc, #32]	; (8013968 <vPortExitCritical+0x24>)
 8013946:	6813      	ldr	r3, [r2, #0]
 8013948:	b943      	cbnz	r3, 801395c <vPortExitCritical+0x18>
 801394a:	f04f 0350 	mov.w	r3, #80	; 0x50
 801394e:	f383 8811 	msr	BASEPRI, r3
 8013952:	f3bf 8f6f 	isb	sy
 8013956:	f3bf 8f4f 	dsb	sy
 801395a:	e7fe      	b.n	801395a <vPortExitCritical+0x16>
 801395c:	3b01      	subs	r3, #1
 801395e:	6013      	str	r3, [r2, #0]
 8013960:	b90b      	cbnz	r3, 8013966 <vPortExitCritical+0x22>
 8013962:	f383 8811 	msr	BASEPRI, r3
 8013966:	4770      	bx	lr
 8013968:	20000094 	.word	0x20000094
 801396c:	00000000 	.word	0x00000000

08013970 <PendSV_Handler>:
 8013970:	f3ef 8009 	mrs	r0, PSP
 8013974:	f3bf 8f6f 	isb	sy
 8013978:	4b15      	ldr	r3, [pc, #84]	; (80139d0 <pxCurrentTCBConst>)
 801397a:	681a      	ldr	r2, [r3, #0]
 801397c:	f01e 0f10 	tst.w	lr, #16
 8013980:	bf08      	it	eq
 8013982:	ed20 8a10 	vstmdbeq	r0!, {s16-s31}
 8013986:	e920 4ff0 	stmdb	r0!, {r4, r5, r6, r7, r8, r9, sl, fp, lr}
 801398a:	6010      	str	r0, [r2, #0]
 801398c:	e92d 0009 	stmdb	sp!, {r0, r3}
 8013990:	f04f 0050 	mov.w	r0, #80	; 0x50
 8013994:	f380 8811 	msr	BASEPRI, r0
 8013998:	f3bf 8f4f 	dsb	sy
 801399c:	f3bf 8f6f 	isb	sy
 80139a0:	f7ff f97c 	bl	8012c9c <vTaskSwitchContext>
 80139a4:	f04f 0000 	mov.w	r0, #0
 80139a8:	f380 8811 	msr	BASEPRI, r0
 80139ac:	bc09      	pop	{r0, r3}
 80139ae:	6819      	ldr	r1, [r3, #0]
 80139b0:	6808      	ldr	r0, [r1, #0]
 80139b2:	e8b0 4ff0 	ldmia.w	r0!, {r4, r5, r6, r7, r8, r9, sl, fp, lr}
 80139b6:	f01e 0f10 	tst.w	lr, #16
 80139ba:	bf08      	it	eq
 80139bc:	ecb0 8a10 	vldmiaeq	r0!, {s16-s31}
 80139c0:	f380 8809 	msr	PSP, r0
 80139c4:	f3bf 8f6f 	isb	sy
 80139c8:	4770      	bx	lr
 80139ca:	bf00      	nop
 80139cc:	f3af 8000 	nop.w

080139d0 <pxCurrentTCBConst>:
 80139d0:	2000cb98 	.word	0x2000cb98

080139d4 <SysTick_Handler>:
 80139d4:	b508      	push	{r3, lr}
 80139d6:	f04f 0350 	mov.w	r3, #80	; 0x50
 80139da:	f383 8811 	msr	BASEPRI, r3
 80139de:	f3bf 8f6f 	isb	sy
 80139e2:	f3bf 8f4f 	dsb	sy
 80139e6:	f7ff f825 	bl	8012a34 <xTaskIncrementTick>
 80139ea:	b128      	cbz	r0, 80139f8 <SysTick_Handler+0x24>
 80139ec:	f04f 23e0 	mov.w	r3, #3758153728	; 0xe000e000
 80139f0:	f04f 5280 	mov.w	r2, #268435456	; 0x10000000
 80139f4:	f8c3 2d04 	str.w	r2, [r3, #3332]	; 0xd04
 80139f8:	2300      	movs	r3, #0
 80139fa:	f383 8811 	msr	BASEPRI, r3
 80139fe:	bd08      	pop	{r3, pc}

08013a00 <vPortSetupTimerInterrupt>:
 8013a00:	f04f 22e0 	mov.w	r2, #3758153728	; 0xe000e000
 8013a04:	2300      	movs	r3, #0
 8013a06:	6113      	str	r3, [r2, #16]
 8013a08:	6193      	str	r3, [r2, #24]
 8013a0a:	4b05      	ldr	r3, [pc, #20]	; (8013a20 <vPortSetupTimerInterrupt+0x20>)
 8013a0c:	f44f 717a 	mov.w	r1, #1000	; 0x3e8
 8013a10:	681b      	ldr	r3, [r3, #0]
 8013a12:	fbb3 f3f1 	udiv	r3, r3, r1
 8013a16:	3b01      	subs	r3, #1
 8013a18:	6153      	str	r3, [r2, #20]
 8013a1a:	2307      	movs	r3, #7
 8013a1c:	6113      	str	r3, [r2, #16]
 8013a1e:	4770      	bx	lr
 8013a20:	20000000 	.word	0x20000000

08013a24 <xPortStartScheduler>:
 8013a24:	f04f 23e0 	mov.w	r3, #3758153728	; 0xe000e000
 8013a28:	b537      	push	{r0, r1, r2, r4, r5, lr}
 8013a2a:	f8d3 1d00 	ldr.w	r1, [r3, #3328]	; 0xd00
 8013a2e:	4a3a      	ldr	r2, [pc, #232]	; (8013b18 <xPortStartScheduler+0xf4>)
 8013a30:	4291      	cmp	r1, r2
 8013a32:	d108      	bne.n	8013a46 <xPortStartScheduler+0x22>
 8013a34:	f04f 0350 	mov.w	r3, #80	; 0x50
 8013a38:	f383 8811 	msr	BASEPRI, r3
 8013a3c:	f3bf 8f6f 	isb	sy
 8013a40:	f3bf 8f4f 	dsb	sy
 8013a44:	e7fe      	b.n	8013a44 <xPortStartScheduler+0x20>
 8013a46:	f8d3 2d00 	ldr.w	r2, [r3, #3328]	; 0xd00
 8013a4a:	4b34      	ldr	r3, [pc, #208]	; (8013b1c <xPortStartScheduler+0xf8>)
 8013a4c:	429a      	cmp	r2, r3
 8013a4e:	d108      	bne.n	8013a62 <xPortStartScheduler+0x3e>
 8013a50:	f04f 0350 	mov.w	r3, #80	; 0x50
 8013a54:	f383 8811 	msr	BASEPRI, r3
 8013a58:	f3bf 8f6f 	isb	sy
 8013a5c:	f3bf 8f4f 	dsb	sy
 8013a60:	e7fe      	b.n	8013a60 <xPortStartScheduler+0x3c>
 8013a62:	4b2f      	ldr	r3, [pc, #188]	; (8013b20 <xPortStartScheduler+0xfc>)
 8013a64:	781a      	ldrb	r2, [r3, #0]
 8013a66:	b2d2      	uxtb	r2, r2
 8013a68:	9201      	str	r2, [sp, #4]
 8013a6a:	22ff      	movs	r2, #255	; 0xff
 8013a6c:	701a      	strb	r2, [r3, #0]
 8013a6e:	781b      	ldrb	r3, [r3, #0]
 8013a70:	4a2c      	ldr	r2, [pc, #176]	; (8013b24 <xPortStartScheduler+0x100>)
 8013a72:	b2db      	uxtb	r3, r3
 8013a74:	f88d 3003 	strb.w	r3, [sp, #3]
 8013a78:	f89d 3003 	ldrb.w	r3, [sp, #3]
 8013a7c:	f003 0350 	and.w	r3, r3, #80	; 0x50
 8013a80:	7013      	strb	r3, [r2, #0]
 8013a82:	4a29      	ldr	r2, [pc, #164]	; (8013b28 <xPortStartScheduler+0x104>)
 8013a84:	2307      	movs	r3, #7
 8013a86:	6013      	str	r3, [r2, #0]
 8013a88:	2100      	movs	r1, #0
 8013a8a:	f89d 0003 	ldrb.w	r0, [sp, #3]
 8013a8e:	0600      	lsls	r0, r0, #24
 8013a90:	f103 34ff 	add.w	r4, r3, #4294967295
 8013a94:	d40c      	bmi.n	8013ab0 <xPortStartScheduler+0x8c>
 8013a96:	b111      	cbz	r1, 8013a9e <xPortStartScheduler+0x7a>
 8013a98:	2b03      	cmp	r3, #3
 8013a9a:	6013      	str	r3, [r2, #0]
 8013a9c:	d011      	beq.n	8013ac2 <xPortStartScheduler+0x9e>
 8013a9e:	f04f 0350 	mov.w	r3, #80	; 0x50
 8013aa2:	f383 8811 	msr	BASEPRI, r3
 8013aa6:	f3bf 8f6f 	isb	sy
 8013aaa:	f3bf 8f4f 	dsb	sy
 8013aae:	e7fe      	b.n	8013aae <xPortStartScheduler+0x8a>
 8013ab0:	f89d 3003 	ldrb.w	r3, [sp, #3]
 8013ab4:	005b      	lsls	r3, r3, #1
 8013ab6:	b2db      	uxtb	r3, r3
 8013ab8:	f88d 3003 	strb.w	r3, [sp, #3]
 8013abc:	2101      	movs	r1, #1
 8013abe:	4623      	mov	r3, r4
 8013ac0:	e7e3      	b.n	8013a8a <xPortStartScheduler+0x66>
 8013ac2:	f44f 7340 	mov.w	r3, #768	; 0x300
 8013ac6:	6013      	str	r3, [r2, #0]
 8013ac8:	9b01      	ldr	r3, [sp, #4]
 8013aca:	4a15      	ldr	r2, [pc, #84]	; (8013b20 <xPortStartScheduler+0xfc>)
 8013acc:	f04f 24e0 	mov.w	r4, #3758153728	; 0xe000e000
 8013ad0:	b2db      	uxtb	r3, r3
 8013ad2:	7013      	strb	r3, [r2, #0]
 8013ad4:	f8d4 3d20 	ldr.w	r3, [r4, #3360]	; 0xd20
 8013ad8:	f443 0370 	orr.w	r3, r3, #15728640	; 0xf00000
 8013adc:	f8c4 3d20 	str.w	r3, [r4, #3360]	; 0xd20
 8013ae0:	f8d4 3d20 	ldr.w	r3, [r4, #3360]	; 0xd20
 8013ae4:	f043 4370 	orr.w	r3, r3, #4026531840	; 0xf0000000
 8013ae8:	f8c4 3d20 	str.w	r3, [r4, #3360]	; 0xd20
 8013aec:	f7ff ff88 	bl	8013a00 <vPortSetupTimerInterrupt>
 8013af0:	4b0e      	ldr	r3, [pc, #56]	; (8013b2c <xPortStartScheduler+0x108>)
 8013af2:	2500      	movs	r5, #0
 8013af4:	601d      	str	r5, [r3, #0]
 8013af6:	f7ff feb3 	bl	8013860 <vPortEnableVFP>
 8013afa:	f8d4 3f34 	ldr.w	r3, [r4, #3892]	; 0xf34
 8013afe:	f043 4340 	orr.w	r3, r3, #3221225472	; 0xc0000000
 8013b02:	f8c4 3f34 	str.w	r3, [r4, #3892]	; 0xf34
 8013b06:	f7ff fe97 	bl	8013838 <prvPortStartFirstTask>
 8013b0a:	f7ff f8c7 	bl	8012c9c <vTaskSwitchContext>
 8013b0e:	f7ff feb1 	bl	8013874 <prvTaskExitError>
 8013b12:	4628      	mov	r0, r5
 8013b14:	b003      	add	sp, #12
 8013b16:	bd30      	pop	{r4, r5, pc}
 8013b18:	410fc271 	.word	0x410fc271
 8013b1c:	410fc270 	.word	0x410fc270
 8013b20:	e000e400 	.word	0xe000e400
 8013b24:	2000cdc0 	.word	0x2000cdc0
 8013b28:	2000cdc4 	.word	0x2000cdc4
 8013b2c:	20000094 	.word	0x20000094

08013b30 <vPortValidateInterruptPriority>:
 8013b30:	f3ef 8305 	mrs	r3, IPSR
 8013b34:	2b0f      	cmp	r3, #15
 8013b36:	d90e      	bls.n	8013b56 <vPortValidateInterruptPriority+0x26>
 8013b38:	4a11      	ldr	r2, [pc, #68]	; (8013b80 <vPortValidateInterruptPriority+0x50>)
 8013b3a:	5c9b      	ldrb	r3, [r3, r2]
 8013b3c:	4a11      	ldr	r2, [pc, #68]	; (8013b84 <vPortValidateInterruptPriority+0x54>)
 8013b3e:	7812      	ldrb	r2, [r2, #0]
 8013b40:	429a      	cmp	r2, r3
 8013b42:	d908      	bls.n	8013b56 <vPortValidateInterruptPriority+0x26>
 8013b44:	f04f 0350 	mov.w	r3, #80	; 0x50
 8013b48:	f383 8811 	msr	BASEPRI, r3
 8013b4c:	f3bf 8f6f 	isb	sy
 8013b50:	f3bf 8f4f 	dsb	sy
 8013b54:	e7fe      	b.n	8013b54 <vPortValidateInterruptPriority+0x24>
 8013b56:	f04f 23e0 	mov.w	r3, #3758153728	; 0xe000e000
 8013b5a:	4a0b      	ldr	r2, [pc, #44]	; (8013b88 <vPortValidateInterruptPriority+0x58>)
 8013b5c:	f8d3 3d0c 	ldr.w	r3, [r3, #3340]	; 0xd0c
 8013b60:	6812      	ldr	r2, [r2, #0]
 8013b62:	f403 63e0 	and.w	r3, r3, #1792	; 0x700
 8013b66:	4293      	cmp	r3, r2
 8013b68:	d908      	bls.n	8013b7c <vPortValidateInterruptPriority+0x4c>
 8013b6a:	f04f 0350 	mov.w	r3, #80	; 0x50
 8013b6e:	f383 8811 	msr	BASEPRI, r3
 8013b72:	f3bf 8f6f 	isb	sy
 8013b76:	f3bf 8f4f 	dsb	sy
 8013b7a:	e7fe      	b.n	8013b7a <vPortValidateInterruptPriority+0x4a>
 8013b7c:	4770      	bx	lr
 8013b7e:	bf00      	nop
 8013b80:	e000e3f0 	.word	0xe000e3f0
 8013b84:	2000cdc0 	.word	0x2000cdc0
 8013b88:	2000cdc4 	.word	0x2000cdc4

08013b8c <pvPortMalloc>:
 8013b8c:	b513      	push	{r0, r1, r4, lr}
 8013b8e:	9001      	str	r0, [sp, #4]
 8013b90:	f7fe ff42 	bl	8012a18 <vTaskSuspendAll>
 8013b94:	9801      	ldr	r0, [sp, #4]
 8013b96:	f001 fc87 	bl	80154a8 <malloc>
 8013b9a:	4604      	mov	r4, r0
 8013b9c:	f7fe ffe2 	bl	8012b64 <xTaskResumeAll>
 8013ba0:	4620      	mov	r0, r4
 8013ba2:	b002      	add	sp, #8
 8013ba4:	bd10      	pop	{r4, pc}

08013ba6 <vPortFree>:
 8013ba6:	b510      	push	{r4, lr}
 8013ba8:	4604      	mov	r4, r0
 8013baa:	b140      	cbz	r0, 8013bbe <vPortFree+0x18>
 8013bac:	f7fe ff34 	bl	8012a18 <vTaskSuspendAll>
 8013bb0:	4620      	mov	r0, r4
 8013bb2:	f001 fc81 	bl	80154b8 <free>
 8013bb6:	e8bd 4010 	ldmia.w	sp!, {r4, lr}
 8013bba:	f7fe bfd3 	b.w	8012b64 <xTaskResumeAll>
 8013bbe:	bd10      	pop	{r4, pc}

08013bc0 <MX_USB_DEVICE_Init>:
 8013bc0:	b508      	push	{r3, lr}
 8013bc2:	490f      	ldr	r1, [pc, #60]	; (8013c00 <MX_USB_DEVICE_Init+0x40>)
 8013bc4:	480f      	ldr	r0, [pc, #60]	; (8013c04 <MX_USB_DEVICE_Init+0x44>)
 8013bc6:	2200      	movs	r2, #0
 8013bc8:	f7fd fa8a 	bl	80110e0 <USBD_Init>
 8013bcc:	b108      	cbz	r0, 8013bd2 <MX_USB_DEVICE_Init+0x12>
 8013bce:	f7f8 fa45 	bl	800c05c <Error_Handler>
 8013bd2:	490d      	ldr	r1, [pc, #52]	; (8013c08 <MX_USB_DEVICE_Init+0x48>)
 8013bd4:	480b      	ldr	r0, [pc, #44]	; (8013c04 <MX_USB_DEVICE_Init+0x44>)
 8013bd6:	f7fd fa96 	bl	8011106 <USBD_RegisterClass>
 8013bda:	b108      	cbz	r0, 8013be0 <MX_USB_DEVICE_Init+0x20>
 8013bdc:	f7f8 fa3e 	bl	800c05c <Error_Handler>
 8013be0:	490a      	ldr	r1, [pc, #40]	; (8013c0c <MX_USB_DEVICE_Init+0x4c>)
 8013be2:	4808      	ldr	r0, [pc, #32]	; (8013c04 <MX_USB_DEVICE_Init+0x44>)
 8013be4:	f7fd fa22 	bl	801102c <USBD_CDC_RegisterInterface>
 8013be8:	b108      	cbz	r0, 8013bee <MX_USB_DEVICE_Init+0x2e>
 8013bea:	f7f8 fa37 	bl	800c05c <Error_Handler>
 8013bee:	4805      	ldr	r0, [pc, #20]	; (8013c04 <MX_USB_DEVICE_Init+0x44>)
 8013bf0:	f7fd faa2 	bl	8011138 <USBD_Start>
 8013bf4:	b118      	cbz	r0, 8013bfe <MX_USB_DEVICE_Init+0x3e>
 8013bf6:	e8bd 4008 	ldmia.w	sp!, {r3, lr}
 8013bfa:	f7f8 ba2f 	b.w	800c05c <Error_Handler>
 8013bfe:	bd08      	pop	{r3, pc}
 8013c00:	200000ac 	.word	0x200000ac
 8013c04:	2000cdc8 	.word	0x2000cdc8
 8013c08:	2000000c 	.word	0x2000000c
 8013c0c:	20000098 	.word	0x20000098

08013c10 <CDC_DeInit_FS>:
 8013c10:	2000      	movs	r0, #0
 8013c12:	4770      	bx	lr

08013c14 <CDC_Control_FS>:
 8013c14:	2000      	movs	r0, #0
 8013c16:	4770      	bx	lr

08013c18 <CDC_TransmitCplt_FS>:
 8013c18:	2000      	movs	r0, #0
 8013c1a:	4770      	bx	lr

08013c1c <CDC_Receive_FS>:
 8013c1c:	e92d 41ff 	stmdb	sp!, {r0, r1, r2, r3, r4, r5, r6, r7, r8, lr}
 8013c20:	2400      	movs	r4, #0
 8013c22:	780f      	ldrb	r7, [r1, #0]
 8013c24:	f8df 804c 	ldr.w	r8, [pc, #76]	; 8013c74 <CDC_Receive_FS+0x58>
 8013c28:	9403      	str	r4, [sp, #12]
 8013c2a:	4605      	mov	r5, r0
 8013c2c:	ae03      	add	r6, sp, #12
 8013c2e:	b2e3      	uxtb	r3, r4
 8013c30:	429f      	cmp	r7, r3
 8013c32:	d812      	bhi.n	8013c5a <CDC_Receive_FS+0x3e>
 8013c34:	480d      	ldr	r0, [pc, #52]	; (8013c6c <CDC_Receive_FS+0x50>)
 8013c36:	9600      	str	r6, [sp, #0]
 8013c38:	2300      	movs	r3, #0
 8013c3a:	2201      	movs	r2, #1
 8013c3c:	2104      	movs	r1, #4
 8013c3e:	6800      	ldr	r0, [r0, #0]
 8013c40:	f7ff fb1e 	bl	8013280 <xTaskGenericNotifyFromISR>
 8013c44:	4629      	mov	r1, r5
 8013c46:	480a      	ldr	r0, [pc, #40]	; (8013c70 <CDC_Receive_FS+0x54>)
 8013c48:	f7fd fa09 	bl	801105e <USBD_CDC_SetRxBuffer>
 8013c4c:	4808      	ldr	r0, [pc, #32]	; (8013c70 <CDC_Receive_FS+0x54>)
 8013c4e:	f7fd fa2d 	bl	80110ac <USBD_CDC_ReceivePacket>
 8013c52:	2000      	movs	r0, #0
 8013c54:	b004      	add	sp, #16
 8013c56:	e8bd 81f0 	ldmia.w	sp!, {r4, r5, r6, r7, r8, pc}
 8013c5a:	1929      	adds	r1, r5, r4
 8013c5c:	f8d8 0000 	ldr.w	r0, [r8]
 8013c60:	2300      	movs	r3, #0
 8013c62:	4632      	mov	r2, r6
 8013c64:	f7fe f9f2 	bl	801204c <xQueueGenericSendFromISR>
 8013c68:	3401      	adds	r4, #1
 8013c6a:	e7e0      	b.n	8013c2e <CDC_Receive_FS+0x12>
 8013c6c:	2000ae80 	.word	0x2000ae80
 8013c70:	2000cdc8 	.word	0x2000cdc8
 8013c74:	2000ba30 	.word	0x2000ba30

08013c78 <CDC_Init_FS>:
 8013c78:	b510      	push	{r4, lr}
 8013c7a:	4c06      	ldr	r4, [pc, #24]	; (8013c94 <CDC_Init_FS+0x1c>)
 8013c7c:	4906      	ldr	r1, [pc, #24]	; (8013c98 <CDC_Init_FS+0x20>)
 8013c7e:	2200      	movs	r2, #0
 8013c80:	4620      	mov	r0, r4
 8013c82:	f7fd f9de 	bl	8011042 <USBD_CDC_SetTxBuffer>
 8013c86:	4905      	ldr	r1, [pc, #20]	; (8013c9c <CDC_Init_FS+0x24>)
 8013c88:	4620      	mov	r0, r4
 8013c8a:	f7fd f9e8 	bl	801105e <USBD_CDC_SetRxBuffer>
 8013c8e:	2000      	movs	r0, #0
 8013c90:	bd10      	pop	{r4, pc}
 8013c92:	bf00      	nop
 8013c94:	2000cdc8 	.word	0x2000cdc8
 8013c98:	2000d8a4 	.word	0x2000d8a4
 8013c9c:	2000d0a4 	.word	0x2000d0a4

08013ca0 <CDC_Transmit_FS>:
 8013ca0:	b510      	push	{r4, lr}
 8013ca2:	4c09      	ldr	r4, [pc, #36]	; (8013cc8 <CDC_Transmit_FS+0x28>)
 8013ca4:	f8d4 32bc 	ldr.w	r3, [r4, #700]	; 0x2bc
 8013ca8:	f8d3 3214 	ldr.w	r3, [r3, #532]	; 0x214
 8013cac:	460a      	mov	r2, r1
 8013cae:	b943      	cbnz	r3, 8013cc2 <CDC_Transmit_FS+0x22>
 8013cb0:	4601      	mov	r1, r0
 8013cb2:	4620      	mov	r0, r4
 8013cb4:	f7fd f9c5 	bl	8011042 <USBD_CDC_SetTxBuffer>
 8013cb8:	4620      	mov	r0, r4
 8013cba:	e8bd 4010 	ldmia.w	sp!, {r4, lr}
 8013cbe:	f7fd b9da 	b.w	8011076 <USBD_CDC_TransmitPacket>
 8013cc2:	2001      	movs	r0, #1
 8013cc4:	bd10      	pop	{r4, pc}
 8013cc6:	bf00      	nop
 8013cc8:	2000cdc8 	.word	0x2000cdc8

08013ccc <USBD_FS_DeviceDescriptor>:
 8013ccc:	2312      	movs	r3, #18
 8013cce:	4801      	ldr	r0, [pc, #4]	; (8013cd4 <USBD_FS_DeviceDescriptor+0x8>)
 8013cd0:	800b      	strh	r3, [r1, #0]
 8013cd2:	4770      	bx	lr
 8013cd4:	200000c8 	.word	0x200000c8

08013cd8 <USBD_FS_LangIDStrDescriptor>:
 8013cd8:	2304      	movs	r3, #4
 8013cda:	4801      	ldr	r0, [pc, #4]	; (8013ce0 <USBD_FS_LangIDStrDescriptor+0x8>)
 8013cdc:	800b      	strh	r3, [r1, #0]
 8013cde:	4770      	bx	lr
 8013ce0:	200000dc 	.word	0x200000dc

08013ce4 <IntToUnicode>:
 8013ce4:	2300      	movs	r3, #0
 8013ce6:	b570      	push	{r4, r5, r6, lr}
 8013ce8:	1c4d      	adds	r5, r1, #1
 8013cea:	461e      	mov	r6, r3
 8013cec:	0f04      	lsrs	r4, r0, #28
 8013cee:	f1b0 4f20 	cmp.w	r0, #2684354560	; 0xa0000000
 8013cf2:	bf34      	ite	cc
 8013cf4:	3430      	addcc	r4, #48	; 0x30
 8013cf6:	3437      	addcs	r4, #55	; 0x37
 8013cf8:	f801 4013 	strb.w	r4, [r1, r3, lsl #1]
 8013cfc:	f805 6013 	strb.w	r6, [r5, r3, lsl #1]
 8013d00:	3301      	adds	r3, #1
 8013d02:	b2dc      	uxtb	r4, r3
 8013d04:	42a2      	cmp	r2, r4
 8013d06:	ea4f 1000 	mov.w	r0, r0, lsl #4
 8013d0a:	d8ef      	bhi.n	8013cec <IntToUnicode+0x8>
 8013d0c:	bd70      	pop	{r4, r5, r6, pc}
	...

08013d10 <USBD_FS_SerialStrDescriptor>:
 8013d10:	231a      	movs	r3, #26
 8013d12:	b510      	push	{r4, lr}
 8013d14:	800b      	strh	r3, [r1, #0]
 8013d16:	4b0a      	ldr	r3, [pc, #40]	; (8013d40 <USBD_FS_SerialStrDescriptor+0x30>)
 8013d18:	f8d3 0a10 	ldr.w	r0, [r3, #2576]	; 0xa10
 8013d1c:	f8d3 2a18 	ldr.w	r2, [r3, #2584]	; 0xa18
 8013d20:	1880      	adds	r0, r0, r2
 8013d22:	d00a      	beq.n	8013d3a <USBD_FS_SerialStrDescriptor+0x2a>
 8013d24:	f8d3 4a14 	ldr.w	r4, [r3, #2580]	; 0xa14
 8013d28:	4906      	ldr	r1, [pc, #24]	; (8013d44 <USBD_FS_SerialStrDescriptor+0x34>)
 8013d2a:	2208      	movs	r2, #8
 8013d2c:	f7ff ffda 	bl	8013ce4 <IntToUnicode>
 8013d30:	2204      	movs	r2, #4
 8013d32:	3110      	adds	r1, #16
 8013d34:	4620      	mov	r0, r4
 8013d36:	f7ff ffd5 	bl	8013ce4 <IntToUnicode>
 8013d3a:	4803      	ldr	r0, [pc, #12]	; (8013d48 <USBD_FS_SerialStrDescriptor+0x38>)
 8013d3c:	bd10      	pop	{r4, pc}
 8013d3e:	bf00      	nop
 8013d40:	1fff7000 	.word	0x1fff7000
 8013d44:	200000e2 	.word	0x200000e2
 8013d48:	200000e0 	.word	0x200000e0

08013d4c <USBD_FS_ManufacturerStrDescriptor>:
 8013d4c:	b510      	push	{r4, lr}
 8013d4e:	4c04      	ldr	r4, [pc, #16]	; (8013d60 <USBD_FS_ManufacturerStrDescriptor+0x14>)
 8013d50:	4804      	ldr	r0, [pc, #16]	; (8013d64 <USBD_FS_ManufacturerStrDescriptor+0x18>)
 8013d52:	460a      	mov	r2, r1
 8013d54:	4621      	mov	r1, r4
 8013d56:	f7fd fda6 	bl	80118a6 <USBD_GetString>
 8013d5a:	4620      	mov	r0, r4
 8013d5c:	bd10      	pop	{r4, pc}
 8013d5e:	bf00      	nop
 8013d60:	2000e0a4 	.word	0x2000e0a4
 8013d64:	08015b5e 	.word	0x08015b5e

08013d68 <USBD_FS_ProductStrDescriptor>:
 8013d68:	b510      	push	{r4, lr}
 8013d6a:	4c04      	ldr	r4, [pc, #16]	; (8013d7c <USBD_FS_ProductStrDescriptor+0x14>)
 8013d6c:	4804      	ldr	r0, [pc, #16]	; (8013d80 <USBD_FS_ProductStrDescriptor+0x18>)
 8013d6e:	460a      	mov	r2, r1
 8013d70:	4621      	mov	r1, r4
 8013d72:	f7fd fd98 	bl	80118a6 <USBD_GetString>
 8013d76:	4620      	mov	r0, r4
 8013d78:	bd10      	pop	{r4, pc}
 8013d7a:	bf00      	nop
 8013d7c:	2000e0a4 	.word	0x2000e0a4
 8013d80:	08015b71 	.word	0x08015b71

08013d84 <USBD_FS_ConfigStrDescriptor>:
 8013d84:	b510      	push	{r4, lr}
 8013d86:	4c04      	ldr	r4, [pc, #16]	; (8013d98 <USBD_FS_ConfigStrDescriptor+0x14>)
 8013d88:	4804      	ldr	r0, [pc, #16]	; (8013d9c <USBD_FS_ConfigStrDescriptor+0x18>)
 8013d8a:	460a      	mov	r2, r1
 8013d8c:	4621      	mov	r1, r4
 8013d8e:	f7fd fd8a 	bl	80118a6 <USBD_GetString>
 8013d92:	4620      	mov	r0, r4
 8013d94:	bd10      	pop	{r4, pc}
 8013d96:	bf00      	nop
 8013d98:	2000e0a4 	.word	0x2000e0a4
 8013d9c:	08015b87 	.word	0x08015b87

08013da0 <USBD_FS_InterfaceStrDescriptor>:
 8013da0:	b510      	push	{r4, lr}
 8013da2:	4c04      	ldr	r4, [pc, #16]	; (8013db4 <USBD_FS_InterfaceStrDescriptor+0x14>)
 8013da4:	4804      	ldr	r0, [pc, #16]	; (8013db8 <USBD_FS_InterfaceStrDescriptor+0x18>)
 8013da6:	460a      	mov	r2, r1
 8013da8:	4621      	mov	r1, r4
 8013daa:	f7fd fd7c 	bl	80118a6 <USBD_GetString>
 8013dae:	4620      	mov	r0, r4
 8013db0:	bd10      	pop	{r4, pc}
 8013db2:	bf00      	nop
 8013db4:	2000e0a4 	.word	0x2000e0a4
 8013db8:	08015b92 	.word	0x08015b92

08013dbc <HAL_PCD_MspInit>:
 8013dbc:	b530      	push	{r4, r5, lr}
 8013dbe:	4604      	mov	r4, r0
 8013dc0:	b089      	sub	sp, #36	; 0x24
 8013dc2:	2214      	movs	r2, #20
 8013dc4:	2100      	movs	r1, #0
 8013dc6:	a803      	add	r0, sp, #12
 8013dc8:	f001 fba6 	bl	8015518 <memset>
 8013dcc:	6823      	ldr	r3, [r4, #0]
 8013dce:	f1b3 4fa0 	cmp.w	r3, #1342177280	; 0x50000000
 8013dd2:	d12e      	bne.n	8013e32 <HAL_PCD_MspInit+0x76>
 8013dd4:	4c18      	ldr	r4, [pc, #96]	; (8013e38 <HAL_PCD_MspInit+0x7c>)
 8013dd6:	4819      	ldr	r0, [pc, #100]	; (8013e3c <HAL_PCD_MspInit+0x80>)
 8013dd8:	2500      	movs	r5, #0
 8013dda:	9501      	str	r5, [sp, #4]
 8013ddc:	6b23      	ldr	r3, [r4, #48]	; 0x30
 8013dde:	f043 0301 	orr.w	r3, r3, #1
 8013de2:	6323      	str	r3, [r4, #48]	; 0x30
 8013de4:	6b23      	ldr	r3, [r4, #48]	; 0x30
 8013de6:	f003 0301 	and.w	r3, r3, #1
 8013dea:	9301      	str	r3, [sp, #4]
 8013dec:	f44f 52c0 	mov.w	r2, #6144	; 0x1800
 8013df0:	9b01      	ldr	r3, [sp, #4]
 8013df2:	2302      	movs	r3, #2
 8013df4:	e9cd 2303 	strd	r2, r3, [sp, #12]
 8013df8:	2103      	movs	r1, #3
 8013dfa:	230a      	movs	r3, #10
 8013dfc:	e9cd 1306 	strd	r1, r3, [sp, #24]
 8013e00:	a903      	add	r1, sp, #12
 8013e02:	f7f8 fffd 	bl	800ce00 <HAL_GPIO_Init>
 8013e06:	6b63      	ldr	r3, [r4, #52]	; 0x34
 8013e08:	f043 0380 	orr.w	r3, r3, #128	; 0x80
 8013e0c:	6363      	str	r3, [r4, #52]	; 0x34
 8013e0e:	9502      	str	r5, [sp, #8]
 8013e10:	6c63      	ldr	r3, [r4, #68]	; 0x44
 8013e12:	f443 4380 	orr.w	r3, r3, #16384	; 0x4000
 8013e16:	6463      	str	r3, [r4, #68]	; 0x44
 8013e18:	6c63      	ldr	r3, [r4, #68]	; 0x44
 8013e1a:	f403 4380 	and.w	r3, r3, #16384	; 0x4000
 8013e1e:	9302      	str	r3, [sp, #8]
 8013e20:	2043      	movs	r0, #67	; 0x43
 8013e22:	462a      	mov	r2, r5
 8013e24:	2105      	movs	r1, #5
 8013e26:	9b02      	ldr	r3, [sp, #8]
 8013e28:	f7f8 fc40 	bl	800c6ac <HAL_NVIC_SetPriority>
 8013e2c:	2043      	movs	r0, #67	; 0x43
 8013e2e:	f7f8 fc6f 	bl	800c710 <HAL_NVIC_EnableIRQ>
 8013e32:	b009      	add	sp, #36	; 0x24
 8013e34:	bd30      	pop	{r4, r5, pc}
 8013e36:	bf00      	nop
 8013e38:	40023800 	.word	0x40023800
 8013e3c:	40020000 	.word	0x40020000

08013e40 <HAL_PCD_SetupStageCallback>:
 8013e40:	f200 41c4 	addw	r1, r0, #1220	; 0x4c4
 8013e44:	f8d0 0508 	ldr.w	r0, [r0, #1288]	; 0x508
 8013e48:	f7fd b988 	b.w	801115c <USBD_LL_SetupStage>

08013e4c <HAL_PCD_DataOutStageCallback>:
 8013e4c:	2324      	movs	r3, #36	; 0x24
 8013e4e:	fb03 0301 	mla	r3, r3, r1, r0
 8013e52:	f8d0 0508 	ldr.w	r0, [r0, #1288]	; 0x508
 8013e56:	f8d3 228c 	ldr.w	r2, [r3, #652]	; 0x28c
 8013e5a:	f7fd b9af 	b.w	80111bc <USBD_LL_DataOutStage>

08013e5e <HAL_PCD_DataInStageCallback>:
 8013e5e:	2324      	movs	r3, #36	; 0x24
 8013e60:	fb03 0301 	mla	r3, r3, r1, r0
 8013e64:	f8d0 0508 	ldr.w	r0, [r0, #1288]	; 0x508
 8013e68:	6cda      	ldr	r2, [r3, #76]	; 0x4c
 8013e6a:	f7fd b9dc 	b.w	8011226 <USBD_LL_DataInStage>

08013e6e <HAL_PCD_SOFCallback>:
 8013e6e:	f8d0 0508 	ldr.w	r0, [r0, #1288]	; 0x508
 8013e72:	f7fd ba76 	b.w	8011362 <USBD_LL_SOF>

08013e76 <HAL_PCD_ResetCallback>:
 8013e76:	68c3      	ldr	r3, [r0, #12]
 8013e78:	2b02      	cmp	r3, #2
 8013e7a:	b510      	push	{r4, lr}
 8013e7c:	4604      	mov	r4, r0
 8013e7e:	d001      	beq.n	8013e84 <HAL_PCD_ResetCallback+0xe>
 8013e80:	f7f8 f8ec 	bl	800c05c <Error_Handler>
 8013e84:	f8d4 0508 	ldr.w	r0, [r4, #1288]	; 0x508
 8013e88:	2101      	movs	r1, #1
 8013e8a:	f7fd fa52 	bl	8011332 <USBD_LL_SetSpeed>
 8013e8e:	f8d4 0508 	ldr.w	r0, [r4, #1288]	; 0x508
 8013e92:	e8bd 4010 	ldmia.w	sp!, {r4, lr}
 8013e96:	f7fd ba1d 	b.w	80112d4 <USBD_LL_Reset>
	...

08013e9c <HAL_PCD_SuspendCallback>:
 8013e9c:	b510      	push	{r4, lr}
 8013e9e:	4604      	mov	r4, r0
 8013ea0:	f8d0 0508 	ldr.w	r0, [r0, #1288]	; 0x508
 8013ea4:	f7fd fa48 	bl	8011338 <USBD_LL_Suspend>
 8013ea8:	6822      	ldr	r2, [r4, #0]
 8013eaa:	f8d2 3e00 	ldr.w	r3, [r2, #3584]	; 0xe00
 8013eae:	f043 0301 	orr.w	r3, r3, #1
 8013eb2:	f8c2 3e00 	str.w	r3, [r2, #3584]	; 0xe00
 8013eb6:	6a23      	ldr	r3, [r4, #32]
 8013eb8:	b123      	cbz	r3, 8013ec4 <HAL_PCD_SuspendCallback+0x28>
 8013eba:	4a03      	ldr	r2, [pc, #12]	; (8013ec8 <HAL_PCD_SuspendCallback+0x2c>)
 8013ebc:	6913      	ldr	r3, [r2, #16]
 8013ebe:	f043 0306 	orr.w	r3, r3, #6
 8013ec2:	6113      	str	r3, [r2, #16]
 8013ec4:	bd10      	pop	{r4, pc}
 8013ec6:	bf00      	nop
 8013ec8:	e000ed00 	.word	0xe000ed00

08013ecc <HAL_PCD_ResumeCallback>:
 8013ecc:	f8d0 0508 	ldr.w	r0, [r0, #1288]	; 0x508
 8013ed0:	f7fd ba3c 	b.w	801134c <USBD_LL_Resume>

08013ed4 <HAL_PCD_ISOOUTIncompleteCallback>:
 8013ed4:	f8d0 0508 	ldr.w	r0, [r0, #1288]	; 0x508
 8013ed8:	f7fd ba64 	b.w	80113a4 <USBD_LL_IsoOUTIncomplete>

08013edc <HAL_PCD_ISOINIncompleteCallback>:
 8013edc:	f8d0 0508 	ldr.w	r0, [r0, #1288]	; 0x508
 8013ee0:	f7fd ba4c 	b.w	801137c <USBD_LL_IsoINIncomplete>

08013ee4 <HAL_PCD_ConnectCallback>:
 8013ee4:	f8d0 0508 	ldr.w	r0, [r0, #1288]	; 0x508
 8013ee8:	f7fd ba70 	b.w	80113cc <USBD_LL_DevConnected>

08013eec <HAL_PCD_DisconnectCallback>:
 8013eec:	f8d0 0508 	ldr.w	r0, [r0, #1288]	; 0x508
 8013ef0:	f7fd ba6e 	b.w	80113d0 <USBD_LL_DevDisconnected>

08013ef4 <USBD_LL_Init>:
 8013ef4:	b508      	push	{r3, lr}
 8013ef6:	7803      	ldrb	r3, [r0, #0]
 8013ef8:	4602      	mov	r2, r0
 8013efa:	bb2b      	cbnz	r3, 8013f48 <USBD_LL_Init+0x54>
 8013efc:	4813      	ldr	r0, [pc, #76]	; (8013f4c <USBD_LL_Init+0x58>)
 8013efe:	f04f 41a0 	mov.w	r1, #1342177280	; 0x50000000
 8013f02:	f8c0 2508 	str.w	r2, [r0, #1288]	; 0x508
 8013f06:	f8c2 02c8 	str.w	r0, [r2, #712]	; 0x2c8
 8013f0a:	2204      	movs	r2, #4
 8013f0c:	e9c0 1200 	strd	r1, r2, [r0]
 8013f10:	2202      	movs	r2, #2
 8013f12:	e9c0 2303 	strd	r2, r3, [r0, #12]
 8013f16:	e9c0 2306 	strd	r2, r3, [r0, #24]
 8013f1a:	e9c0 3308 	strd	r3, r3, [r0, #32]
 8013f1e:	e9c0 330b 	strd	r3, r3, [r0, #44]	; 0x2c
 8013f22:	f7fa f869 	bl	800dff8 <HAL_PCD_Init>
 8013f26:	b108      	cbz	r0, 8013f2c <USBD_LL_Init+0x38>
 8013f28:	f7f8 f898 	bl	800c05c <Error_Handler>
 8013f2c:	2180      	movs	r1, #128	; 0x80
 8013f2e:	4807      	ldr	r0, [pc, #28]	; (8013f4c <USBD_LL_Init+0x58>)
 8013f30:	f7fa fdb2 	bl	800ea98 <HAL_PCDEx_SetRxFiFo>
 8013f34:	2240      	movs	r2, #64	; 0x40
 8013f36:	2100      	movs	r1, #0
 8013f38:	4804      	ldr	r0, [pc, #16]	; (8013f4c <USBD_LL_Init+0x58>)
 8013f3a:	f7fa fd8d 	bl	800ea58 <HAL_PCDEx_SetTxFiFo>
 8013f3e:	4803      	ldr	r0, [pc, #12]	; (8013f4c <USBD_LL_Init+0x58>)
 8013f40:	2280      	movs	r2, #128	; 0x80
 8013f42:	2101      	movs	r1, #1
 8013f44:	f7fa fd88 	bl	800ea58 <HAL_PCDEx_SetTxFiFo>
 8013f48:	2000      	movs	r0, #0
 8013f4a:	bd08      	pop	{r3, pc}
 8013f4c:	2000e2a4 	.word	0x2000e2a4

08013f50 <USBD_LL_IsStallEP>:
 8013f50:	f011 0f80 	tst.w	r1, #128	; 0x80
 8013f54:	f8d0 32c8 	ldr.w	r3, [r0, #712]	; 0x2c8
 8013f58:	f04f 0224 	mov.w	r2, #36	; 0x24
 8013f5c:	bf1b      	ittet	ne
 8013f5e:	f001 017f 	andne.w	r1, r1, #127	; 0x7f
 8013f62:	fb02 3101 	mlane	r1, r2, r1, r3
 8013f66:	fb02 3101 	mlaeq	r1, r2, r1, r3
 8013f6a:	f891 003e 	ldrbne.w	r0, [r1, #62]	; 0x3e
 8013f6e:	bf08      	it	eq
 8013f70:	f891 027e 	ldrbeq.w	r0, [r1, #638]	; 0x27e
 8013f74:	4770      	bx	lr

08013f76 <USBD_LL_GetRxDataSize>:
 8013f76:	f8d0 02c8 	ldr.w	r0, [r0, #712]	; 0x2c8
 8013f7a:	f7fa b980 	b.w	800e27e <HAL_PCD_EP_GetRxCount>
	...

08013f80 <USBD_static_malloc>:
 8013f80:	4800      	ldr	r0, [pc, #0]	; (8013f84 <USBD_static_malloc+0x4>)
 8013f82:	4770      	bx	lr
 8013f84:	2000e7b0 	.word	0x2000e7b0

08013f88 <USBD_static_free>:
 8013f88:	4770      	bx	lr
	...

08013f8c <USBD_Get_USB_Status>:
 8013f8c:	2803      	cmp	r0, #3
 8013f8e:	bf9a      	itte	ls
 8013f90:	4b01      	ldrls	r3, [pc, #4]	; (8013f98 <USBD_Get_USB_Status+0xc>)
 8013f92:	5c18      	ldrbls	r0, [r3, r0]
 8013f94:	2003      	movhi	r0, #3
 8013f96:	4770      	bx	lr
 8013f98:	08015ba0 	.word	0x08015ba0

08013f9c <USBD_LL_Start>:
 8013f9c:	b508      	push	{r3, lr}
 8013f9e:	f8d0 02c8 	ldr.w	r0, [r0, #712]	; 0x2c8
 8013fa2:	f7fa f8ae 	bl	800e102 <HAL_PCD_Start>
 8013fa6:	e8bd 4008 	ldmia.w	sp!, {r3, lr}
 8013faa:	f7ff bfef 	b.w	8013f8c <USBD_Get_USB_Status>

08013fae <USBD_LL_OpenEP>:
 8013fae:	b510      	push	{r4, lr}
 8013fb0:	4614      	mov	r4, r2
 8013fb2:	f8d0 02c8 	ldr.w	r0, [r0, #712]	; 0x2c8
 8013fb6:	461a      	mov	r2, r3
 8013fb8:	4623      	mov	r3, r4
 8013fba:	f7fa f8d5 	bl	800e168 <HAL_PCD_EP_Open>
 8013fbe:	e8bd 4010 	ldmia.w	sp!, {r4, lr}
 8013fc2:	f7ff bfe3 	b.w	8013f8c <USBD_Get_USB_Status>

08013fc6 <USBD_LL_CloseEP>:
 8013fc6:	b508      	push	{r3, lr}
 8013fc8:	f8d0 02c8 	ldr.w	r0, [r0, #712]	; 0x2c8
 8013fcc:	f7fa f904 	bl	800e1d8 <HAL_PCD_EP_Close>
 8013fd0:	e8bd 4008 	ldmia.w	sp!, {r3, lr}
 8013fd4:	f7ff bfda 	b.w	8013f8c <USBD_Get_USB_Status>

08013fd8 <USBD_LL_StallEP>:
 8013fd8:	b508      	push	{r3, lr}
 8013fda:	f8d0 02c8 	ldr.w	r0, [r0, #712]	; 0x2c8
 8013fde:	f7fa f976 	bl	800e2ce <HAL_PCD_EP_SetStall>
 8013fe2:	e8bd 4008 	ldmia.w	sp!, {r3, lr}
 8013fe6:	f7ff bfd1 	b.w	8013f8c <USBD_Get_USB_Status>

08013fea <USBD_LL_ClearStallEP>:
 8013fea:	b508      	push	{r3, lr}
 8013fec:	f8d0 02c8 	ldr.w	r0, [r0, #712]	; 0x2c8
 8013ff0:	f7fa f9a5 	bl	800e33e <HAL_PCD_EP_ClrStall>
 8013ff4:	e8bd 4008 	ldmia.w	sp!, {r3, lr}
 8013ff8:	f7ff bfc8 	b.w	8013f8c <USBD_Get_USB_Status>

08013ffc <USBD_LL_SetUSBAddress>:
 8013ffc:	b508      	push	{r3, lr}
 8013ffe:	f8d0 02c8 	ldr.w	r0, [r0, #712]	; 0x2c8
 8014002:	f7fa f89d 	bl	800e140 <HAL_PCD_SetAddress>
 8014006:	e8bd 4008 	ldmia.w	sp!, {r3, lr}
 801400a:	f7ff bfbf 	b.w	8013f8c <USBD_Get_USB_Status>

0801400e <USBD_LL_Transmit>:
 801400e:	b508      	push	{r3, lr}
 8014010:	f8d0 02c8 	ldr.w	r0, [r0, #712]	; 0x2c8
 8014014:	f7fa f93b 	bl	800e28e <HAL_PCD_EP_Transmit>
 8014018:	e8bd 4008 	ldmia.w	sp!, {r3, lr}
 801401c:	f7ff bfb6 	b.w	8013f8c <USBD_Get_USB_Status>

08014020 <USBD_LL_PrepareReceive>:
 8014020:	b508      	push	{r3, lr}
 8014022:	f8d0 02c8 	ldr.w	r0, [r0, #712]	; 0x2c8
 8014026:	f7fa f906 	bl	800e236 <HAL_PCD_EP_Receive>
 801402a:	e8bd 4008 	ldmia.w	sp!, {r3, lr}
 801402e:	f7ff bfad 	b.w	8013f8c <USBD_Get_USB_Status>
	...

08014034 <arm_rfft_32_fast_init_f32>:
 8014034:	b178      	cbz	r0, 8014056 <arm_rfft_32_fast_init_f32+0x22>
 8014036:	b430      	push	{r4, r5}
 8014038:	4908      	ldr	r1, [pc, #32]	; (801405c <arm_rfft_32_fast_init_f32+0x28>)
 801403a:	4a09      	ldr	r2, [pc, #36]	; (8014060 <arm_rfft_32_fast_init_f32+0x2c>)
 801403c:	2310      	movs	r3, #16
 801403e:	e9c0 2101 	strd	r2, r1, [r0, #4]
 8014042:	8003      	strh	r3, [r0, #0]
 8014044:	2520      	movs	r5, #32
 8014046:	2414      	movs	r4, #20
 8014048:	4b06      	ldr	r3, [pc, #24]	; (8014064 <arm_rfft_32_fast_init_f32+0x30>)
 801404a:	8205      	strh	r5, [r0, #16]
 801404c:	8184      	strh	r4, [r0, #12]
 801404e:	6143      	str	r3, [r0, #20]
 8014050:	bc30      	pop	{r4, r5}
 8014052:	2000      	movs	r0, #0
 8014054:	4770      	bx	lr
 8014056:	f04f 30ff 	mov.w	r0, #4294967295
 801405a:	4770      	bx	lr
 801405c:	08016b54 	.word	0x08016b54
 8014060:	0801b48c 	.word	0x0801b48c
 8014064:	0802420c 	.word	0x0802420c

08014068 <arm_rfft_64_fast_init_f32>:
 8014068:	b178      	cbz	r0, 801408a <arm_rfft_64_fast_init_f32+0x22>
 801406a:	b430      	push	{r4, r5}
 801406c:	4908      	ldr	r1, [pc, #32]	; (8014090 <arm_rfft_64_fast_init_f32+0x28>)
 801406e:	4a09      	ldr	r2, [pc, #36]	; (8014094 <arm_rfft_64_fast_init_f32+0x2c>)
 8014070:	2320      	movs	r3, #32
 8014072:	e9c0 2101 	strd	r2, r1, [r0, #4]
 8014076:	8003      	strh	r3, [r0, #0]
 8014078:	2540      	movs	r5, #64	; 0x40
 801407a:	2430      	movs	r4, #48	; 0x30
 801407c:	4b06      	ldr	r3, [pc, #24]	; (8014098 <arm_rfft_64_fast_init_f32+0x30>)
 801407e:	8205      	strh	r5, [r0, #16]
 8014080:	8184      	strh	r4, [r0, #12]
 8014082:	6143      	str	r3, [r0, #20]
 8014084:	bc30      	pop	{r4, r5}
 8014086:	2000      	movs	r0, #0
 8014088:	4770      	bx	lr
 801408a:	f04f 30ff 	mov.w	r0, #4294967295
 801408e:	4770      	bx	lr
 8014090:	08018cac 	.word	0x08018cac
 8014094:	0801fd0c 	.word	0x0801fd0c
 8014098:	08028a8c 	.word	0x08028a8c

0801409c <arm_rfft_256_fast_init_f32>:
 801409c:	b180      	cbz	r0, 80140c0 <arm_rfft_256_fast_init_f32+0x24>
 801409e:	b430      	push	{r4, r5}
 80140a0:	4909      	ldr	r1, [pc, #36]	; (80140c8 <arm_rfft_256_fast_init_f32+0x2c>)
 80140a2:	4a0a      	ldr	r2, [pc, #40]	; (80140cc <arm_rfft_256_fast_init_f32+0x30>)
 80140a4:	2380      	movs	r3, #128	; 0x80
 80140a6:	e9c0 2101 	strd	r2, r1, [r0, #4]
 80140aa:	8003      	strh	r3, [r0, #0]
 80140ac:	f44f 7580 	mov.w	r5, #256	; 0x100
 80140b0:	24d0      	movs	r4, #208	; 0xd0
 80140b2:	4b07      	ldr	r3, [pc, #28]	; (80140d0 <arm_rfft_256_fast_init_f32+0x34>)
 80140b4:	8205      	strh	r5, [r0, #16]
 80140b6:	8184      	strh	r4, [r0, #12]
 80140b8:	6143      	str	r3, [r0, #20]
 80140ba:	bc30      	pop	{r4, r5}
 80140bc:	2000      	movs	r0, #0
 80140be:	4770      	bx	lr
 80140c0:	f04f 30ff 	mov.w	r0, #4294967295
 80140c4:	4770      	bx	lr
 80140c6:	bf00      	nop
 80140c8:	080169b4 	.word	0x080169b4
 80140cc:	0801b08c 	.word	0x0801b08c
 80140d0:	08023e0c 	.word	0x08023e0c

080140d4 <arm_rfft_512_fast_init_f32>:
 80140d4:	b190      	cbz	r0, 80140fc <arm_rfft_512_fast_init_f32+0x28>
 80140d6:	b430      	push	{r4, r5}
 80140d8:	490a      	ldr	r1, [pc, #40]	; (8014104 <arm_rfft_512_fast_init_f32+0x30>)
 80140da:	4a0b      	ldr	r2, [pc, #44]	; (8014108 <arm_rfft_512_fast_init_f32+0x34>)
 80140dc:	f44f 7380 	mov.w	r3, #256	; 0x100
 80140e0:	e9c0 2101 	strd	r2, r1, [r0, #4]
 80140e4:	8003      	strh	r3, [r0, #0]
 80140e6:	f44f 7500 	mov.w	r5, #512	; 0x200
 80140ea:	f44f 74dc 	mov.w	r4, #440	; 0x1b8
 80140ee:	4b07      	ldr	r3, [pc, #28]	; (801410c <arm_rfft_512_fast_init_f32+0x38>)
 80140f0:	8205      	strh	r5, [r0, #16]
 80140f2:	8184      	strh	r4, [r0, #12]
 80140f4:	6143      	str	r3, [r0, #20]
 80140f6:	bc30      	pop	{r4, r5}
 80140f8:	2000      	movs	r0, #0
 80140fa:	4770      	bx	lr
 80140fc:	f04f 30ff 	mov.w	r0, #4294967295
 8014100:	4770      	bx	lr
 8014102:	bf00      	nop
 8014104:	0801893c 	.word	0x0801893c
 8014108:	0801f50c 	.word	0x0801f50c
 801410c:	0802828c 	.word	0x0802828c

08014110 <arm_rfft_1024_fast_init_f32>:
 8014110:	b190      	cbz	r0, 8014138 <arm_rfft_1024_fast_init_f32+0x28>
 8014112:	b430      	push	{r4, r5}
 8014114:	490a      	ldr	r1, [pc, #40]	; (8014140 <arm_rfft_1024_fast_init_f32+0x30>)
 8014116:	4a0b      	ldr	r2, [pc, #44]	; (8014144 <arm_rfft_1024_fast_init_f32+0x34>)
 8014118:	f44f 7300 	mov.w	r3, #512	; 0x200
 801411c:	e9c0 2101 	strd	r2, r1, [r0, #4]
 8014120:	8003      	strh	r3, [r0, #0]
 8014122:	f44f 6580 	mov.w	r5, #1024	; 0x400
 8014126:	f44f 74e0 	mov.w	r4, #448	; 0x1c0
 801412a:	4b07      	ldr	r3, [pc, #28]	; (8014148 <arm_rfft_1024_fast_init_f32+0x38>)
 801412c:	8205      	strh	r5, [r0, #16]
 801412e:	8184      	strh	r4, [r0, #12]
 8014130:	6143      	str	r3, [r0, #20]
 8014132:	bc30      	pop	{r4, r5}
 8014134:	2000      	movs	r0, #0
 8014136:	4770      	bx	lr
 8014138:	f04f 30ff 	mov.w	r0, #4294967295
 801413c:	4770      	bx	lr
 801413e:	bf00      	nop
 8014140:	08018d0c 	.word	0x08018d0c
 8014144:	0801fe0c 	.word	0x0801fe0c
 8014148:	08020e0c 	.word	0x08020e0c

0801414c <arm_rfft_2048_fast_init_f32>:
 801414c:	b190      	cbz	r0, 8014174 <arm_rfft_2048_fast_init_f32+0x28>
 801414e:	b430      	push	{r4, r5}
 8014150:	490a      	ldr	r1, [pc, #40]	; (801417c <arm_rfft_2048_fast_init_f32+0x30>)
 8014152:	4a0b      	ldr	r2, [pc, #44]	; (8014180 <arm_rfft_2048_fast_init_f32+0x34>)
 8014154:	f44f 6380 	mov.w	r3, #1024	; 0x400
 8014158:	e9c0 2101 	strd	r2, r1, [r0, #4]
 801415c:	8003      	strh	r3, [r0, #0]
 801415e:	f44f 6500 	mov.w	r5, #2048	; 0x800
 8014162:	f44f 64e1 	mov.w	r4, #1800	; 0x708
 8014166:	4b07      	ldr	r3, [pc, #28]	; (8014184 <arm_rfft_2048_fast_init_f32+0x38>)
 8014168:	8205      	strh	r5, [r0, #16]
 801416a:	8184      	strh	r4, [r0, #12]
 801416c:	6143      	str	r3, [r0, #20]
 801416e:	bc30      	pop	{r4, r5}
 8014170:	2000      	movs	r0, #0
 8014172:	4770      	bx	lr
 8014174:	f04f 30ff 	mov.w	r0, #4294967295
 8014178:	4770      	bx	lr
 801417a:	bf00      	nop
 801417c:	08015ba4 	.word	0x08015ba4
 8014180:	0801908c 	.word	0x0801908c
 8014184:	08021e0c 	.word	0x08021e0c

08014188 <arm_rfft_4096_fast_init_f32>:
 8014188:	b190      	cbz	r0, 80141b0 <arm_rfft_4096_fast_init_f32+0x28>
 801418a:	b430      	push	{r4, r5}
 801418c:	490a      	ldr	r1, [pc, #40]	; (80141b8 <arm_rfft_4096_fast_init_f32+0x30>)
 801418e:	4a0b      	ldr	r2, [pc, #44]	; (80141bc <arm_rfft_4096_fast_init_f32+0x34>)
 8014190:	f44f 6300 	mov.w	r3, #2048	; 0x800
 8014194:	e9c0 2101 	strd	r2, r1, [r0, #4]
 8014198:	8003      	strh	r3, [r0, #0]
 801419a:	f44f 5580 	mov.w	r5, #4096	; 0x1000
 801419e:	f44f 646e 	mov.w	r4, #3808	; 0xee0
 80141a2:	4b07      	ldr	r3, [pc, #28]	; (80141c0 <arm_rfft_4096_fast_init_f32+0x38>)
 80141a4:	8205      	strh	r5, [r0, #16]
 80141a6:	8184      	strh	r4, [r0, #12]
 80141a8:	6143      	str	r3, [r0, #20]
 80141aa:	bc30      	pop	{r4, r5}
 80141ac:	2000      	movs	r0, #0
 80141ae:	4770      	bx	lr
 80141b0:	f04f 30ff 	mov.w	r0, #4294967295
 80141b4:	4770      	bx	lr
 80141b6:	bf00      	nop
 80141b8:	08016b7c 	.word	0x08016b7c
 80141bc:	0801b50c 	.word	0x0801b50c
 80141c0:	0802428c 	.word	0x0802428c

080141c4 <arm_rfft_fast_init_f32>:
 80141c4:	f5b1 7f00 	cmp.w	r1, #512	; 0x200
 80141c8:	d01f      	beq.n	801420a <arm_rfft_fast_init_f32+0x46>
 80141ca:	d90b      	bls.n	80141e4 <arm_rfft_fast_init_f32+0x20>
 80141cc:	f5b1 6f00 	cmp.w	r1, #2048	; 0x800
 80141d0:	d019      	beq.n	8014206 <arm_rfft_fast_init_f32+0x42>
 80141d2:	f5b1 5f80 	cmp.w	r1, #4096	; 0x1000
 80141d6:	d012      	beq.n	80141fe <arm_rfft_fast_init_f32+0x3a>
 80141d8:	f5b1 6f80 	cmp.w	r1, #1024	; 0x400
 80141dc:	d00d      	beq.n	80141fa <arm_rfft_fast_init_f32+0x36>
 80141de:	f04f 30ff 	mov.w	r0, #4294967295
 80141e2:	4770      	bx	lr
 80141e4:	2940      	cmp	r1, #64	; 0x40
 80141e6:	d00c      	beq.n	8014202 <arm_rfft_fast_init_f32+0x3e>
 80141e8:	f5b1 7f80 	cmp.w	r1, #256	; 0x100
 80141ec:	d003      	beq.n	80141f6 <arm_rfft_fast_init_f32+0x32>
 80141ee:	2920      	cmp	r1, #32
 80141f0:	d1f5      	bne.n	80141de <arm_rfft_fast_init_f32+0x1a>
 80141f2:	4b07      	ldr	r3, [pc, #28]	; (8014210 <arm_rfft_fast_init_f32+0x4c>)
 80141f4:	4718      	bx	r3
 80141f6:	4b07      	ldr	r3, [pc, #28]	; (8014214 <arm_rfft_fast_init_f32+0x50>)
 80141f8:	4718      	bx	r3
 80141fa:	4b07      	ldr	r3, [pc, #28]	; (8014218 <arm_rfft_fast_init_f32+0x54>)
 80141fc:	4718      	bx	r3
 80141fe:	4b07      	ldr	r3, [pc, #28]	; (801421c <arm_rfft_fast_init_f32+0x58>)
 8014200:	4718      	bx	r3
 8014202:	4b07      	ldr	r3, [pc, #28]	; (8014220 <arm_rfft_fast_init_f32+0x5c>)
 8014204:	e7f6      	b.n	80141f4 <arm_rfft_fast_init_f32+0x30>
 8014206:	4b07      	ldr	r3, [pc, #28]	; (8014224 <arm_rfft_fast_init_f32+0x60>)
 8014208:	e7f4      	b.n	80141f4 <arm_rfft_fast_init_f32+0x30>
 801420a:	4b07      	ldr	r3, [pc, #28]	; (8014228 <arm_rfft_fast_init_f32+0x64>)
 801420c:	e7f2      	b.n	80141f4 <arm_rfft_fast_init_f32+0x30>
 801420e:	bf00      	nop
 8014210:	08014035 	.word	0x08014035
 8014214:	0801409d 	.word	0x0801409d
 8014218:	08014111 	.word	0x08014111
 801421c:	08014189 	.word	0x08014189
 8014220:	08014069 	.word	0x08014069
 8014224:	0801414d 	.word	0x0801414d
 8014228:	080140d5 	.word	0x080140d5

0801422c <stage_rfft_f32>:
 801422c:	b410      	push	{r4}
 801422e:	edd1 7a00 	vldr	s15, [r1]
 8014232:	ed91 7a01 	vldr	s14, [r1, #4]
 8014236:	8804      	ldrh	r4, [r0, #0]
 8014238:	6940      	ldr	r0, [r0, #20]
 801423a:	ee37 7a07 	vadd.f32	s14, s14, s14
 801423e:	ee77 7aa7 	vadd.f32	s15, s15, s15
 8014242:	eeb6 4a00 	vmov.f32	s8, #96	; 0x3f000000  0.5
 8014246:	ee77 6a87 	vadd.f32	s13, s15, s14
 801424a:	ee77 7ac7 	vsub.f32	s15, s15, s14
 801424e:	3c01      	subs	r4, #1
 8014250:	ee26 7a84 	vmul.f32	s14, s13, s8
 8014254:	ee67 7a84 	vmul.f32	s15, s15, s8
 8014258:	eb01 03c4 	add.w	r3, r1, r4, lsl #3
 801425c:	ed82 7a00 	vstr	s14, [r2]
 8014260:	edc2 7a01 	vstr	s15, [r2, #4]
 8014264:	3010      	adds	r0, #16
 8014266:	3210      	adds	r2, #16
 8014268:	3b08      	subs	r3, #8
 801426a:	3110      	adds	r1, #16
 801426c:	ed11 5a02 	vldr	s10, [r1, #-8]
 8014270:	ed93 7a02 	vldr	s14, [r3, #8]
 8014274:	ed50 6a02 	vldr	s13, [r0, #-8]
 8014278:	edd3 4a03 	vldr	s9, [r3, #12]
 801427c:	ed51 7a01 	vldr	s15, [r1, #-4]
 8014280:	ed10 6a01 	vldr	s12, [r0, #-4]
 8014284:	ee77 5a45 	vsub.f32	s11, s14, s10
 8014288:	ee37 7a05 	vadd.f32	s14, s14, s10
 801428c:	ee66 3aa5 	vmul.f32	s7, s13, s11
 8014290:	ee34 5aa7 	vadd.f32	s10, s9, s15
 8014294:	ee66 5a25 	vmul.f32	s11, s12, s11
 8014298:	ee77 7ae4 	vsub.f32	s15, s15, s9
 801429c:	ee37 7a23 	vadd.f32	s14, s14, s7
 80142a0:	ee66 6a85 	vmul.f32	s13, s13, s10
 80142a4:	ee26 6a05 	vmul.f32	s12, s12, s10
 80142a8:	ee77 7aa5 	vadd.f32	s15, s15, s11
 80142ac:	ee37 7a06 	vadd.f32	s14, s14, s12
 80142b0:	ee77 7ae6 	vsub.f32	s15, s15, s13
 80142b4:	ee27 7a04 	vmul.f32	s14, s14, s8
 80142b8:	ee67 7a84 	vmul.f32	s15, s15, s8
 80142bc:	3c01      	subs	r4, #1
 80142be:	ed02 7a02 	vstr	s14, [r2, #-8]
 80142c2:	ed42 7a01 	vstr	s15, [r2, #-4]
 80142c6:	f1a3 0308 	sub.w	r3, r3, #8
 80142ca:	f101 0108 	add.w	r1, r1, #8
 80142ce:	f100 0008 	add.w	r0, r0, #8
 80142d2:	f102 0208 	add.w	r2, r2, #8
 80142d6:	d1c9      	bne.n	801426c <stage_rfft_f32+0x40>
 80142d8:	f85d 4b04 	ldr.w	r4, [sp], #4
 80142dc:	4770      	bx	lr
 80142de:	bf00      	nop

080142e0 <merge_rfft_f32>:
 80142e0:	b410      	push	{r4}
 80142e2:	edd1 7a00 	vldr	s15, [r1]
 80142e6:	edd1 6a01 	vldr	s13, [r1, #4]
 80142ea:	8804      	ldrh	r4, [r0, #0]
 80142ec:	6940      	ldr	r0, [r0, #20]
 80142ee:	ee37 7aa6 	vadd.f32	s14, s15, s13
 80142f2:	ee77 7ae6 	vsub.f32	s15, s15, s13
 80142f6:	eeb6 4a00 	vmov.f32	s8, #96	; 0x3f000000  0.5
 80142fa:	ee27 7a04 	vmul.f32	s14, s14, s8
 80142fe:	ee67 7a84 	vmul.f32	s15, s15, s8
 8014302:	3c01      	subs	r4, #1
 8014304:	ed82 7a00 	vstr	s14, [r2]
 8014308:	edc2 7a01 	vstr	s15, [r2, #4]
 801430c:	b3dc      	cbz	r4, 8014386 <merge_rfft_f32+0xa6>
 801430e:	00e3      	lsls	r3, r4, #3
 8014310:	3b08      	subs	r3, #8
 8014312:	440b      	add	r3, r1
 8014314:	3010      	adds	r0, #16
 8014316:	3210      	adds	r2, #16
 8014318:	3110      	adds	r1, #16
 801431a:	ed11 5a02 	vldr	s10, [r1, #-8]
 801431e:	ed93 7a02 	vldr	s14, [r3, #8]
 8014322:	ed50 6a02 	vldr	s13, [r0, #-8]
 8014326:	edd3 4a03 	vldr	s9, [r3, #12]
 801432a:	ed51 7a01 	vldr	s15, [r1, #-4]
 801432e:	ed10 6a01 	vldr	s12, [r0, #-4]
 8014332:	ee75 5a47 	vsub.f32	s11, s10, s14
 8014336:	ee37 7a05 	vadd.f32	s14, s14, s10
 801433a:	ee66 3aa5 	vmul.f32	s7, s13, s11
 801433e:	ee34 5aa7 	vadd.f32	s10, s9, s15
 8014342:	ee66 5a25 	vmul.f32	s11, s12, s11
 8014346:	ee77 7ae4 	vsub.f32	s15, s15, s9
 801434a:	ee37 7a63 	vsub.f32	s14, s14, s7
 801434e:	ee66 6a85 	vmul.f32	s13, s13, s10
 8014352:	ee26 6a05 	vmul.f32	s12, s12, s10
 8014356:	ee77 7aa5 	vadd.f32	s15, s15, s11
 801435a:	ee37 7a46 	vsub.f32	s14, s14, s12
 801435e:	ee77 7ae6 	vsub.f32	s15, s15, s13
 8014362:	ee27 7a04 	vmul.f32	s14, s14, s8
 8014366:	ee67 7a84 	vmul.f32	s15, s15, s8
 801436a:	3c01      	subs	r4, #1
 801436c:	ed02 7a02 	vstr	s14, [r2, #-8]
 8014370:	ed42 7a01 	vstr	s15, [r2, #-4]
 8014374:	f1a3 0308 	sub.w	r3, r3, #8
 8014378:	f101 0108 	add.w	r1, r1, #8
 801437c:	f100 0008 	add.w	r0, r0, #8
 8014380:	f102 0208 	add.w	r2, r2, #8
 8014384:	d1c9      	bne.n	801431a <merge_rfft_f32+0x3a>
 8014386:	f85d 4b04 	ldr.w	r4, [sp], #4
 801438a:	4770      	bx	lr

0801438c <arm_rfft_fast_f32>:
 801438c:	e92d 41f0 	stmdb	sp!, {r4, r5, r6, r7, r8, lr}
 8014390:	8a05      	ldrh	r5, [r0, #16]
 8014392:	086d      	lsrs	r5, r5, #1
 8014394:	8005      	strh	r5, [r0, #0]
 8014396:	4604      	mov	r4, r0
 8014398:	4616      	mov	r6, r2
 801439a:	461d      	mov	r5, r3
 801439c:	b14b      	cbz	r3, 80143b2 <arm_rfft_fast_f32+0x26>
 801439e:	f7ff ff9f 	bl	80142e0 <merge_rfft_f32>
 80143a2:	462a      	mov	r2, r5
 80143a4:	4631      	mov	r1, r6
 80143a6:	4620      	mov	r0, r4
 80143a8:	2301      	movs	r3, #1
 80143aa:	e8bd 41f0 	ldmia.w	sp!, {r4, r5, r6, r7, r8, lr}
 80143ae:	f000 bb33 	b.w	8014a18 <arm_cfft_f32>
 80143b2:	460f      	mov	r7, r1
 80143b4:	461a      	mov	r2, r3
 80143b6:	2301      	movs	r3, #1
 80143b8:	f000 fb2e 	bl	8014a18 <arm_cfft_f32>
 80143bc:	4632      	mov	r2, r6
 80143be:	4639      	mov	r1, r7
 80143c0:	4620      	mov	r0, r4
 80143c2:	e8bd 41f0 	ldmia.w	sp!, {r4, r5, r6, r7, r8, lr}
 80143c6:	f7ff bf31 	b.w	801422c <stage_rfft_f32>
 80143ca:	bf00      	nop

080143cc <arm_cfft_radix8by2_f32>:
 80143cc:	e92d 41f0 	stmdb	sp!, {r4, r5, r6, r7, r8, lr}
 80143d0:	ed2d 8b08 	vpush	{d8-d11}
 80143d4:	4607      	mov	r7, r0
 80143d6:	4608      	mov	r0, r1
 80143d8:	f8b7 c000 	ldrh.w	ip, [r7]
 80143dc:	687a      	ldr	r2, [r7, #4]
 80143de:	ea4f 015c 	mov.w	r1, ip, lsr #1
 80143e2:	eb00 088c 	add.w	r8, r0, ip, lsl #2
 80143e6:	ea5f 0cdc 	movs.w	ip, ip, lsr #3
 80143ea:	f000 80b0 	beq.w	801454e <arm_cfft_radix8by2_f32+0x182>
 80143ee:	008c      	lsls	r4, r1, #2
 80143f0:	3410      	adds	r4, #16
 80143f2:	f100 0310 	add.w	r3, r0, #16
 80143f6:	1906      	adds	r6, r0, r4
 80143f8:	3210      	adds	r2, #16
 80143fa:	4444      	add	r4, r8
 80143fc:	eb03 1c0c 	add.w	ip, r3, ip, lsl #4
 8014400:	f108 0510 	add.w	r5, r8, #16
 8014404:	ed15 2a04 	vldr	s4, [r5, #-16]
 8014408:	ed55 2a03 	vldr	s5, [r5, #-12]
 801440c:	ed54 4a04 	vldr	s9, [r4, #-16]
 8014410:	ed14 4a03 	vldr	s8, [r4, #-12]
 8014414:	ed14 6a02 	vldr	s12, [r4, #-8]
 8014418:	ed54 5a01 	vldr	s11, [r4, #-4]
 801441c:	ed53 3a04 	vldr	s7, [r3, #-16]
 8014420:	ed15 0a02 	vldr	s0, [r5, #-8]
 8014424:	ed55 0a01 	vldr	s1, [r5, #-4]
 8014428:	ed56 6a04 	vldr	s13, [r6, #-16]
 801442c:	ed16 3a03 	vldr	s6, [r6, #-12]
 8014430:	ed13 7a03 	vldr	s14, [r3, #-12]
 8014434:	ed13 5a02 	vldr	s10, [r3, #-8]
 8014438:	ed53 7a01 	vldr	s15, [r3, #-4]
 801443c:	ed16 1a02 	vldr	s2, [r6, #-8]
 8014440:	ed56 1a01 	vldr	s3, [r6, #-4]
 8014444:	ee73 ba82 	vadd.f32	s23, s7, s4
 8014448:	ee37 ba22 	vadd.f32	s22, s14, s5
 801444c:	ee76 9aa4 	vadd.f32	s19, s13, s9
 8014450:	ee33 9a04 	vadd.f32	s18, s6, s8
 8014454:	ee31 8aa5 	vadd.f32	s16, s3, s11
 8014458:	ee75 aa00 	vadd.f32	s21, s10, s0
 801445c:	ee37 aaa0 	vadd.f32	s20, s15, s1
 8014460:	ee71 8a06 	vadd.f32	s17, s2, s12
 8014464:	ed43 ba04 	vstr	s23, [r3, #-16]
 8014468:	ed03 ba03 	vstr	s22, [r3, #-12]
 801446c:	ed43 aa02 	vstr	s21, [r3, #-8]
 8014470:	ed03 aa01 	vstr	s20, [r3, #-4]
 8014474:	ed06 8a01 	vstr	s16, [r6, #-4]
 8014478:	ed46 9a04 	vstr	s19, [r6, #-16]
 801447c:	ed06 9a03 	vstr	s18, [r6, #-12]
 8014480:	ed46 8a02 	vstr	s17, [r6, #-8]
 8014484:	ee37 7a62 	vsub.f32	s14, s14, s5
 8014488:	ee74 4ae6 	vsub.f32	s9, s9, s13
 801448c:	ee34 4a43 	vsub.f32	s8, s8, s6
 8014490:	ed52 6a03 	vldr	s13, [r2, #-12]
 8014494:	ed12 3a04 	vldr	s6, [r2, #-16]
 8014498:	ee73 3ac2 	vsub.f32	s7, s7, s4
 801449c:	ee27 8a26 	vmul.f32	s16, s14, s13
 80144a0:	ee64 2aa6 	vmul.f32	s5, s9, s13
 80144a4:	ee23 2a83 	vmul.f32	s4, s7, s6
 80144a8:	ee64 4a83 	vmul.f32	s9, s9, s6
 80144ac:	ee63 3aa6 	vmul.f32	s7, s7, s13
 80144b0:	ee27 7a03 	vmul.f32	s14, s14, s6
 80144b4:	ee64 6a26 	vmul.f32	s13, s8, s13
 80144b8:	ee24 4a03 	vmul.f32	s8, s8, s6
 80144bc:	ee37 7a63 	vsub.f32	s14, s14, s7
 80144c0:	ee76 6aa4 	vadd.f32	s13, s13, s9
 80144c4:	ee32 4ac4 	vsub.f32	s8, s5, s8
 80144c8:	ee32 3a08 	vadd.f32	s6, s4, s16
 80144cc:	ed05 7a03 	vstr	s14, [r5, #-12]
 80144d0:	ed05 3a04 	vstr	s6, [r5, #-16]
 80144d4:	ed04 4a04 	vstr	s8, [r4, #-16]
 80144d8:	ed44 6a03 	vstr	s13, [r4, #-12]
 80144dc:	ed12 7a01 	vldr	s14, [r2, #-4]
 80144e0:	ee76 6a41 	vsub.f32	s13, s12, s2
 80144e4:	ee35 5a40 	vsub.f32	s10, s10, s0
 80144e8:	ee35 6ae1 	vsub.f32	s12, s11, s3
 80144ec:	ee77 7ae0 	vsub.f32	s15, s15, s1
 80144f0:	ed52 5a02 	vldr	s11, [r2, #-8]
 80144f4:	ee67 3a87 	vmul.f32	s7, s15, s14
 80144f8:	ee66 4a87 	vmul.f32	s9, s13, s14
 80144fc:	ee25 4a25 	vmul.f32	s8, s10, s11
 8014500:	ee67 7aa5 	vmul.f32	s15, s15, s11
 8014504:	ee25 5a07 	vmul.f32	s10, s10, s14
 8014508:	ee66 6aa5 	vmul.f32	s13, s13, s11
 801450c:	ee26 7a07 	vmul.f32	s14, s12, s14
 8014510:	ee26 6a25 	vmul.f32	s12, s12, s11
 8014514:	ee77 7ac5 	vsub.f32	s15, s15, s10
 8014518:	ee74 5a23 	vadd.f32	s11, s8, s7
 801451c:	ee34 6ac6 	vsub.f32	s12, s9, s12
 8014520:	ee37 7a26 	vadd.f32	s14, s14, s13
 8014524:	3310      	adds	r3, #16
 8014526:	4563      	cmp	r3, ip
 8014528:	ed45 5a02 	vstr	s11, [r5, #-8]
 801452c:	f106 0610 	add.w	r6, r6, #16
 8014530:	ed45 7a01 	vstr	s15, [r5, #-4]
 8014534:	f102 0210 	add.w	r2, r2, #16
 8014538:	ed04 6a02 	vstr	s12, [r4, #-8]
 801453c:	ed04 7a01 	vstr	s14, [r4, #-4]
 8014540:	f105 0510 	add.w	r5, r5, #16
 8014544:	f104 0410 	add.w	r4, r4, #16
 8014548:	f47f af5c 	bne.w	8014404 <arm_cfft_radix8by2_f32+0x38>
 801454c:	687a      	ldr	r2, [r7, #4]
 801454e:	b28c      	uxth	r4, r1
 8014550:	4621      	mov	r1, r4
 8014552:	2302      	movs	r3, #2
 8014554:	f000 fc1c 	bl	8014d90 <arm_radix8_butterfly_f32>
 8014558:	ecbd 8b08 	vpop	{d8-d11}
 801455c:	4621      	mov	r1, r4
 801455e:	687a      	ldr	r2, [r7, #4]
 8014560:	4640      	mov	r0, r8
 8014562:	2302      	movs	r3, #2
 8014564:	e8bd 41f0 	ldmia.w	sp!, {r4, r5, r6, r7, r8, lr}
 8014568:	f000 bc12 	b.w	8014d90 <arm_radix8_butterfly_f32>

0801456c <arm_cfft_radix8by4_f32>:
 801456c:	e92d 4ff0 	stmdb	sp!, {r4, r5, r6, r7, r8, r9, sl, fp, lr}
 8014570:	ed2d 8b0a 	vpush	{d8-d12}
 8014574:	b08d      	sub	sp, #52	; 0x34
 8014576:	460d      	mov	r5, r1
 8014578:	910b      	str	r1, [sp, #44]	; 0x2c
 801457a:	8801      	ldrh	r1, [r0, #0]
 801457c:	6842      	ldr	r2, [r0, #4]
 801457e:	900a      	str	r0, [sp, #40]	; 0x28
 8014580:	0849      	lsrs	r1, r1, #1
 8014582:	008b      	lsls	r3, r1, #2
 8014584:	18ee      	adds	r6, r5, r3
 8014586:	18f0      	adds	r0, r6, r3
 8014588:	edd0 5a00 	vldr	s11, [r0]
 801458c:	edd5 7a00 	vldr	s15, [r5]
 8014590:	ed96 7a00 	vldr	s14, [r6]
 8014594:	edd0 3a01 	vldr	s7, [r0, #4]
 8014598:	ed96 4a01 	vldr	s8, [r6, #4]
 801459c:	ed95 5a01 	vldr	s10, [r5, #4]
 80145a0:	9008      	str	r0, [sp, #32]
 80145a2:	ee37 6aa5 	vadd.f32	s12, s15, s11
 80145a6:	18c7      	adds	r7, r0, r3
 80145a8:	edd7 4a00 	vldr	s9, [r7]
 80145ac:	ed97 3a01 	vldr	s6, [r7, #4]
 80145b0:	9701      	str	r7, [sp, #4]
 80145b2:	ee77 6a06 	vadd.f32	s13, s14, s12
 80145b6:	462c      	mov	r4, r5
 80145b8:	ee76 6aa4 	vadd.f32	s13, s13, s9
 80145bc:	ee77 7ae5 	vsub.f32	s15, s15, s11
 80145c0:	ee16 ca90 	vmov	ip, s13
 80145c4:	f844 cb08 	str.w	ip, [r4], #8
 80145c8:	ee75 6a23 	vadd.f32	s13, s10, s7
 80145cc:	edd6 5a01 	vldr	s11, [r6, #4]
 80145d0:	edd7 2a01 	vldr	s5, [r7, #4]
 80145d4:	9404      	str	r4, [sp, #16]
 80145d6:	ee35 5a63 	vsub.f32	s10, s10, s7
 80145da:	ee74 3a27 	vadd.f32	s7, s8, s15
 80145de:	ee36 6a47 	vsub.f32	s12, s12, s14
 80145e2:	ee76 5aa5 	vadd.f32	s11, s13, s11
 80145e6:	ee73 3ac3 	vsub.f32	s7, s7, s6
 80145ea:	0849      	lsrs	r1, r1, #1
 80145ec:	f102 0e08 	add.w	lr, r2, #8
 80145f0:	ee76 6ac4 	vsub.f32	s13, s13, s8
 80145f4:	ee77 7ac4 	vsub.f32	s15, s15, s8
 80145f8:	9109      	str	r1, [sp, #36]	; 0x24
 80145fa:	ee35 4a47 	vsub.f32	s8, s10, s14
 80145fe:	f1a1 0902 	sub.w	r9, r1, #2
 8014602:	f8cd e00c 	str.w	lr, [sp, #12]
 8014606:	4631      	mov	r1, r6
 8014608:	ee13 ea90 	vmov	lr, s7
 801460c:	ee36 6a64 	vsub.f32	s12, s12, s9
 8014610:	ee75 5aa2 	vadd.f32	s11, s11, s5
 8014614:	4604      	mov	r4, r0
 8014616:	edc5 5a01 	vstr	s11, [r5, #4]
 801461a:	ee37 7a05 	vadd.f32	s14, s14, s10
 801461e:	f841 eb08 	str.w	lr, [r1], #8
 8014622:	ee34 5a24 	vadd.f32	s10, s8, s9
 8014626:	ee16 ea10 	vmov	lr, s12
 801462a:	ed86 5a01 	vstr	s10, [r6, #4]
 801462e:	ee76 6ac3 	vsub.f32	s13, s13, s6
 8014632:	f844 eb08 	str.w	lr, [r4], #8
 8014636:	ee77 7a83 	vadd.f32	s15, s15, s6
 801463a:	edc0 6a01 	vstr	s13, [r0, #4]
 801463e:	9405      	str	r4, [sp, #20]
 8014640:	4604      	mov	r4, r0
 8014642:	ee17 0a90 	vmov	r0, s15
 8014646:	9106      	str	r1, [sp, #24]
 8014648:	ee37 7a64 	vsub.f32	s14, s14, s9
 801464c:	f102 0110 	add.w	r1, r2, #16
 8014650:	46bc      	mov	ip, r7
 8014652:	9100      	str	r1, [sp, #0]
 8014654:	f847 0b08 	str.w	r0, [r7], #8
 8014658:	f102 0118 	add.w	r1, r2, #24
 801465c:	ea5f 0059 	movs.w	r0, r9, lsr #1
 8014660:	9102      	str	r1, [sp, #8]
 8014662:	ed8c 7a01 	vstr	s14, [ip, #4]
 8014666:	9007      	str	r0, [sp, #28]
 8014668:	f000 8134 	beq.w	80148d4 <arm_cfft_radix8by4_f32+0x368>
 801466c:	f102 0920 	add.w	r9, r2, #32
 8014670:	f102 0830 	add.w	r8, r2, #48	; 0x30
 8014674:	9a01      	ldr	r2, [sp, #4]
 8014676:	f8dd a000 	ldr.w	sl, [sp]
 801467a:	3b0c      	subs	r3, #12
 801467c:	4683      	mov	fp, r0
 801467e:	4463      	add	r3, ip
 8014680:	f105 0e10 	add.w	lr, r5, #16
 8014684:	f1a4 010c 	sub.w	r1, r4, #12
 8014688:	f104 0510 	add.w	r5, r4, #16
 801468c:	f1a6 0c0c 	sub.w	ip, r6, #12
 8014690:	f1a2 040c 	sub.w	r4, r2, #12
 8014694:	f106 0010 	add.w	r0, r6, #16
 8014698:	3210      	adds	r2, #16
 801469a:	ed1e 5a02 	vldr	s10, [lr, #-8]
 801469e:	ed55 5a02 	vldr	s11, [r5, #-8]
 80146a2:	ed50 7a02 	vldr	s15, [r0, #-8]
 80146a6:	ed52 1a02 	vldr	s3, [r2, #-8]
 80146aa:	ed55 6a01 	vldr	s13, [r5, #-4]
 80146ae:	ed1e 0a01 	vldr	s0, [lr, #-4]
 80146b2:	ed12 1a01 	vldr	s2, [r2, #-4]
 80146b6:	ed10 8a01 	vldr	s16, [r0, #-4]
 80146ba:	ee35 4a25 	vadd.f32	s8, s10, s11
 80146be:	ee30 6a26 	vadd.f32	s12, s0, s13
 80146c2:	ee37 7a84 	vadd.f32	s14, s15, s8
 80146c6:	ee30 0a66 	vsub.f32	s0, s0, s13
 80146ca:	ee37 7a21 	vadd.f32	s14, s14, s3
 80146ce:	ee75 5a65 	vsub.f32	s11, s10, s11
 80146d2:	ed0e 7a02 	vstr	s14, [lr, #-8]
 80146d6:	ed10 7a01 	vldr	s14, [r0, #-4]
 80146da:	ed52 6a01 	vldr	s13, [r2, #-4]
 80146de:	ee36 7a07 	vadd.f32	s14, s12, s14
 80146e2:	ee78 aa25 	vadd.f32	s21, s16, s11
 80146e6:	ee37 7a26 	vadd.f32	s14, s14, s13
 80146ea:	ee70 3a67 	vsub.f32	s7, s0, s15
 80146ee:	ed0e 7a01 	vstr	s14, [lr, #-4]
 80146f2:	ed94 7a02 	vldr	s14, [r4, #8]
 80146f6:	ed9c 2a02 	vldr	s4, [ip, #8]
 80146fa:	ed91 ba02 	vldr	s22, [r1, #8]
 80146fe:	edd3 9a02 	vldr	s19, [r3, #8]
 8014702:	edd4 2a01 	vldr	s5, [r4, #4]
 8014706:	ed9c 9a01 	vldr	s18, [ip, #4]
 801470a:	ed93 5a01 	vldr	s10, [r3, #4]
 801470e:	edd1 0a01 	vldr	s1, [r1, #4]
 8014712:	ee72 6a07 	vadd.f32	s13, s4, s14
 8014716:	ee32 2a47 	vsub.f32	s4, s4, s14
 801471a:	ee7b 8a26 	vadd.f32	s17, s22, s13
 801471e:	ee79 4a22 	vadd.f32	s9, s18, s5
 8014722:	ee38 7aa9 	vadd.f32	s14, s17, s19
 8014726:	ee79 2a62 	vsub.f32	s5, s18, s5
 801472a:	ed8c 7a02 	vstr	s14, [ip, #8]
 801472e:	ed91 7a01 	vldr	s14, [r1, #4]
 8014732:	edd3 8a01 	vldr	s17, [r3, #4]
 8014736:	ee34 7a87 	vadd.f32	s14, s9, s14
 801473a:	ee3b 3a69 	vsub.f32	s6, s22, s19
 801473e:	ee37 7a28 	vadd.f32	s14, s14, s17
 8014742:	ee32 9a60 	vsub.f32	s18, s4, s1
 8014746:	ed8c 7a01 	vstr	s14, [ip, #4]
 801474a:	ed1a 7a01 	vldr	s14, [sl, #-4]
 801474e:	ed1a aa02 	vldr	s20, [sl, #-8]
 8014752:	ee73 8a22 	vadd.f32	s17, s6, s5
 8014756:	ee39 9a05 	vadd.f32	s18, s18, s10
 801475a:	ee7a aac1 	vsub.f32	s21, s21, s2
 801475e:	ee73 3aa1 	vadd.f32	s7, s7, s3
 8014762:	ee2a ca8a 	vmul.f32	s24, s21, s20
 8014766:	ee69 ba07 	vmul.f32	s23, s18, s14
 801476a:	ee6a aa87 	vmul.f32	s21, s21, s14
 801476e:	ee29 9a0a 	vmul.f32	s18, s18, s20
 8014772:	ee63 ca87 	vmul.f32	s25, s7, s14
 8014776:	ee63 3a8a 	vmul.f32	s7, s7, s20
 801477a:	ee28 aa8a 	vmul.f32	s20, s17, s20
 801477e:	ee68 8a87 	vmul.f32	s17, s17, s14
 8014782:	ee73 3aea 	vsub.f32	s7, s7, s21
 8014786:	ee78 8a89 	vadd.f32	s17, s17, s18
 801478a:	ee3c 7a2c 	vadd.f32	s14, s24, s25
 801478e:	ee3b aaca 	vsub.f32	s20, s23, s20
 8014792:	ee34 4a67 	vsub.f32	s8, s8, s15
 8014796:	ee76 6acb 	vsub.f32	s13, s13, s22
 801479a:	ee36 6a48 	vsub.f32	s12, s12, s16
 801479e:	ee74 4ae0 	vsub.f32	s9, s9, s1
 80147a2:	ed00 7a02 	vstr	s14, [r0, #-8]
 80147a6:	ed40 3a01 	vstr	s7, [r0, #-4]
 80147aa:	edc1 8a01 	vstr	s17, [r1, #4]
 80147ae:	ed81 aa02 	vstr	s20, [r1, #8]
 80147b2:	ed59 3a04 	vldr	s7, [r9, #-16]
 80147b6:	ee36 7ae9 	vsub.f32	s14, s13, s19
 80147ba:	ee74 4ac5 	vsub.f32	s9, s9, s10
 80147be:	ed59 6a03 	vldr	s13, [r9, #-12]
 80147c2:	ee34 4a61 	vsub.f32	s8, s8, s3
 80147c6:	ee36 6a41 	vsub.f32	s12, s12, s2
 80147ca:	ee67 8a63 	vnmul.f32	s17, s14, s7
 80147ce:	ee66 9a26 	vmul.f32	s19, s12, s13
 80147d2:	ee24 9a23 	vmul.f32	s18, s8, s7
 80147d6:	ee26 6a23 	vmul.f32	s12, s12, s7
 80147da:	ee24 4a26 	vmul.f32	s8, s8, s13
 80147de:	ee27 7a26 	vmul.f32	s14, s14, s13
 80147e2:	ee64 6aa6 	vmul.f32	s13, s9, s13
 80147e6:	ee64 4aa3 	vmul.f32	s9, s9, s7
 80147ea:	ee36 6a44 	vsub.f32	s12, s12, s8
 80147ee:	ee37 7a64 	vsub.f32	s14, s14, s9
 80147f2:	ee38 4ae6 	vsub.f32	s8, s17, s13
 80147f6:	ee79 3a29 	vadd.f32	s7, s18, s19
 80147fa:	ee75 6a60 	vsub.f32	s13, s10, s1
 80147fe:	ee75 5ac8 	vsub.f32	s11, s11, s16
 8014802:	ee77 7a80 	vadd.f32	s15, s15, s0
 8014806:	ed45 3a02 	vstr	s7, [r5, #-8]
 801480a:	ed05 6a01 	vstr	s12, [r5, #-4]
 801480e:	ed84 7a01 	vstr	s14, [r4, #4]
 8014812:	ed84 4a02 	vstr	s8, [r4, #8]
 8014816:	ee35 6a81 	vadd.f32	s12, s11, s2
 801481a:	ee36 7ac2 	vsub.f32	s14, s13, s4
 801481e:	ed58 5a06 	vldr	s11, [r8, #-24]	; 0xffffffe8
 8014822:	ed58 6a05 	vldr	s13, [r8, #-20]	; 0xffffffec
 8014826:	ee33 3a62 	vsub.f32	s6, s6, s5
 801482a:	ee77 7ae1 	vsub.f32	s15, s15, s3
 801482e:	ee67 2a26 	vmul.f32	s5, s14, s13
 8014832:	ee67 4aa6 	vmul.f32	s9, s15, s13
 8014836:	ee26 5a25 	vmul.f32	s10, s12, s11
 801483a:	ee67 7aa5 	vmul.f32	s15, s15, s11
 801483e:	ee26 6a26 	vmul.f32	s12, s12, s13
 8014842:	ee27 7a25 	vmul.f32	s14, s14, s11
 8014846:	ee63 6a26 	vmul.f32	s13, s6, s13
 801484a:	ee23 3a25 	vmul.f32	s6, s6, s11
 801484e:	ee77 7ac6 	vsub.f32	s15, s15, s12
 8014852:	ee75 5a24 	vadd.f32	s11, s10, s9
 8014856:	ee32 3ac3 	vsub.f32	s6, s5, s6
 801485a:	ee36 7a87 	vadd.f32	s14, s13, s14
 801485e:	f1bb 0b01 	subs.w	fp, fp, #1
 8014862:	ed42 5a02 	vstr	s11, [r2, #-8]
 8014866:	ed42 7a01 	vstr	s15, [r2, #-4]
 801486a:	f10e 0e08 	add.w	lr, lr, #8
 801486e:	ed83 3a02 	vstr	s6, [r3, #8]
 8014872:	ed83 7a01 	vstr	s14, [r3, #4]
 8014876:	f1ac 0c08 	sub.w	ip, ip, #8
 801487a:	f10a 0a08 	add.w	sl, sl, #8
 801487e:	f100 0008 	add.w	r0, r0, #8
 8014882:	f1a1 0108 	sub.w	r1, r1, #8
 8014886:	f109 0910 	add.w	r9, r9, #16
 801488a:	f105 0508 	add.w	r5, r5, #8
 801488e:	f1a4 0408 	sub.w	r4, r4, #8
 8014892:	f108 0818 	add.w	r8, r8, #24
 8014896:	f102 0208 	add.w	r2, r2, #8
 801489a:	f1a3 0308 	sub.w	r3, r3, #8
 801489e:	f47f aefc 	bne.w	801469a <arm_cfft_radix8by4_f32+0x12e>
 80148a2:	9907      	ldr	r1, [sp, #28]
 80148a4:	9800      	ldr	r0, [sp, #0]
 80148a6:	00cb      	lsls	r3, r1, #3
 80148a8:	eb01 0241 	add.w	r2, r1, r1, lsl #1
 80148ac:	eb00 1101 	add.w	r1, r0, r1, lsl #4
 80148b0:	9100      	str	r1, [sp, #0]
 80148b2:	9904      	ldr	r1, [sp, #16]
 80148b4:	4419      	add	r1, r3
 80148b6:	9104      	str	r1, [sp, #16]
 80148b8:	9903      	ldr	r1, [sp, #12]
 80148ba:	4419      	add	r1, r3
 80148bc:	9103      	str	r1, [sp, #12]
 80148be:	9906      	ldr	r1, [sp, #24]
 80148c0:	4419      	add	r1, r3
 80148c2:	9106      	str	r1, [sp, #24]
 80148c4:	9905      	ldr	r1, [sp, #20]
 80148c6:	441f      	add	r7, r3
 80148c8:	4419      	add	r1, r3
 80148ca:	9b02      	ldr	r3, [sp, #8]
 80148cc:	9105      	str	r1, [sp, #20]
 80148ce:	eb03 03c2 	add.w	r3, r3, r2, lsl #3
 80148d2:	9302      	str	r3, [sp, #8]
 80148d4:	9904      	ldr	r1, [sp, #16]
 80148d6:	9805      	ldr	r0, [sp, #20]
 80148d8:	ed91 4a00 	vldr	s8, [r1]
 80148dc:	edd0 6a00 	vldr	s13, [r0]
 80148e0:	9b06      	ldr	r3, [sp, #24]
 80148e2:	ed97 3a00 	vldr	s6, [r7]
 80148e6:	edd3 7a00 	vldr	s15, [r3]
 80148ea:	edd0 4a01 	vldr	s9, [r0, #4]
 80148ee:	edd1 3a01 	vldr	s7, [r1, #4]
 80148f2:	ed97 2a01 	vldr	s4, [r7, #4]
 80148f6:	ed93 7a01 	vldr	s14, [r3, #4]
 80148fa:	9a03      	ldr	r2, [sp, #12]
 80148fc:	f8bd 4024 	ldrh.w	r4, [sp, #36]	; 0x24
 8014900:	ee34 6a26 	vadd.f32	s12, s8, s13
 8014904:	ee73 5aa4 	vadd.f32	s11, s7, s9
 8014908:	ee37 5a86 	vadd.f32	s10, s15, s12
 801490c:	ee73 3ae4 	vsub.f32	s7, s7, s9
 8014910:	ee35 5a03 	vadd.f32	s10, s10, s6
 8014914:	ee74 6a66 	vsub.f32	s13, s8, s13
 8014918:	ed81 5a00 	vstr	s10, [r1]
 801491c:	ed93 5a01 	vldr	s10, [r3, #4]
 8014920:	edd7 4a01 	vldr	s9, [r7, #4]
 8014924:	ee35 5a85 	vadd.f32	s10, s11, s10
 8014928:	ee37 4a26 	vadd.f32	s8, s14, s13
 801492c:	ee35 5a24 	vadd.f32	s10, s10, s9
 8014930:	ee73 4ae7 	vsub.f32	s9, s7, s15
 8014934:	ed81 5a01 	vstr	s10, [r1, #4]
 8014938:	edd2 1a00 	vldr	s3, [r2]
 801493c:	edd2 2a01 	vldr	s5, [r2, #4]
 8014940:	ee34 5a83 	vadd.f32	s10, s9, s6
 8014944:	ee34 4a42 	vsub.f32	s8, s8, s4
 8014948:	ee36 6a67 	vsub.f32	s12, s12, s15
 801494c:	ee64 4a21 	vmul.f32	s9, s8, s3
 8014950:	ee24 4a22 	vmul.f32	s8, s8, s5
 8014954:	ee65 2a22 	vmul.f32	s5, s10, s5
 8014958:	ee25 5a21 	vmul.f32	s10, s10, s3
 801495c:	ee74 2aa2 	vadd.f32	s5, s9, s5
 8014960:	ee35 5a44 	vsub.f32	s10, s10, s8
 8014964:	edc3 2a00 	vstr	s5, [r3]
 8014968:	ed83 5a01 	vstr	s10, [r3, #4]
 801496c:	ee75 5ac7 	vsub.f32	s11, s11, s14
 8014970:	9b00      	ldr	r3, [sp, #0]
 8014972:	ee36 6a43 	vsub.f32	s12, s12, s6
 8014976:	ed93 4a01 	vldr	s8, [r3, #4]
 801497a:	ed93 5a00 	vldr	s10, [r3]
 801497e:	9b02      	ldr	r3, [sp, #8]
 8014980:	ee75 5ac2 	vsub.f32	s11, s11, s4
 8014984:	ee66 4a05 	vmul.f32	s9, s12, s10
 8014988:	ee25 5a85 	vmul.f32	s10, s11, s10
 801498c:	ee26 6a04 	vmul.f32	s12, s12, s8
 8014990:	ee65 5a84 	vmul.f32	s11, s11, s8
 8014994:	ee35 6a46 	vsub.f32	s12, s10, s12
 8014998:	ee74 5aa5 	vadd.f32	s11, s9, s11
 801499c:	ee77 7aa3 	vadd.f32	s15, s15, s7
 80149a0:	ee36 7ac7 	vsub.f32	s14, s13, s14
 80149a4:	ed80 6a01 	vstr	s12, [r0, #4]
 80149a8:	edc0 5a00 	vstr	s11, [r0]
 80149ac:	edd3 5a01 	vldr	s11, [r3, #4]
 80149b0:	edd3 6a00 	vldr	s13, [r3]
 80149b4:	ee37 7a02 	vadd.f32	s14, s14, s4
 80149b8:	ee77 7ac3 	vsub.f32	s15, s15, s6
 80149bc:	ee27 6a26 	vmul.f32	s12, s14, s13
 80149c0:	ee67 6aa6 	vmul.f32	s13, s15, s13
 80149c4:	ee27 7a25 	vmul.f32	s14, s14, s11
 80149c8:	ee67 7aa5 	vmul.f32	s15, s15, s11
 80149cc:	ee36 7ac7 	vsub.f32	s14, s13, s14
 80149d0:	ee76 7a27 	vadd.f32	s15, s12, s15
 80149d4:	ed87 7a01 	vstr	s14, [r7, #4]
 80149d8:	edc7 7a00 	vstr	s15, [r7]
 80149dc:	e9dd 500a 	ldrd	r5, r0, [sp, #40]	; 0x28
 80149e0:	4621      	mov	r1, r4
 80149e2:	686a      	ldr	r2, [r5, #4]
 80149e4:	2304      	movs	r3, #4
 80149e6:	f000 f9d3 	bl	8014d90 <arm_radix8_butterfly_f32>
 80149ea:	4630      	mov	r0, r6
 80149ec:	4621      	mov	r1, r4
 80149ee:	686a      	ldr	r2, [r5, #4]
 80149f0:	2304      	movs	r3, #4
 80149f2:	f000 f9cd 	bl	8014d90 <arm_radix8_butterfly_f32>
 80149f6:	9808      	ldr	r0, [sp, #32]
 80149f8:	686a      	ldr	r2, [r5, #4]
 80149fa:	4621      	mov	r1, r4
 80149fc:	2304      	movs	r3, #4
 80149fe:	f000 f9c7 	bl	8014d90 <arm_radix8_butterfly_f32>
 8014a02:	686a      	ldr	r2, [r5, #4]
 8014a04:	9801      	ldr	r0, [sp, #4]
 8014a06:	4621      	mov	r1, r4
 8014a08:	2304      	movs	r3, #4
 8014a0a:	b00d      	add	sp, #52	; 0x34
 8014a0c:	ecbd 8b0a 	vpop	{d8-d12}
 8014a10:	e8bd 4ff0 	ldmia.w	sp!, {r4, r5, r6, r7, r8, r9, sl, fp, lr}
 8014a14:	f000 b9bc 	b.w	8014d90 <arm_radix8_butterfly_f32>

08014a18 <arm_cfft_f32>:
 8014a18:	e92d 41f0 	stmdb	sp!, {r4, r5, r6, r7, r8, lr}
 8014a1c:	2a01      	cmp	r2, #1
 8014a1e:	4606      	mov	r6, r0
 8014a20:	4617      	mov	r7, r2
 8014a22:	460c      	mov	r4, r1
 8014a24:	4698      	mov	r8, r3
 8014a26:	8805      	ldrh	r5, [r0, #0]
 8014a28:	d056      	beq.n	8014ad8 <arm_cfft_f32+0xc0>
 8014a2a:	f5b5 7f80 	cmp.w	r5, #256	; 0x100
 8014a2e:	d063      	beq.n	8014af8 <arm_cfft_f32+0xe0>
 8014a30:	d916      	bls.n	8014a60 <arm_cfft_f32+0x48>
 8014a32:	f5b5 6f80 	cmp.w	r5, #1024	; 0x400
 8014a36:	d01a      	beq.n	8014a6e <arm_cfft_f32+0x56>
 8014a38:	d947      	bls.n	8014aca <arm_cfft_f32+0xb2>
 8014a3a:	f5b5 6f00 	cmp.w	r5, #2048	; 0x800
 8014a3e:	d05b      	beq.n	8014af8 <arm_cfft_f32+0xe0>
 8014a40:	f5b5 5f80 	cmp.w	r5, #4096	; 0x1000
 8014a44:	d105      	bne.n	8014a52 <arm_cfft_f32+0x3a>
 8014a46:	2301      	movs	r3, #1
 8014a48:	6872      	ldr	r2, [r6, #4]
 8014a4a:	4629      	mov	r1, r5
 8014a4c:	4620      	mov	r0, r4
 8014a4e:	f000 f99f 	bl	8014d90 <arm_radix8_butterfly_f32>
 8014a52:	f1b8 0f00 	cmp.w	r8, #0
 8014a56:	d111      	bne.n	8014a7c <arm_cfft_f32+0x64>
 8014a58:	2f01      	cmp	r7, #1
 8014a5a:	d016      	beq.n	8014a8a <arm_cfft_f32+0x72>
 8014a5c:	e8bd 81f0 	ldmia.w	sp!, {r4, r5, r6, r7, r8, pc}
 8014a60:	2d20      	cmp	r5, #32
 8014a62:	d049      	beq.n	8014af8 <arm_cfft_f32+0xe0>
 8014a64:	d935      	bls.n	8014ad2 <arm_cfft_f32+0xba>
 8014a66:	2d40      	cmp	r5, #64	; 0x40
 8014a68:	d0ed      	beq.n	8014a46 <arm_cfft_f32+0x2e>
 8014a6a:	2d80      	cmp	r5, #128	; 0x80
 8014a6c:	d1f1      	bne.n	8014a52 <arm_cfft_f32+0x3a>
 8014a6e:	4621      	mov	r1, r4
 8014a70:	4630      	mov	r0, r6
 8014a72:	f7ff fcab 	bl	80143cc <arm_cfft_radix8by2_f32>
 8014a76:	f1b8 0f00 	cmp.w	r8, #0
 8014a7a:	d0ed      	beq.n	8014a58 <arm_cfft_f32+0x40>
 8014a7c:	68b2      	ldr	r2, [r6, #8]
 8014a7e:	89b1      	ldrh	r1, [r6, #12]
 8014a80:	4620      	mov	r0, r4
 8014a82:	f000 f841 	bl	8014b08 <arm_bitreversal_32>
 8014a86:	2f01      	cmp	r7, #1
 8014a88:	d1e8      	bne.n	8014a5c <arm_cfft_f32+0x44>
 8014a8a:	ee07 5a90 	vmov	s15, r5
 8014a8e:	eef8 7a67 	vcvt.f32.u32	s15, s15
 8014a92:	eeb7 7a00 	vmov.f32	s14, #112	; 0x3f800000  1.0
 8014a96:	eec7 6a27 	vdiv.f32	s13, s14, s15
 8014a9a:	2d00      	cmp	r5, #0
 8014a9c:	d0de      	beq.n	8014a5c <arm_cfft_f32+0x44>
 8014a9e:	f104 0108 	add.w	r1, r4, #8
 8014aa2:	2300      	movs	r3, #0
 8014aa4:	3301      	adds	r3, #1
 8014aa6:	429d      	cmp	r5, r3
 8014aa8:	f101 0108 	add.w	r1, r1, #8
 8014aac:	ed11 7a04 	vldr	s14, [r1, #-16]
 8014ab0:	ed51 7a03 	vldr	s15, [r1, #-12]
 8014ab4:	ee27 7a26 	vmul.f32	s14, s14, s13
 8014ab8:	ee67 7ae6 	vnmul.f32	s15, s15, s13
 8014abc:	ed01 7a04 	vstr	s14, [r1, #-16]
 8014ac0:	ed41 7a03 	vstr	s15, [r1, #-12]
 8014ac4:	d1ee      	bne.n	8014aa4 <arm_cfft_f32+0x8c>
 8014ac6:	e8bd 81f0 	ldmia.w	sp!, {r4, r5, r6, r7, r8, pc}
 8014aca:	f5b5 7f00 	cmp.w	r5, #512	; 0x200
 8014ace:	d0ba      	beq.n	8014a46 <arm_cfft_f32+0x2e>
 8014ad0:	e7bf      	b.n	8014a52 <arm_cfft_f32+0x3a>
 8014ad2:	2d10      	cmp	r5, #16
 8014ad4:	d0cb      	beq.n	8014a6e <arm_cfft_f32+0x56>
 8014ad6:	e7bc      	b.n	8014a52 <arm_cfft_f32+0x3a>
 8014ad8:	b19d      	cbz	r5, 8014b02 <arm_cfft_f32+0xea>
 8014ada:	f101 030c 	add.w	r3, r1, #12
 8014ade:	2200      	movs	r2, #0
 8014ae0:	ed53 7a02 	vldr	s15, [r3, #-8]
 8014ae4:	3201      	adds	r2, #1
 8014ae6:	eef1 7a67 	vneg.f32	s15, s15
 8014aea:	4295      	cmp	r5, r2
 8014aec:	ed43 7a02 	vstr	s15, [r3, #-8]
 8014af0:	f103 0308 	add.w	r3, r3, #8
 8014af4:	d1f4      	bne.n	8014ae0 <arm_cfft_f32+0xc8>
 8014af6:	e798      	b.n	8014a2a <arm_cfft_f32+0x12>
 8014af8:	4621      	mov	r1, r4
 8014afa:	4630      	mov	r0, r6
 8014afc:	f7ff fd36 	bl	801456c <arm_cfft_radix8by4_f32>
 8014b00:	e7a7      	b.n	8014a52 <arm_cfft_f32+0x3a>
 8014b02:	2b00      	cmp	r3, #0
 8014b04:	d0aa      	beq.n	8014a5c <arm_cfft_f32+0x44>
 8014b06:	e7b9      	b.n	8014a7c <arm_cfft_f32+0x64>

08014b08 <arm_bitreversal_32>:
 8014b08:	b1e9      	cbz	r1, 8014b46 <arm_bitreversal_32+0x3e>
 8014b0a:	b5f0      	push	{r4, r5, r6, r7, lr}
 8014b0c:	2500      	movs	r5, #0
 8014b0e:	f102 0e02 	add.w	lr, r2, #2
 8014b12:	f83e 4015 	ldrh.w	r4, [lr, r5, lsl #1]
 8014b16:	f832 3015 	ldrh.w	r3, [r2, r5, lsl #1]
 8014b1a:	08a4      	lsrs	r4, r4, #2
 8014b1c:	089b      	lsrs	r3, r3, #2
 8014b1e:	f850 6024 	ldr.w	r6, [r0, r4, lsl #2]
 8014b22:	f850 c023 	ldr.w	ip, [r0, r3, lsl #2]
 8014b26:	f840 6023 	str.w	r6, [r0, r3, lsl #2]
 8014b2a:	00a6      	lsls	r6, r4, #2
 8014b2c:	009b      	lsls	r3, r3, #2
 8014b2e:	f840 c024 	str.w	ip, [r0, r4, lsl #2]
 8014b32:	3304      	adds	r3, #4
 8014b34:	1d34      	adds	r4, r6, #4
 8014b36:	3502      	adds	r5, #2
 8014b38:	58c6      	ldr	r6, [r0, r3]
 8014b3a:	5907      	ldr	r7, [r0, r4]
 8014b3c:	50c7      	str	r7, [r0, r3]
 8014b3e:	428d      	cmp	r5, r1
 8014b40:	5106      	str	r6, [r0, r4]
 8014b42:	d3e6      	bcc.n	8014b12 <arm_bitreversal_32+0xa>
 8014b44:	bdf0      	pop	{r4, r5, r6, r7, pc}
 8014b46:	4770      	bx	lr

08014b48 <arm_cmplx_mag_f32>:
 8014b48:	e92d 41f0 	stmdb	sp!, {r4, r5, r6, r7, r8, lr}
 8014b4c:	ed2d 8b02 	vpush	{d8}
 8014b50:	0897      	lsrs	r7, r2, #2
 8014b52:	b084      	sub	sp, #16
 8014b54:	d077      	beq.n	8014c46 <arm_cmplx_mag_f32+0xfe>
 8014b56:	f04f 0800 	mov.w	r8, #0
 8014b5a:	f100 0420 	add.w	r4, r0, #32
 8014b5e:	f101 0510 	add.w	r5, r1, #16
 8014b62:	463e      	mov	r6, r7
 8014b64:	ed14 0a08 	vldr	s0, [r4, #-32]	; 0xffffffe0
 8014b68:	ed54 7a07 	vldr	s15, [r4, #-28]	; 0xffffffe4
 8014b6c:	ee20 0a00 	vmul.f32	s0, s0, s0
 8014b70:	ee67 7aa7 	vmul.f32	s15, s15, s15
 8014b74:	ee30 0a27 	vadd.f32	s0, s0, s15
 8014b78:	eeb5 0ac0 	vcmpe.f32	s0, #0.0
 8014b7c:	eef1 fa10 	vmrs	APSR_nzcv, fpscr
 8014b80:	f2c0 80c5 	blt.w	8014d0e <arm_cmplx_mag_f32+0x1c6>
 8014b84:	eeb5 0a40 	vcmp.f32	s0, #0.0
 8014b88:	eef1 fa10 	vmrs	APSR_nzcv, fpscr
 8014b8c:	eeb1 8ac0 	vsqrt.f32	s16, s0
 8014b90:	f100 80cb 	bmi.w	8014d2a <arm_cmplx_mag_f32+0x1e2>
 8014b94:	ed05 8a04 	vstr	s16, [r5, #-16]
 8014b98:	ed14 0a06 	vldr	s0, [r4, #-24]	; 0xffffffe8
 8014b9c:	ed54 7a05 	vldr	s15, [r4, #-20]	; 0xffffffec
 8014ba0:	ee20 0a00 	vmul.f32	s0, s0, s0
 8014ba4:	ee67 7aa7 	vmul.f32	s15, s15, s15
 8014ba8:	ee30 0a27 	vadd.f32	s0, s0, s15
 8014bac:	eeb5 0ac0 	vcmpe.f32	s0, #0.0
 8014bb0:	eef1 fa10 	vmrs	APSR_nzcv, fpscr
 8014bb4:	f2c0 80a8 	blt.w	8014d08 <arm_cmplx_mag_f32+0x1c0>
 8014bb8:	eeb5 0a40 	vcmp.f32	s0, #0.0
 8014bbc:	eef1 fa10 	vmrs	APSR_nzcv, fpscr
 8014bc0:	eeb1 8ac0 	vsqrt.f32	s16, s0
 8014bc4:	f100 80a8 	bmi.w	8014d18 <arm_cmplx_mag_f32+0x1d0>
 8014bc8:	ed05 8a03 	vstr	s16, [r5, #-12]
 8014bcc:	ed14 0a04 	vldr	s0, [r4, #-16]
 8014bd0:	ed54 7a03 	vldr	s15, [r4, #-12]
 8014bd4:	ee20 0a00 	vmul.f32	s0, s0, s0
 8014bd8:	ee67 7aa7 	vmul.f32	s15, s15, s15
 8014bdc:	ee30 0a27 	vadd.f32	s0, s0, s15
 8014be0:	eeb5 0ac0 	vcmpe.f32	s0, #0.0
 8014be4:	eef1 fa10 	vmrs	APSR_nzcv, fpscr
 8014be8:	f2c0 808b 	blt.w	8014d02 <arm_cmplx_mag_f32+0x1ba>
 8014bec:	eeb5 0a40 	vcmp.f32	s0, #0.0
 8014bf0:	eef1 fa10 	vmrs	APSR_nzcv, fpscr
 8014bf4:	eeb1 8ac0 	vsqrt.f32	s16, s0
 8014bf8:	f100 80a9 	bmi.w	8014d4e <arm_cmplx_mag_f32+0x206>
 8014bfc:	ed05 8a02 	vstr	s16, [r5, #-8]
 8014c00:	ed14 0a02 	vldr	s0, [r4, #-8]
 8014c04:	ed54 7a01 	vldr	s15, [r4, #-4]
 8014c08:	ee20 0a00 	vmul.f32	s0, s0, s0
 8014c0c:	ee67 7aa7 	vmul.f32	s15, s15, s15
 8014c10:	ee30 0a27 	vadd.f32	s0, s0, s15
 8014c14:	eeb5 0ac0 	vcmpe.f32	s0, #0.0
 8014c18:	eef1 fa10 	vmrs	APSR_nzcv, fpscr
 8014c1c:	db6e      	blt.n	8014cfc <arm_cmplx_mag_f32+0x1b4>
 8014c1e:	eeb5 0a40 	vcmp.f32	s0, #0.0
 8014c22:	eef1 fa10 	vmrs	APSR_nzcv, fpscr
 8014c26:	eeb1 8ac0 	vsqrt.f32	s16, s0
 8014c2a:	f100 8087 	bmi.w	8014d3c <arm_cmplx_mag_f32+0x1f4>
 8014c2e:	ed05 8a01 	vstr	s16, [r5, #-4]
 8014c32:	3e01      	subs	r6, #1
 8014c34:	f104 0420 	add.w	r4, r4, #32
 8014c38:	f105 0510 	add.w	r5, r5, #16
 8014c3c:	d192      	bne.n	8014b64 <arm_cmplx_mag_f32+0x1c>
 8014c3e:	eb00 1047 	add.w	r0, r0, r7, lsl #5
 8014c42:	eb01 1107 	add.w	r1, r1, r7, lsl #4
 8014c46:	f012 0203 	ands.w	r2, r2, #3
 8014c4a:	d052      	beq.n	8014cf2 <arm_cmplx_mag_f32+0x1aa>
 8014c4c:	ed90 0a00 	vldr	s0, [r0]
 8014c50:	edd0 7a01 	vldr	s15, [r0, #4]
 8014c54:	ee20 0a00 	vmul.f32	s0, s0, s0
 8014c58:	ee67 7aa7 	vmul.f32	s15, s15, s15
 8014c5c:	2300      	movs	r3, #0
 8014c5e:	ee37 0a80 	vadd.f32	s0, s15, s0
 8014c62:	eeb5 0ac0 	vcmpe.f32	s0, #0.0
 8014c66:	eef1 fa10 	vmrs	APSR_nzcv, fpscr
 8014c6a:	bfb8      	it	lt
 8014c6c:	600b      	strlt	r3, [r1, #0]
 8014c6e:	db08      	blt.n	8014c82 <arm_cmplx_mag_f32+0x13a>
 8014c70:	eeb5 0a40 	vcmp.f32	s0, #0.0
 8014c74:	eef1 fa10 	vmrs	APSR_nzcv, fpscr
 8014c78:	eeb1 8ac0 	vsqrt.f32	s16, s0
 8014c7c:	d479      	bmi.n	8014d72 <arm_cmplx_mag_f32+0x22a>
 8014c7e:	ed81 8a00 	vstr	s16, [r1]
 8014c82:	3a01      	subs	r2, #1
 8014c84:	d035      	beq.n	8014cf2 <arm_cmplx_mag_f32+0x1aa>
 8014c86:	ed90 0a02 	vldr	s0, [r0, #8]
 8014c8a:	edd0 7a03 	vldr	s15, [r0, #12]
 8014c8e:	ee20 0a00 	vmul.f32	s0, s0, s0
 8014c92:	ee67 7aa7 	vmul.f32	s15, s15, s15
 8014c96:	2300      	movs	r3, #0
 8014c98:	ee37 0a80 	vadd.f32	s0, s15, s0
 8014c9c:	eeb5 0ac0 	vcmpe.f32	s0, #0.0
 8014ca0:	eef1 fa10 	vmrs	APSR_nzcv, fpscr
 8014ca4:	bfb8      	it	lt
 8014ca6:	604b      	strlt	r3, [r1, #4]
 8014ca8:	db08      	blt.n	8014cbc <arm_cmplx_mag_f32+0x174>
 8014caa:	eeb5 0a40 	vcmp.f32	s0, #0.0
 8014cae:	eef1 fa10 	vmrs	APSR_nzcv, fpscr
 8014cb2:	eeb1 8ac0 	vsqrt.f32	s16, s0
 8014cb6:	d453      	bmi.n	8014d60 <arm_cmplx_mag_f32+0x218>
 8014cb8:	ed81 8a01 	vstr	s16, [r1, #4]
 8014cbc:	2a01      	cmp	r2, #1
 8014cbe:	d018      	beq.n	8014cf2 <arm_cmplx_mag_f32+0x1aa>
 8014cc0:	ed90 0a04 	vldr	s0, [r0, #16]
 8014cc4:	edd0 7a05 	vldr	s15, [r0, #20]
 8014cc8:	ee20 0a00 	vmul.f32	s0, s0, s0
 8014ccc:	ee67 7aa7 	vmul.f32	s15, s15, s15
 8014cd0:	2300      	movs	r3, #0
 8014cd2:	ee30 0a27 	vadd.f32	s0, s0, s15
 8014cd6:	eeb5 0ac0 	vcmpe.f32	s0, #0.0
 8014cda:	eef1 fa10 	vmrs	APSR_nzcv, fpscr
 8014cde:	db19      	blt.n	8014d14 <arm_cmplx_mag_f32+0x1cc>
 8014ce0:	eeb5 0a40 	vcmp.f32	s0, #0.0
 8014ce4:	eef1 fa10 	vmrs	APSR_nzcv, fpscr
 8014ce8:	eeb1 8ac0 	vsqrt.f32	s16, s0
 8014cec:	d44a      	bmi.n	8014d84 <arm_cmplx_mag_f32+0x23c>
 8014cee:	ed81 8a02 	vstr	s16, [r1, #8]
 8014cf2:	b004      	add	sp, #16
 8014cf4:	ecbd 8b02 	vpop	{d8}
 8014cf8:	e8bd 81f0 	ldmia.w	sp!, {r4, r5, r6, r7, r8, pc}
 8014cfc:	f845 8c04 	str.w	r8, [r5, #-4]
 8014d00:	e797      	b.n	8014c32 <arm_cmplx_mag_f32+0xea>
 8014d02:	f845 8c08 	str.w	r8, [r5, #-8]
 8014d06:	e77b      	b.n	8014c00 <arm_cmplx_mag_f32+0xb8>
 8014d08:	f845 8c0c 	str.w	r8, [r5, #-12]
 8014d0c:	e75e      	b.n	8014bcc <arm_cmplx_mag_f32+0x84>
 8014d0e:	f845 8c10 	str.w	r8, [r5, #-16]
 8014d12:	e741      	b.n	8014b98 <arm_cmplx_mag_f32+0x50>
 8014d14:	608b      	str	r3, [r1, #8]
 8014d16:	e7ec      	b.n	8014cf2 <arm_cmplx_mag_f32+0x1aa>
 8014d18:	e9cd 1202 	strd	r1, r2, [sp, #8]
 8014d1c:	9001      	str	r0, [sp, #4]
 8014d1e:	f000 fb77 	bl	8015410 <sqrtf>
 8014d22:	e9dd 1202 	ldrd	r1, r2, [sp, #8]
 8014d26:	9801      	ldr	r0, [sp, #4]
 8014d28:	e74e      	b.n	8014bc8 <arm_cmplx_mag_f32+0x80>
 8014d2a:	e9cd 1202 	strd	r1, r2, [sp, #8]
 8014d2e:	9001      	str	r0, [sp, #4]
 8014d30:	f000 fb6e 	bl	8015410 <sqrtf>
 8014d34:	e9dd 1202 	ldrd	r1, r2, [sp, #8]
 8014d38:	9801      	ldr	r0, [sp, #4]
 8014d3a:	e72b      	b.n	8014b94 <arm_cmplx_mag_f32+0x4c>
 8014d3c:	e9cd 1202 	strd	r1, r2, [sp, #8]
 8014d40:	9001      	str	r0, [sp, #4]
 8014d42:	f000 fb65 	bl	8015410 <sqrtf>
 8014d46:	e9dd 1202 	ldrd	r1, r2, [sp, #8]
 8014d4a:	9801      	ldr	r0, [sp, #4]
 8014d4c:	e76f      	b.n	8014c2e <arm_cmplx_mag_f32+0xe6>
 8014d4e:	e9cd 1202 	strd	r1, r2, [sp, #8]
 8014d52:	9001      	str	r0, [sp, #4]
 8014d54:	f000 fb5c 	bl	8015410 <sqrtf>
 8014d58:	e9dd 1202 	ldrd	r1, r2, [sp, #8]
 8014d5c:	9801      	ldr	r0, [sp, #4]
 8014d5e:	e74d      	b.n	8014bfc <arm_cmplx_mag_f32+0xb4>
 8014d60:	e9cd 0102 	strd	r0, r1, [sp, #8]
 8014d64:	9201      	str	r2, [sp, #4]
 8014d66:	f000 fb53 	bl	8015410 <sqrtf>
 8014d6a:	e9dd 2001 	ldrd	r2, r0, [sp, #4]
 8014d6e:	9903      	ldr	r1, [sp, #12]
 8014d70:	e7a2      	b.n	8014cb8 <arm_cmplx_mag_f32+0x170>
 8014d72:	e9cd 0102 	strd	r0, r1, [sp, #8]
 8014d76:	9201      	str	r2, [sp, #4]
 8014d78:	f000 fb4a 	bl	8015410 <sqrtf>
 8014d7c:	e9dd 2001 	ldrd	r2, r0, [sp, #4]
 8014d80:	9903      	ldr	r1, [sp, #12]
 8014d82:	e77c      	b.n	8014c7e <arm_cmplx_mag_f32+0x136>
 8014d84:	9101      	str	r1, [sp, #4]
 8014d86:	f000 fb43 	bl	8015410 <sqrtf>
 8014d8a:	9901      	ldr	r1, [sp, #4]
 8014d8c:	e7af      	b.n	8014cee <arm_cmplx_mag_f32+0x1a6>
 8014d8e:	bf00      	nop

08014d90 <arm_radix8_butterfly_f32>:
 8014d90:	e92d 4ff0 	stmdb	sp!, {r4, r5, r6, r7, r8, r9, sl, fp, lr}
 8014d94:	ed2d 8b10 	vpush	{d8-d15}
 8014d98:	b095      	sub	sp, #84	; 0x54
 8014d9a:	e9cd 3210 	strd	r3, r2, [sp, #64]	; 0x40
 8014d9e:	4603      	mov	r3, r0
 8014da0:	3304      	adds	r3, #4
 8014da2:	ed9f bab9 	vldr	s22, [pc, #740]	; 8015088 <arm_radix8_butterfly_f32+0x2f8>
 8014da6:	9012      	str	r0, [sp, #72]	; 0x48
 8014da8:	468b      	mov	fp, r1
 8014daa:	9313      	str	r3, [sp, #76]	; 0x4c
 8014dac:	4689      	mov	r9, r1
 8014dae:	ea4f 06db 	mov.w	r6, fp, lsr #3
 8014db2:	9b12      	ldr	r3, [sp, #72]	; 0x48
 8014db4:	960f      	str	r6, [sp, #60]	; 0x3c
 8014db6:	ea4f 1846 	mov.w	r8, r6, lsl #5
 8014dba:	ea4f 0ec6 	mov.w	lr, r6, lsl #3
 8014dbe:	eb03 0508 	add.w	r5, r3, r8
 8014dc2:	ea4f 0a86 	mov.w	sl, r6, lsl #2
 8014dc6:	eb05 040e 	add.w	r4, r5, lr
 8014dca:	0137      	lsls	r7, r6, #4
 8014dcc:	eba6 030a 	sub.w	r3, r6, sl
 8014dd0:	eb04 000e 	add.w	r0, r4, lr
 8014dd4:	44b2      	add	sl, r6
 8014dd6:	1d3a      	adds	r2, r7, #4
 8014dd8:	9702      	str	r7, [sp, #8]
 8014dda:	eb00 03c3 	add.w	r3, r0, r3, lsl #3
 8014dde:	ea4f 07ca 	mov.w	r7, sl, lsl #3
 8014de2:	ebae 0c06 	sub.w	ip, lr, r6
 8014de6:	9703      	str	r7, [sp, #12]
 8014de8:	eb03 0708 	add.w	r7, r3, r8
 8014dec:	9701      	str	r7, [sp, #4]
 8014dee:	ea4f 07cc 	mov.w	r7, ip, lsl #3
 8014df2:	9706      	str	r7, [sp, #24]
 8014df4:	9f12      	ldr	r7, [sp, #72]	; 0x48
 8014df6:	eb06 0646 	add.w	r6, r6, r6, lsl #1
 8014dfa:	f10e 0104 	add.w	r1, lr, #4
 8014dfe:	4439      	add	r1, r7
 8014e00:	443a      	add	r2, r7
 8014e02:	0137      	lsls	r7, r6, #4
 8014e04:	00f6      	lsls	r6, r6, #3
 8014e06:	9704      	str	r7, [sp, #16]
 8014e08:	9605      	str	r6, [sp, #20]
 8014e0a:	9f01      	ldr	r7, [sp, #4]
 8014e0c:	9e13      	ldr	r6, [sp, #76]	; 0x4c
 8014e0e:	ea4f 0acb 	mov.w	sl, fp, lsl #3
 8014e12:	f04f 0c00 	mov.w	ip, #0
 8014e16:	edd4 6a00 	vldr	s13, [r4]
 8014e1a:	edd7 1a00 	vldr	s3, [r7]
 8014e1e:	ed16 aa01 	vldr	s20, [r6, #-4]
 8014e22:	edd5 5a00 	vldr	s11, [r5]
 8014e26:	ed52 9a01 	vldr	s19, [r2, #-4]
 8014e2a:	ed90 6a00 	vldr	s12, [r0]
 8014e2e:	ed51 7a01 	vldr	s15, [r1, #-4]
 8014e32:	ed93 3a00 	vldr	s6, [r3]
 8014e36:	ee39 0a86 	vadd.f32	s0, s19, s12
 8014e3a:	ee33 2a21 	vadd.f32	s4, s6, s3
 8014e3e:	ee37 5aa6 	vadd.f32	s10, s15, s13
 8014e42:	ee7a 4a25 	vadd.f32	s9, s20, s11
 8014e46:	ee35 7a02 	vadd.f32	s14, s10, s4
 8014e4a:	ee34 4a80 	vadd.f32	s8, s9, s0
 8014e4e:	ee77 7ae6 	vsub.f32	s15, s15, s13
 8014e52:	ee74 6a07 	vadd.f32	s13, s8, s14
 8014e56:	ee34 4a47 	vsub.f32	s8, s8, s14
 8014e5a:	ed46 6a01 	vstr	s13, [r6, #-4]
 8014e5e:	ed85 4a00 	vstr	s8, [r5]
 8014e62:	edd1 6a00 	vldr	s13, [r1]
 8014e66:	ed94 9a01 	vldr	s18, [r4, #4]
 8014e6a:	edd3 2a01 	vldr	s5, [r3, #4]
 8014e6e:	edd7 8a01 	vldr	s17, [r7, #4]
 8014e72:	edd6 0a00 	vldr	s1, [r6]
 8014e76:	edd5 3a01 	vldr	s7, [r5, #4]
 8014e7a:	ed90 8a01 	vldr	s16, [r0, #4]
 8014e7e:	ed92 7a00 	vldr	s14, [r2]
 8014e82:	ee33 3a61 	vsub.f32	s6, s6, s3
 8014e86:	ee36 4ac9 	vsub.f32	s8, s13, s18
 8014e8a:	ee72 aae8 	vsub.f32	s21, s5, s17
 8014e8e:	ee77 1ac3 	vsub.f32	s3, s15, s6
 8014e92:	ee34 1a2a 	vadd.f32	s2, s8, s21
 8014e96:	ee77 7a83 	vadd.f32	s15, s15, s6
 8014e9a:	ee34 4a6a 	vsub.f32	s8, s8, s21
 8014e9e:	ee30 3aa3 	vadd.f32	s6, s1, s7
 8014ea2:	ee39 6ac6 	vsub.f32	s12, s19, s12
 8014ea6:	ee70 3ae3 	vsub.f32	s7, s1, s7
 8014eaa:	ee72 2aa8 	vadd.f32	s5, s5, s17
 8014eae:	ee77 0a08 	vadd.f32	s1, s14, s16
 8014eb2:	ee21 1a0b 	vmul.f32	s2, s2, s22
 8014eb6:	ee37 7a48 	vsub.f32	s14, s14, s16
 8014eba:	ee61 1a8b 	vmul.f32	s3, s3, s22
 8014ebe:	ee7a 5a65 	vsub.f32	s11, s20, s11
 8014ec2:	ee76 6a89 	vadd.f32	s13, s13, s18
 8014ec6:	ee24 4a0b 	vmul.f32	s8, s8, s22
 8014eca:	ee67 7a8b 	vmul.f32	s15, s15, s22
 8014ece:	ee74 4ac0 	vsub.f32	s9, s9, s0
 8014ed2:	ee35 5a42 	vsub.f32	s10, s10, s4
 8014ed6:	ee36 0aa2 	vadd.f32	s0, s13, s5
 8014eda:	ee33 2a20 	vadd.f32	s4, s6, s1
 8014ede:	ee76 6ae2 	vsub.f32	s13, s13, s5
 8014ee2:	ee33 3a60 	vsub.f32	s6, s6, s1
 8014ee6:	ee75 2aa1 	vadd.f32	s5, s11, s3
 8014eea:	ee77 0a01 	vadd.f32	s1, s14, s2
 8014eee:	ee75 5ae1 	vsub.f32	s11, s11, s3
 8014ef2:	ee37 7a41 	vsub.f32	s14, s14, s2
 8014ef6:	ee73 1a84 	vadd.f32	s3, s7, s8
 8014efa:	ee33 4ac4 	vsub.f32	s8, s7, s8
 8014efe:	ee76 3a27 	vadd.f32	s7, s12, s15
 8014f02:	ee76 7a67 	vsub.f32	s15, s12, s15
 8014f06:	ee32 8a00 	vadd.f32	s16, s4, s0
 8014f0a:	ee33 1a45 	vsub.f32	s2, s6, s10
 8014f0e:	ee32 2a40 	vsub.f32	s4, s4, s0
 8014f12:	ee35 5a03 	vadd.f32	s10, s10, s6
 8014f16:	ee34 0aa6 	vadd.f32	s0, s9, s13
 8014f1a:	ee32 3aa0 	vadd.f32	s6, s5, s1
 8014f1e:	ee74 6ae6 	vsub.f32	s13, s9, s13
 8014f22:	ee34 6a67 	vsub.f32	s12, s8, s15
 8014f26:	ee75 4a87 	vadd.f32	s9, s11, s14
 8014f2a:	ee72 2ae0 	vsub.f32	s5, s5, s1
 8014f2e:	ee35 7ac7 	vsub.f32	s14, s11, s14
 8014f32:	ee77 7a84 	vadd.f32	s15, s15, s8
 8014f36:	ee71 5ae3 	vsub.f32	s11, s3, s7
 8014f3a:	44dc      	add	ip, fp
 8014f3c:	ee73 3aa1 	vadd.f32	s7, s7, s3
 8014f40:	45e1      	cmp	r9, ip
 8014f42:	ed86 8a00 	vstr	s16, [r6]
 8014f46:	ed85 2a01 	vstr	s4, [r5, #4]
 8014f4a:	4456      	add	r6, sl
 8014f4c:	ed02 0a01 	vstr	s0, [r2, #-4]
 8014f50:	4455      	add	r5, sl
 8014f52:	edc0 6a00 	vstr	s13, [r0]
 8014f56:	ed82 1a00 	vstr	s2, [r2]
 8014f5a:	ed80 5a01 	vstr	s10, [r0, #4]
 8014f5e:	4452      	add	r2, sl
 8014f60:	ed01 3a01 	vstr	s6, [r1, #-4]
 8014f64:	4450      	add	r0, sl
 8014f66:	edc7 2a00 	vstr	s5, [r7]
 8014f6a:	edc4 4a00 	vstr	s9, [r4]
 8014f6e:	ed83 7a00 	vstr	s14, [r3]
 8014f72:	edc1 5a00 	vstr	s11, [r1]
 8014f76:	edc7 3a01 	vstr	s7, [r7, #4]
 8014f7a:	4451      	add	r1, sl
 8014f7c:	ed84 6a01 	vstr	s12, [r4, #4]
 8014f80:	4457      	add	r7, sl
 8014f82:	edc3 7a01 	vstr	s15, [r3, #4]
 8014f86:	4454      	add	r4, sl
 8014f88:	4453      	add	r3, sl
 8014f8a:	f63f af44 	bhi.w	8014e16 <arm_radix8_butterfly_f32+0x86>
 8014f8e:	9b0f      	ldr	r3, [sp, #60]	; 0x3c
 8014f90:	2b07      	cmp	r3, #7
 8014f92:	f240 81b7 	bls.w	8015304 <arm_radix8_butterfly_f32+0x574>
 8014f96:	9b06      	ldr	r3, [sp, #24]
 8014f98:	9903      	ldr	r1, [sp, #12]
 8014f9a:	9812      	ldr	r0, [sp, #72]	; 0x48
 8014f9c:	9e05      	ldr	r6, [sp, #20]
 8014f9e:	9a04      	ldr	r2, [sp, #16]
 8014fa0:	f103 0c08 	add.w	ip, r3, #8
 8014fa4:	9b02      	ldr	r3, [sp, #8]
 8014fa6:	3108      	adds	r1, #8
 8014fa8:	f108 0808 	add.w	r8, r8, #8
 8014fac:	1841      	adds	r1, r0, r1
 8014fae:	3608      	adds	r6, #8
 8014fb0:	330c      	adds	r3, #12
 8014fb2:	4604      	mov	r4, r0
 8014fb4:	4444      	add	r4, r8
 8014fb6:	18c3      	adds	r3, r0, r3
 8014fb8:	9109      	str	r1, [sp, #36]	; 0x24
 8014fba:	1981      	adds	r1, r0, r6
 8014fbc:	f10e 0e08 	add.w	lr, lr, #8
 8014fc0:	3208      	adds	r2, #8
 8014fc2:	940b      	str	r4, [sp, #44]	; 0x2c
 8014fc4:	9107      	str	r1, [sp, #28]
 8014fc6:	4604      	mov	r4, r0
 8014fc8:	4601      	mov	r1, r0
 8014fca:	9304      	str	r3, [sp, #16]
 8014fcc:	f100 030c 	add.w	r3, r0, #12
 8014fd0:	4474      	add	r4, lr
 8014fd2:	f04f 0801 	mov.w	r8, #1
 8014fd6:	1882      	adds	r2, r0, r2
 8014fd8:	4461      	add	r1, ip
 8014fda:	9305      	str	r3, [sp, #20]
 8014fdc:	464b      	mov	r3, r9
 8014fde:	940a      	str	r4, [sp, #40]	; 0x28
 8014fe0:	46c1      	mov	r9, r8
 8014fe2:	9208      	str	r2, [sp, #32]
 8014fe4:	46d8      	mov	r8, fp
 8014fe6:	9106      	str	r1, [sp, #24]
 8014fe8:	f04f 0e00 	mov.w	lr, #0
 8014fec:	469b      	mov	fp, r3
 8014fee:	9b10      	ldr	r3, [sp, #64]	; 0x40
 8014ff0:	9a11      	ldr	r2, [sp, #68]	; 0x44
 8014ff2:	449e      	add	lr, r3
 8014ff4:	ea4f 03ce 	mov.w	r3, lr, lsl #3
 8014ff8:	441a      	add	r2, r3
 8014ffa:	920e      	str	r2, [sp, #56]	; 0x38
 8014ffc:	441a      	add	r2, r3
 8014ffe:	18d4      	adds	r4, r2, r3
 8015000:	18e5      	adds	r5, r4, r3
 8015002:	18ee      	adds	r6, r5, r3
 8015004:	18f7      	adds	r7, r6, r3
 8015006:	eb07 0c03 	add.w	ip, r7, r3
 801500a:	920d      	str	r2, [sp, #52]	; 0x34
 801500c:	ebae 028e 	sub.w	r2, lr, lr, lsl #2
 8015010:	eb0c 1102 	add.w	r1, ip, r2, lsl #4
 8015014:	910c      	str	r1, [sp, #48]	; 0x30
 8015016:	4419      	add	r1, r3
 8015018:	9103      	str	r1, [sp, #12]
 801501a:	4419      	add	r1, r3
 801501c:	18ca      	adds	r2, r1, r3
 801501e:	9202      	str	r2, [sp, #8]
 8015020:	441a      	add	r2, r3
 8015022:	18d0      	adds	r0, r2, r3
 8015024:	ed92 ea01 	vldr	s28, [r2, #4]
 8015028:	9a02      	ldr	r2, [sp, #8]
 801502a:	edd4 7a00 	vldr	s15, [r4]
 801502e:	edd2 da01 	vldr	s27, [r2, #4]
 8015032:	9a0c      	ldr	r2, [sp, #48]	; 0x30
 8015034:	ed91 da01 	vldr	s26, [r1, #4]
 8015038:	ed92 ca01 	vldr	s24, [r2, #4]
 801503c:	9a0d      	ldr	r2, [sp, #52]	; 0x34
 801503e:	9903      	ldr	r1, [sp, #12]
 8015040:	edcd 7a03 	vstr	s15, [sp, #12]
 8015044:	edd2 7a00 	vldr	s15, [r2]
 8015048:	9a0e      	ldr	r2, [sp, #56]	; 0x38
 801504a:	edcd 7a02 	vstr	s15, [sp, #8]
 801504e:	edd2 7a00 	vldr	s15, [r2]
 8015052:	edd0 ea01 	vldr	s29, [r0, #4]
 8015056:	edd1 ca01 	vldr	s25, [r1, #4]
 801505a:	eddc ba00 	vldr	s23, [ip]
 801505e:	edd7 aa00 	vldr	s21, [r7]
 8015062:	ed96 aa00 	vldr	s20, [r6]
 8015066:	edd5 9a00 	vldr	s19, [r5]
 801506a:	edcd 7a01 	vstr	s15, [sp, #4]
 801506e:	4403      	add	r3, r0
 8015070:	ed93 fa01 	vldr	s30, [r3, #4]
 8015074:	e9dd 7604 	ldrd	r7, r6, [sp, #16]
 8015078:	e9dd 5406 	ldrd	r5, r4, [sp, #24]
 801507c:	e9dd 0108 	ldrd	r0, r1, [sp, #32]
 8015080:	e9dd 230a 	ldrd	r2, r3, [sp, #40]	; 0x28
 8015084:	46cc      	mov	ip, r9
 8015086:	e001      	b.n	801508c <arm_radix8_butterfly_f32+0x2fc>
 8015088:	3f3504f3 	.word	0x3f3504f3
 801508c:	ed91 6a00 	vldr	s12, [r1]
 8015090:	ed93 5a00 	vldr	s10, [r3]
 8015094:	edd0 fa00 	vldr	s31, [r0]
 8015098:	edd4 7a00 	vldr	s15, [r4]
 801509c:	ed95 7a00 	vldr	s14, [r5]
 80150a0:	ed56 3a01 	vldr	s7, [r6, #-4]
 80150a4:	ed17 3a01 	vldr	s6, [r7, #-4]
 80150a8:	ed92 2a00 	vldr	s4, [r2]
 80150ac:	ed96 0a00 	vldr	s0, [r6]
 80150b0:	ee33 8a85 	vadd.f32	s16, s7, s10
 80150b4:	ee32 1a06 	vadd.f32	s2, s4, s12
 80150b8:	ee33 4a2f 	vadd.f32	s8, s6, s31
 80150bc:	ee77 4a87 	vadd.f32	s9, s15, s14
 80150c0:	ee78 1a04 	vadd.f32	s3, s16, s8
 80150c4:	ee71 6a24 	vadd.f32	s13, s2, s9
 80150c8:	ee32 2a46 	vsub.f32	s4, s4, s12
 80150cc:	ee31 6aa6 	vadd.f32	s12, s3, s13
 80150d0:	ee77 7ac7 	vsub.f32	s15, s15, s14
 80150d4:	ed06 6a01 	vstr	s12, [r6, #-4]
 80150d8:	edd4 8a01 	vldr	s17, [r4, #4]
 80150dc:	ed92 9a01 	vldr	s18, [r2, #4]
 80150e0:	edd7 0a00 	vldr	s1, [r7]
 80150e4:	edd1 2a01 	vldr	s5, [r1, #4]
 80150e8:	ed95 7a01 	vldr	s14, [r5, #4]
 80150ec:	ed93 6a01 	vldr	s12, [r3, #4]
 80150f0:	edd0 5a01 	vldr	s11, [r0, #4]
 80150f4:	ee73 3ac5 	vsub.f32	s7, s7, s10
 80150f8:	ee33 3a6f 	vsub.f32	s6, s6, s31
 80150fc:	ee39 5a62 	vsub.f32	s10, s18, s5
 8015100:	ee78 fac7 	vsub.f32	s31, s17, s14
 8015104:	ee38 4a44 	vsub.f32	s8, s16, s8
 8015108:	ee38 7a87 	vadd.f32	s14, s17, s14
 801510c:	ee30 8aa5 	vadd.f32	s16, s1, s11
 8015110:	ee79 2a22 	vadd.f32	s5, s18, s5
 8015114:	ee32 9a27 	vadd.f32	s18, s4, s15
 8015118:	ee72 7a67 	vsub.f32	s15, s4, s15
 801511c:	ee30 2a06 	vadd.f32	s4, s0, s12
 8015120:	ee75 8a6f 	vsub.f32	s17, s10, s31
 8015124:	ee71 4a64 	vsub.f32	s9, s2, s9
 8015128:	ee35 5a2f 	vadd.f32	s10, s10, s31
 801512c:	ee32 1a08 	vadd.f32	s2, s4, s16
 8015130:	ee72 fa87 	vadd.f32	s31, s5, s14
 8015134:	ee32 2a48 	vsub.f32	s4, s4, s16
 8015138:	ee68 8a8b 	vmul.f32	s17, s17, s22
 801513c:	ee25 5a0b 	vmul.f32	s10, s10, s22
 8015140:	ee70 5ae5 	vsub.f32	s11, s1, s11
 8015144:	ee72 2ac7 	vsub.f32	s5, s5, s14
 8015148:	ee71 6ae6 	vsub.f32	s13, s3, s13
 801514c:	ee29 9a0b 	vmul.f32	s18, s18, s22
 8015150:	ee71 1a6f 	vsub.f32	s3, s2, s31
 8015154:	ee67 7a8b 	vmul.f32	s15, s15, s22
 8015158:	ee30 6a46 	vsub.f32	s12, s0, s12
 801515c:	ee74 0a22 	vadd.f32	s1, s8, s5
 8015160:	ee36 0a28 	vadd.f32	s0, s12, s17
 8015164:	ee74 2a62 	vsub.f32	s5, s8, s5
 8015168:	ee36 6a68 	vsub.f32	s12, s12, s17
 801516c:	ee32 4a64 	vsub.f32	s8, s4, s9
 8015170:	ee73 8a09 	vadd.f32	s17, s6, s18
 8015174:	ee74 4a82 	vadd.f32	s9, s9, s4
 8015178:	ee33 9a49 	vsub.f32	s18, s6, s18
 801517c:	ee2d 2aa1 	vmul.f32	s4, s27, s3
 8015180:	ee35 3a85 	vadd.f32	s6, s11, s10
 8015184:	ee75 5ac5 	vsub.f32	s11, s11, s10
 8015188:	ee33 5aa7 	vadd.f32	s10, s7, s15
 801518c:	ee73 7ae7 	vsub.f32	s15, s7, s15
 8015190:	ee69 3aa6 	vmul.f32	s7, s19, s13
 8015194:	ee30 7a68 	vsub.f32	s14, s0, s17
 8015198:	ee35 8a03 	vadd.f32	s16, s10, s6
 801519c:	ee38 0a80 	vadd.f32	s0, s17, s0
 80151a0:	ee73 3a82 	vadd.f32	s7, s7, s4
 80151a4:	ee69 8aa1 	vmul.f32	s17, s19, s3
 80151a8:	ed9d 2a01 	vldr	s4, [sp, #4]
 80151ac:	eddd 1a02 	vldr	s3, [sp, #8]
 80151b0:	ee35 5a43 	vsub.f32	s10, s10, s6
 80151b4:	ee71 fa2f 	vadd.f32	s31, s2, s31
 80151b8:	ee37 3aa5 	vadd.f32	s6, s15, s11
 80151bc:	ee21 1aa0 	vmul.f32	s2, s3, s1
 80151c0:	ee77 7ae5 	vsub.f32	s15, s15, s11
 80151c4:	ee6d 6aa6 	vmul.f32	s13, s27, s13
 80151c8:	ee76 5a49 	vsub.f32	s11, s12, s18
 80151cc:	ee6c 0aa0 	vmul.f32	s1, s25, s1
 80151d0:	ee39 6a06 	vadd.f32	s12, s18, s12
 80151d4:	ee2c 9a84 	vmul.f32	s18, s25, s8
 80151d8:	ee21 4a84 	vmul.f32	s8, s3, s8
 80151dc:	ee6c 1a07 	vmul.f32	s3, s24, s14
 80151e0:	ee22 7a07 	vmul.f32	s14, s4, s14
 80151e4:	ee22 2a08 	vmul.f32	s4, s4, s16
 80151e8:	ee2c 8a08 	vmul.f32	s16, s24, s16
 80151ec:	ee78 6ae6 	vsub.f32	s13, s17, s13
 80151f0:	ee31 1a09 	vadd.f32	s2, s2, s18
 80151f4:	ee6a 8aa2 	vmul.f32	s17, s21, s5
 80151f8:	ee2e 9aa4 	vmul.f32	s18, s29, s9
 80151fc:	ee74 0a60 	vsub.f32	s1, s8, s1
 8015200:	ee37 7a48 	vsub.f32	s14, s14, s16
 8015204:	ee2f 4a00 	vmul.f32	s8, s30, s0
 8015208:	ee2b 8a85 	vmul.f32	s16, s23, s10
 801520c:	ee72 1a21 	vadd.f32	s3, s4, s3
 8015210:	ee6a 4aa4 	vmul.f32	s9, s21, s9
 8015214:	ee38 2a89 	vadd.f32	s4, s17, s18
 8015218:	ee2f 5a05 	vmul.f32	s10, s30, s10
 801521c:	ee38 8a04 	vadd.f32	s16, s16, s8
 8015220:	ee2e 9a25 	vmul.f32	s18, s28, s11
 8015224:	ee2a 4a25 	vmul.f32	s8, s20, s11
 8015228:	ee6e 2aa2 	vmul.f32	s5, s29, s5
 801522c:	eddd 5a03 	vldr	s11, [sp, #12]
 8015230:	edc6 fa00 	vstr	s31, [r6]
 8015234:	ee2b 0a80 	vmul.f32	s0, s23, s0
 8015238:	ee74 2ae2 	vsub.f32	s5, s9, s5
 801523c:	ee30 0a45 	vsub.f32	s0, s0, s10
 8015240:	ee6a 4a03 	vmul.f32	s9, s20, s6
 8015244:	ee65 8aa7 	vmul.f32	s17, s11, s15
 8015248:	ee2d 5a06 	vmul.f32	s10, s26, s12
 801524c:	ee2e 3a03 	vmul.f32	s6, s28, s6
 8015250:	ee6d 7a27 	vmul.f32	s15, s26, s15
 8015254:	ee25 6a86 	vmul.f32	s12, s11, s12
 8015258:	ee74 4a89 	vadd.f32	s9, s9, s18
 801525c:	ee34 3a43 	vsub.f32	s6, s8, s6
 8015260:	ee78 8a85 	vadd.f32	s17, s17, s10
 8015264:	ee36 6a67 	vsub.f32	s12, s12, s15
 8015268:	44c4      	add	ip, r8
 801526a:	45e3      	cmp	fp, ip
 801526c:	edc3 3a00 	vstr	s7, [r3]
 8015270:	edc3 6a01 	vstr	s13, [r3, #4]
 8015274:	4456      	add	r6, sl
 8015276:	ed07 1a01 	vstr	s2, [r7, #-4]
 801527a:	edc7 0a00 	vstr	s1, [r7]
 801527e:	4453      	add	r3, sl
 8015280:	ed80 2a00 	vstr	s4, [r0]
 8015284:	edc0 2a01 	vstr	s5, [r0, #4]
 8015288:	4457      	add	r7, sl
 801528a:	edc2 1a00 	vstr	s3, [r2]
 801528e:	ed82 7a01 	vstr	s14, [r2, #4]
 8015292:	4450      	add	r0, sl
 8015294:	ed85 8a00 	vstr	s16, [r5]
 8015298:	ed85 0a01 	vstr	s0, [r5, #4]
 801529c:	4452      	add	r2, sl
 801529e:	edc1 4a00 	vstr	s9, [r1]
 80152a2:	4455      	add	r5, sl
 80152a4:	ed81 3a01 	vstr	s6, [r1, #4]
 80152a8:	edc4 8a00 	vstr	s17, [r4]
 80152ac:	ed84 6a01 	vstr	s12, [r4, #4]
 80152b0:	4451      	add	r1, sl
 80152b2:	4454      	add	r4, sl
 80152b4:	f63f aeea 	bhi.w	801508c <arm_radix8_butterfly_f32+0x2fc>
 80152b8:	9b0b      	ldr	r3, [sp, #44]	; 0x2c
 80152ba:	3308      	adds	r3, #8
 80152bc:	930b      	str	r3, [sp, #44]	; 0x2c
 80152be:	9b0a      	ldr	r3, [sp, #40]	; 0x28
 80152c0:	3308      	adds	r3, #8
 80152c2:	930a      	str	r3, [sp, #40]	; 0x28
 80152c4:	9b09      	ldr	r3, [sp, #36]	; 0x24
 80152c6:	3308      	adds	r3, #8
 80152c8:	9309      	str	r3, [sp, #36]	; 0x24
 80152ca:	9b08      	ldr	r3, [sp, #32]
 80152cc:	3308      	adds	r3, #8
 80152ce:	9308      	str	r3, [sp, #32]
 80152d0:	9b07      	ldr	r3, [sp, #28]
 80152d2:	3308      	adds	r3, #8
 80152d4:	9307      	str	r3, [sp, #28]
 80152d6:	9b06      	ldr	r3, [sp, #24]
 80152d8:	3308      	adds	r3, #8
 80152da:	9306      	str	r3, [sp, #24]
 80152dc:	9b05      	ldr	r3, [sp, #20]
 80152de:	3308      	adds	r3, #8
 80152e0:	9305      	str	r3, [sp, #20]
 80152e2:	9b04      	ldr	r3, [sp, #16]
 80152e4:	3308      	adds	r3, #8
 80152e6:	9304      	str	r3, [sp, #16]
 80152e8:	9b0f      	ldr	r3, [sp, #60]	; 0x3c
 80152ea:	f109 0901 	add.w	r9, r9, #1
 80152ee:	454b      	cmp	r3, r9
 80152f0:	f47f ae7d 	bne.w	8014fee <arm_radix8_butterfly_f32+0x25e>
 80152f4:	9b10      	ldr	r3, [sp, #64]	; 0x40
 80152f6:	00db      	lsls	r3, r3, #3
 80152f8:	b29b      	uxth	r3, r3
 80152fa:	46d9      	mov	r9, fp
 80152fc:	9310      	str	r3, [sp, #64]	; 0x40
 80152fe:	f8dd b03c 	ldr.w	fp, [sp, #60]	; 0x3c
 8015302:	e554      	b.n	8014dae <arm_radix8_butterfly_f32+0x1e>
 8015304:	b015      	add	sp, #84	; 0x54
 8015306:	ecbd 8b10 	vpop	{d8-d15}
 801530a:	e8bd 8ff0 	ldmia.w	sp!, {r4, r5, r6, r7, r8, r9, sl, fp, pc}
 801530e:	bf00      	nop

08015310 <floor>:
 8015310:	ec51 0b10 	vmov	r0, r1, d0
 8015314:	e92d 41f0 	stmdb	sp!, {r4, r5, r6, r7, r8, lr}
 8015318:	f3c1 570a 	ubfx	r7, r1, #20, #11
 801531c:	f2a7 36ff 	subw	r6, r7, #1023	; 0x3ff
 8015320:	2e13      	cmp	r6, #19
 8015322:	ee10 5a10 	vmov	r5, s0
 8015326:	ee10 8a10 	vmov	r8, s0
 801532a:	460c      	mov	r4, r1
 801532c:	dc32      	bgt.n	8015394 <floor+0x84>
 801532e:	2e00      	cmp	r6, #0
 8015330:	da14      	bge.n	801535c <floor+0x4c>
 8015332:	a333      	add	r3, pc, #204	; (adr r3, 8015400 <floor+0xf0>)
 8015334:	e9d3 2300 	ldrd	r2, r3, [r3]
 8015338:	f7f2 ff60 	bl	80081fc <__adddf3>
 801533c:	2200      	movs	r2, #0
 801533e:	2300      	movs	r3, #0
 8015340:	f7f3 fba2 	bl	8008a88 <__aeabi_dcmpgt>
 8015344:	b138      	cbz	r0, 8015356 <floor+0x46>
 8015346:	2c00      	cmp	r4, #0
 8015348:	da57      	bge.n	80153fa <floor+0xea>
 801534a:	f024 4300 	bic.w	r3, r4, #2147483648	; 0x80000000
 801534e:	431d      	orrs	r5, r3
 8015350:	d001      	beq.n	8015356 <floor+0x46>
 8015352:	4c2d      	ldr	r4, [pc, #180]	; (8015408 <floor+0xf8>)
 8015354:	2500      	movs	r5, #0
 8015356:	4621      	mov	r1, r4
 8015358:	4628      	mov	r0, r5
 801535a:	e025      	b.n	80153a8 <floor+0x98>
 801535c:	4f2b      	ldr	r7, [pc, #172]	; (801540c <floor+0xfc>)
 801535e:	4137      	asrs	r7, r6
 8015360:	ea01 0307 	and.w	r3, r1, r7
 8015364:	4303      	orrs	r3, r0
 8015366:	d01f      	beq.n	80153a8 <floor+0x98>
 8015368:	a325      	add	r3, pc, #148	; (adr r3, 8015400 <floor+0xf0>)
 801536a:	e9d3 2300 	ldrd	r2, r3, [r3]
 801536e:	f7f2 ff45 	bl	80081fc <__adddf3>
 8015372:	2200      	movs	r2, #0
 8015374:	2300      	movs	r3, #0
 8015376:	f7f3 fb87 	bl	8008a88 <__aeabi_dcmpgt>
 801537a:	2800      	cmp	r0, #0
 801537c:	d0eb      	beq.n	8015356 <floor+0x46>
 801537e:	2c00      	cmp	r4, #0
 8015380:	bfbe      	ittt	lt
 8015382:	f44f 1380 	movlt.w	r3, #1048576	; 0x100000
 8015386:	fa43 f606 	asrlt.w	r6, r3, r6
 801538a:	19a4      	addlt	r4, r4, r6
 801538c:	ea24 0407 	bic.w	r4, r4, r7
 8015390:	2500      	movs	r5, #0
 8015392:	e7e0      	b.n	8015356 <floor+0x46>
 8015394:	2e33      	cmp	r6, #51	; 0x33
 8015396:	dd0b      	ble.n	80153b0 <floor+0xa0>
 8015398:	f5b6 6f80 	cmp.w	r6, #1024	; 0x400
 801539c:	d104      	bne.n	80153a8 <floor+0x98>
 801539e:	ee10 2a10 	vmov	r2, s0
 80153a2:	460b      	mov	r3, r1
 80153a4:	f7f2 ff2a 	bl	80081fc <__adddf3>
 80153a8:	ec41 0b10 	vmov	d0, r0, r1
 80153ac:	e8bd 81f0 	ldmia.w	sp!, {r4, r5, r6, r7, r8, pc}
 80153b0:	f2a7 4713 	subw	r7, r7, #1043	; 0x413
 80153b4:	f04f 33ff 	mov.w	r3, #4294967295
 80153b8:	fa23 f707 	lsr.w	r7, r3, r7
 80153bc:	4207      	tst	r7, r0
 80153be:	d0f3      	beq.n	80153a8 <floor+0x98>
 80153c0:	a30f      	add	r3, pc, #60	; (adr r3, 8015400 <floor+0xf0>)
 80153c2:	e9d3 2300 	ldrd	r2, r3, [r3]
 80153c6:	f7f2 ff19 	bl	80081fc <__adddf3>
 80153ca:	2200      	movs	r2, #0
 80153cc:	2300      	movs	r3, #0
 80153ce:	f7f3 fb5b 	bl	8008a88 <__aeabi_dcmpgt>
 80153d2:	2800      	cmp	r0, #0
 80153d4:	d0bf      	beq.n	8015356 <floor+0x46>
 80153d6:	2c00      	cmp	r4, #0
 80153d8:	da02      	bge.n	80153e0 <floor+0xd0>
 80153da:	2e14      	cmp	r6, #20
 80153dc:	d103      	bne.n	80153e6 <floor+0xd6>
 80153de:	3401      	adds	r4, #1
 80153e0:	ea25 0507 	bic.w	r5, r5, r7
 80153e4:	e7b7      	b.n	8015356 <floor+0x46>
 80153e6:	2301      	movs	r3, #1
 80153e8:	f1c6 0634 	rsb	r6, r6, #52	; 0x34
 80153ec:	fa03 f606 	lsl.w	r6, r3, r6
 80153f0:	4435      	add	r5, r6
 80153f2:	4545      	cmp	r5, r8
 80153f4:	bf38      	it	cc
 80153f6:	18e4      	addcc	r4, r4, r3
 80153f8:	e7f2      	b.n	80153e0 <floor+0xd0>
 80153fa:	2500      	movs	r5, #0
 80153fc:	462c      	mov	r4, r5
 80153fe:	e7aa      	b.n	8015356 <floor+0x46>
 8015400:	8800759c 	.word	0x8800759c
 8015404:	7e37e43c 	.word	0x7e37e43c
 8015408:	bff00000 	.word	0xbff00000
 801540c:	000fffff 	.word	0x000fffff

08015410 <sqrtf>:
 8015410:	b508      	push	{r3, lr}
 8015412:	ed2d 8b02 	vpush	{d8}
 8015416:	eeb0 8a40 	vmov.f32	s16, s0
 801541a:	f000 f817 	bl	801544c <__ieee754_sqrtf>
 801541e:	eeb4 8a48 	vcmp.f32	s16, s16
 8015422:	eef1 fa10 	vmrs	APSR_nzcv, fpscr
 8015426:	d60c      	bvs.n	8015442 <sqrtf+0x32>
 8015428:	eddf 8a07 	vldr	s17, [pc, #28]	; 8015448 <sqrtf+0x38>
 801542c:	eeb4 8ae8 	vcmpe.f32	s16, s17
 8015430:	eef1 fa10 	vmrs	APSR_nzcv, fpscr
 8015434:	d505      	bpl.n	8015442 <sqrtf+0x32>
 8015436:	f000 f80d 	bl	8015454 <__errno>
 801543a:	ee88 0aa8 	vdiv.f32	s0, s17, s17
 801543e:	2321      	movs	r3, #33	; 0x21
 8015440:	6003      	str	r3, [r0, #0]
 8015442:	ecbd 8b02 	vpop	{d8}
 8015446:	bd08      	pop	{r3, pc}
 8015448:	00000000 	.word	0x00000000

0801544c <__ieee754_sqrtf>:
 801544c:	eeb1 0ac0 	vsqrt.f32	s0, s0
 8015450:	4770      	bx	lr
	...

08015454 <__errno>:
 8015454:	4b01      	ldr	r3, [pc, #4]	; (801545c <__errno+0x8>)
 8015456:	6818      	ldr	r0, [r3, #0]
 8015458:	4770      	bx	lr
 801545a:	bf00      	nop
 801545c:	200000fc 	.word	0x200000fc

08015460 <__libc_init_array>:
 8015460:	b570      	push	{r4, r5, r6, lr}
 8015462:	4d0d      	ldr	r5, [pc, #52]	; (8015498 <__libc_init_array+0x38>)
 8015464:	4c0d      	ldr	r4, [pc, #52]	; (801549c <__libc_init_array+0x3c>)
 8015466:	1b64      	subs	r4, r4, r5
 8015468:	10a4      	asrs	r4, r4, #2
 801546a:	2600      	movs	r6, #0
 801546c:	42a6      	cmp	r6, r4
 801546e:	d109      	bne.n	8015484 <__libc_init_array+0x24>
 8015470:	4d0b      	ldr	r5, [pc, #44]	; (80154a0 <__libc_init_array+0x40>)
 8015472:	4c0c      	ldr	r4, [pc, #48]	; (80154a4 <__libc_init_array+0x44>)
 8015474:	f000 fa06 	bl	8015884 <_init>
 8015478:	1b64      	subs	r4, r4, r5
 801547a:	10a4      	asrs	r4, r4, #2
 801547c:	2600      	movs	r6, #0
 801547e:	42a6      	cmp	r6, r4
 8015480:	d105      	bne.n	801548e <__libc_init_array+0x2e>
 8015482:	bd70      	pop	{r4, r5, r6, pc}
 8015484:	f855 3b04 	ldr.w	r3, [r5], #4
 8015488:	4798      	blx	r3
 801548a:	3601      	adds	r6, #1
 801548c:	e7ee      	b.n	801546c <__libc_init_array+0xc>
 801548e:	f855 3b04 	ldr.w	r3, [r5], #4
 8015492:	4798      	blx	r3
 8015494:	3601      	adds	r6, #1
 8015496:	e7f2      	b.n	801547e <__libc_init_array+0x1e>
 8015498:	08028bf4 	.word	0x08028bf4
 801549c:	08028bf4 	.word	0x08028bf4
 80154a0:	08028bf4 	.word	0x08028bf4
 80154a4:	08028bf8 	.word	0x08028bf8

080154a8 <malloc>:
 80154a8:	4b02      	ldr	r3, [pc, #8]	; (80154b4 <malloc+0xc>)
 80154aa:	4601      	mov	r1, r0
 80154ac:	6818      	ldr	r0, [r3, #0]
 80154ae:	f000 b8a7 	b.w	8015600 <_malloc_r>
 80154b2:	bf00      	nop
 80154b4:	200000fc 	.word	0x200000fc

080154b8 <free>:
 80154b8:	4b02      	ldr	r3, [pc, #8]	; (80154c4 <free+0xc>)
 80154ba:	4601      	mov	r1, r0
 80154bc:	6818      	ldr	r0, [r3, #0]
 80154be:	f000 b833 	b.w	8015528 <_free_r>
 80154c2:	bf00      	nop
 80154c4:	200000fc 	.word	0x200000fc

080154c8 <memcpy>:
 80154c8:	440a      	add	r2, r1
 80154ca:	4291      	cmp	r1, r2
 80154cc:	f100 33ff 	add.w	r3, r0, #4294967295
 80154d0:	d100      	bne.n	80154d4 <memcpy+0xc>
 80154d2:	4770      	bx	lr
 80154d4:	b510      	push	{r4, lr}
 80154d6:	f811 4b01 	ldrb.w	r4, [r1], #1
 80154da:	f803 4f01 	strb.w	r4, [r3, #1]!
 80154de:	4291      	cmp	r1, r2
 80154e0:	d1f9      	bne.n	80154d6 <memcpy+0xe>
 80154e2:	bd10      	pop	{r4, pc}

080154e4 <memmove>:
 80154e4:	4288      	cmp	r0, r1
 80154e6:	b510      	push	{r4, lr}
 80154e8:	eb01 0402 	add.w	r4, r1, r2
 80154ec:	d902      	bls.n	80154f4 <memmove+0x10>
 80154ee:	4284      	cmp	r4, r0
 80154f0:	4623      	mov	r3, r4
 80154f2:	d807      	bhi.n	8015504 <memmove+0x20>
 80154f4:	1e43      	subs	r3, r0, #1
 80154f6:	42a1      	cmp	r1, r4
 80154f8:	d008      	beq.n	801550c <memmove+0x28>
 80154fa:	f811 2b01 	ldrb.w	r2, [r1], #1
 80154fe:	f803 2f01 	strb.w	r2, [r3, #1]!
 8015502:	e7f8      	b.n	80154f6 <memmove+0x12>
 8015504:	4402      	add	r2, r0
 8015506:	4601      	mov	r1, r0
 8015508:	428a      	cmp	r2, r1
 801550a:	d100      	bne.n	801550e <memmove+0x2a>
 801550c:	bd10      	pop	{r4, pc}
 801550e:	f813 4d01 	ldrb.w	r4, [r3, #-1]!
 8015512:	f802 4d01 	strb.w	r4, [r2, #-1]!
 8015516:	e7f7      	b.n	8015508 <memmove+0x24>

08015518 <memset>:
 8015518:	4402      	add	r2, r0
 801551a:	4603      	mov	r3, r0
 801551c:	4293      	cmp	r3, r2
 801551e:	d100      	bne.n	8015522 <memset+0xa>
 8015520:	4770      	bx	lr
 8015522:	f803 1b01 	strb.w	r1, [r3], #1
 8015526:	e7f9      	b.n	801551c <memset+0x4>

08015528 <_free_r>:
 8015528:	b537      	push	{r0, r1, r2, r4, r5, lr}
 801552a:	2900      	cmp	r1, #0
 801552c:	d044      	beq.n	80155b8 <_free_r+0x90>
 801552e:	f851 3c04 	ldr.w	r3, [r1, #-4]
 8015532:	9001      	str	r0, [sp, #4]
 8015534:	2b00      	cmp	r3, #0
 8015536:	f1a1 0404 	sub.w	r4, r1, #4
 801553a:	bfb8      	it	lt
 801553c:	18e4      	addlt	r4, r4, r3
 801553e:	f000 f95d 	bl	80157fc <__malloc_lock>
 8015542:	4a1e      	ldr	r2, [pc, #120]	; (80155bc <_free_r+0x94>)
 8015544:	9801      	ldr	r0, [sp, #4]
 8015546:	6813      	ldr	r3, [r2, #0]
 8015548:	b933      	cbnz	r3, 8015558 <_free_r+0x30>
 801554a:	6063      	str	r3, [r4, #4]
 801554c:	6014      	str	r4, [r2, #0]
 801554e:	b003      	add	sp, #12
 8015550:	e8bd 4030 	ldmia.w	sp!, {r4, r5, lr}
 8015554:	f000 b958 	b.w	8015808 <__malloc_unlock>
 8015558:	42a3      	cmp	r3, r4
 801555a:	d908      	bls.n	801556e <_free_r+0x46>
 801555c:	6825      	ldr	r5, [r4, #0]
 801555e:	1961      	adds	r1, r4, r5
 8015560:	428b      	cmp	r3, r1
 8015562:	bf01      	itttt	eq
 8015564:	6819      	ldreq	r1, [r3, #0]
 8015566:	685b      	ldreq	r3, [r3, #4]
 8015568:	1949      	addeq	r1, r1, r5
 801556a:	6021      	streq	r1, [r4, #0]
 801556c:	e7ed      	b.n	801554a <_free_r+0x22>
 801556e:	461a      	mov	r2, r3
 8015570:	685b      	ldr	r3, [r3, #4]
 8015572:	b10b      	cbz	r3, 8015578 <_free_r+0x50>
 8015574:	42a3      	cmp	r3, r4
 8015576:	d9fa      	bls.n	801556e <_free_r+0x46>
 8015578:	6811      	ldr	r1, [r2, #0]
 801557a:	1855      	adds	r5, r2, r1
 801557c:	42a5      	cmp	r5, r4
 801557e:	d10b      	bne.n	8015598 <_free_r+0x70>
 8015580:	6824      	ldr	r4, [r4, #0]
 8015582:	4421      	add	r1, r4
 8015584:	1854      	adds	r4, r2, r1
 8015586:	42a3      	cmp	r3, r4
 8015588:	6011      	str	r1, [r2, #0]
 801558a:	d1e0      	bne.n	801554e <_free_r+0x26>
 801558c:	681c      	ldr	r4, [r3, #0]
 801558e:	685b      	ldr	r3, [r3, #4]
 8015590:	6053      	str	r3, [r2, #4]
 8015592:	4421      	add	r1, r4
 8015594:	6011      	str	r1, [r2, #0]
 8015596:	e7da      	b.n	801554e <_free_r+0x26>
 8015598:	d902      	bls.n	80155a0 <_free_r+0x78>
 801559a:	230c      	movs	r3, #12
 801559c:	6003      	str	r3, [r0, #0]
 801559e:	e7d6      	b.n	801554e <_free_r+0x26>
 80155a0:	6825      	ldr	r5, [r4, #0]
 80155a2:	1961      	adds	r1, r4, r5
 80155a4:	428b      	cmp	r3, r1
 80155a6:	bf04      	itt	eq
 80155a8:	6819      	ldreq	r1, [r3, #0]
 80155aa:	685b      	ldreq	r3, [r3, #4]
 80155ac:	6063      	str	r3, [r4, #4]
 80155ae:	bf04      	itt	eq
 80155b0:	1949      	addeq	r1, r1, r5
 80155b2:	6021      	streq	r1, [r4, #0]
 80155b4:	6054      	str	r4, [r2, #4]
 80155b6:	e7ca      	b.n	801554e <_free_r+0x26>
 80155b8:	b003      	add	sp, #12
 80155ba:	bd30      	pop	{r4, r5, pc}
 80155bc:	2000e9d0 	.word	0x2000e9d0

080155c0 <sbrk_aligned>:
 80155c0:	b570      	push	{r4, r5, r6, lr}
 80155c2:	4e0e      	ldr	r6, [pc, #56]	; (80155fc <sbrk_aligned+0x3c>)
 80155c4:	460c      	mov	r4, r1
 80155c6:	6831      	ldr	r1, [r6, #0]
 80155c8:	4605      	mov	r5, r0
 80155ca:	b911      	cbnz	r1, 80155d2 <sbrk_aligned+0x12>
 80155cc:	f000 f8fe 	bl	80157cc <_sbrk_r>
 80155d0:	6030      	str	r0, [r6, #0]
 80155d2:	4621      	mov	r1, r4
 80155d4:	4628      	mov	r0, r5
 80155d6:	f000 f8f9 	bl	80157cc <_sbrk_r>
 80155da:	1c43      	adds	r3, r0, #1
 80155dc:	d00a      	beq.n	80155f4 <sbrk_aligned+0x34>
 80155de:	1cc4      	adds	r4, r0, #3
 80155e0:	f024 0403 	bic.w	r4, r4, #3
 80155e4:	42a0      	cmp	r0, r4
 80155e6:	d007      	beq.n	80155f8 <sbrk_aligned+0x38>
 80155e8:	1a21      	subs	r1, r4, r0
 80155ea:	4628      	mov	r0, r5
 80155ec:	f000 f8ee 	bl	80157cc <_sbrk_r>
 80155f0:	3001      	adds	r0, #1
 80155f2:	d101      	bne.n	80155f8 <sbrk_aligned+0x38>
 80155f4:	f04f 34ff 	mov.w	r4, #4294967295
 80155f8:	4620      	mov	r0, r4
 80155fa:	bd70      	pop	{r4, r5, r6, pc}
 80155fc:	2000e9d4 	.word	0x2000e9d4

08015600 <_malloc_r>:
 8015600:	e92d 41f0 	stmdb	sp!, {r4, r5, r6, r7, r8, lr}
 8015604:	1ccd      	adds	r5, r1, #3
 8015606:	f025 0503 	bic.w	r5, r5, #3
 801560a:	3508      	adds	r5, #8
 801560c:	2d0c      	cmp	r5, #12
 801560e:	bf38      	it	cc
 8015610:	250c      	movcc	r5, #12
 8015612:	2d00      	cmp	r5, #0
 8015614:	4607      	mov	r7, r0
 8015616:	db01      	blt.n	801561c <_malloc_r+0x1c>
 8015618:	42a9      	cmp	r1, r5
 801561a:	d905      	bls.n	8015628 <_malloc_r+0x28>
 801561c:	230c      	movs	r3, #12
 801561e:	603b      	str	r3, [r7, #0]
 8015620:	2600      	movs	r6, #0
 8015622:	4630      	mov	r0, r6
 8015624:	e8bd 81f0 	ldmia.w	sp!, {r4, r5, r6, r7, r8, pc}
 8015628:	4e2e      	ldr	r6, [pc, #184]	; (80156e4 <_malloc_r+0xe4>)
 801562a:	f000 f8e7 	bl	80157fc <__malloc_lock>
 801562e:	6833      	ldr	r3, [r6, #0]
 8015630:	461c      	mov	r4, r3
 8015632:	bb34      	cbnz	r4, 8015682 <_malloc_r+0x82>
 8015634:	4629      	mov	r1, r5
 8015636:	4638      	mov	r0, r7
 8015638:	f7ff ffc2 	bl	80155c0 <sbrk_aligned>
 801563c:	1c43      	adds	r3, r0, #1
 801563e:	4604      	mov	r4, r0
 8015640:	d14d      	bne.n	80156de <_malloc_r+0xde>
 8015642:	6834      	ldr	r4, [r6, #0]
 8015644:	4626      	mov	r6, r4
 8015646:	2e00      	cmp	r6, #0
 8015648:	d140      	bne.n	80156cc <_malloc_r+0xcc>
 801564a:	6823      	ldr	r3, [r4, #0]
 801564c:	4631      	mov	r1, r6
 801564e:	4638      	mov	r0, r7
 8015650:	eb04 0803 	add.w	r8, r4, r3
 8015654:	f000 f8ba 	bl	80157cc <_sbrk_r>
 8015658:	4580      	cmp	r8, r0
 801565a:	d13a      	bne.n	80156d2 <_malloc_r+0xd2>
 801565c:	6821      	ldr	r1, [r4, #0]
 801565e:	3503      	adds	r5, #3
 8015660:	1a6d      	subs	r5, r5, r1
 8015662:	f025 0503 	bic.w	r5, r5, #3
 8015666:	3508      	adds	r5, #8
 8015668:	2d0c      	cmp	r5, #12
 801566a:	bf38      	it	cc
 801566c:	250c      	movcc	r5, #12
 801566e:	4629      	mov	r1, r5
 8015670:	4638      	mov	r0, r7
 8015672:	f7ff ffa5 	bl	80155c0 <sbrk_aligned>
 8015676:	3001      	adds	r0, #1
 8015678:	d02b      	beq.n	80156d2 <_malloc_r+0xd2>
 801567a:	6823      	ldr	r3, [r4, #0]
 801567c:	442b      	add	r3, r5
 801567e:	6023      	str	r3, [r4, #0]
 8015680:	e00e      	b.n	80156a0 <_malloc_r+0xa0>
 8015682:	6822      	ldr	r2, [r4, #0]
 8015684:	1b52      	subs	r2, r2, r5
 8015686:	d41e      	bmi.n	80156c6 <_malloc_r+0xc6>
 8015688:	2a0b      	cmp	r2, #11
 801568a:	d916      	bls.n	80156ba <_malloc_r+0xba>
 801568c:	1961      	adds	r1, r4, r5
 801568e:	42a3      	cmp	r3, r4
 8015690:	6025      	str	r5, [r4, #0]
 8015692:	bf18      	it	ne
 8015694:	6059      	strne	r1, [r3, #4]
 8015696:	6863      	ldr	r3, [r4, #4]
 8015698:	bf08      	it	eq
 801569a:	6031      	streq	r1, [r6, #0]
 801569c:	5162      	str	r2, [r4, r5]
 801569e:	604b      	str	r3, [r1, #4]
 80156a0:	4638      	mov	r0, r7
 80156a2:	f104 060b 	add.w	r6, r4, #11
 80156a6:	f000 f8af 	bl	8015808 <__malloc_unlock>
 80156aa:	f026 0607 	bic.w	r6, r6, #7
 80156ae:	1d23      	adds	r3, r4, #4
 80156b0:	1af2      	subs	r2, r6, r3
 80156b2:	d0b6      	beq.n	8015622 <_malloc_r+0x22>
 80156b4:	1b9b      	subs	r3, r3, r6
 80156b6:	50a3      	str	r3, [r4, r2]
 80156b8:	e7b3      	b.n	8015622 <_malloc_r+0x22>
 80156ba:	6862      	ldr	r2, [r4, #4]
 80156bc:	42a3      	cmp	r3, r4
 80156be:	bf0c      	ite	eq
 80156c0:	6032      	streq	r2, [r6, #0]
 80156c2:	605a      	strne	r2, [r3, #4]
 80156c4:	e7ec      	b.n	80156a0 <_malloc_r+0xa0>
 80156c6:	4623      	mov	r3, r4
 80156c8:	6864      	ldr	r4, [r4, #4]
 80156ca:	e7b2      	b.n	8015632 <_malloc_r+0x32>
 80156cc:	4634      	mov	r4, r6
 80156ce:	6876      	ldr	r6, [r6, #4]
 80156d0:	e7b9      	b.n	8015646 <_malloc_r+0x46>
 80156d2:	230c      	movs	r3, #12
 80156d4:	603b      	str	r3, [r7, #0]
 80156d6:	4638      	mov	r0, r7
 80156d8:	f000 f896 	bl	8015808 <__malloc_unlock>
 80156dc:	e7a1      	b.n	8015622 <_malloc_r+0x22>
 80156de:	6025      	str	r5, [r4, #0]
 80156e0:	e7de      	b.n	80156a0 <_malloc_r+0xa0>
 80156e2:	bf00      	nop
 80156e4:	2000e9d0 	.word	0x2000e9d0

080156e8 <realloc>:
 80156e8:	4b02      	ldr	r3, [pc, #8]	; (80156f4 <realloc+0xc>)
 80156ea:	460a      	mov	r2, r1
 80156ec:	4601      	mov	r1, r0
 80156ee:	6818      	ldr	r0, [r3, #0]
 80156f0:	f000 b890 	b.w	8015814 <_realloc_r>
 80156f4:	200000fc 	.word	0x200000fc

080156f8 <cleanup_glue>:
 80156f8:	b538      	push	{r3, r4, r5, lr}
 80156fa:	460c      	mov	r4, r1
 80156fc:	6809      	ldr	r1, [r1, #0]
 80156fe:	4605      	mov	r5, r0
 8015700:	b109      	cbz	r1, 8015706 <cleanup_glue+0xe>
 8015702:	f7ff fff9 	bl	80156f8 <cleanup_glue>
 8015706:	4621      	mov	r1, r4
 8015708:	4628      	mov	r0, r5
 801570a:	e8bd 4038 	ldmia.w	sp!, {r3, r4, r5, lr}
 801570e:	f7ff bf0b 	b.w	8015528 <_free_r>
	...

08015714 <_reclaim_reent>:
 8015714:	4b2c      	ldr	r3, [pc, #176]	; (80157c8 <_reclaim_reent+0xb4>)
 8015716:	681b      	ldr	r3, [r3, #0]
 8015718:	4283      	cmp	r3, r0
 801571a:	b570      	push	{r4, r5, r6, lr}
 801571c:	4604      	mov	r4, r0
 801571e:	d051      	beq.n	80157c4 <_reclaim_reent+0xb0>
 8015720:	6a43      	ldr	r3, [r0, #36]	; 0x24
 8015722:	b143      	cbz	r3, 8015736 <_reclaim_reent+0x22>
 8015724:	68db      	ldr	r3, [r3, #12]
 8015726:	2b00      	cmp	r3, #0
 8015728:	d14a      	bne.n	80157c0 <_reclaim_reent+0xac>
 801572a:	6a63      	ldr	r3, [r4, #36]	; 0x24
 801572c:	6819      	ldr	r1, [r3, #0]
 801572e:	b111      	cbz	r1, 8015736 <_reclaim_reent+0x22>
 8015730:	4620      	mov	r0, r4
 8015732:	f7ff fef9 	bl	8015528 <_free_r>
 8015736:	6961      	ldr	r1, [r4, #20]
 8015738:	b111      	cbz	r1, 8015740 <_reclaim_reent+0x2c>
 801573a:	4620      	mov	r0, r4
 801573c:	f7ff fef4 	bl	8015528 <_free_r>
 8015740:	6a61      	ldr	r1, [r4, #36]	; 0x24
 8015742:	b111      	cbz	r1, 801574a <_reclaim_reent+0x36>
 8015744:	4620      	mov	r0, r4
 8015746:	f7ff feef 	bl	8015528 <_free_r>
 801574a:	6ba1      	ldr	r1, [r4, #56]	; 0x38
 801574c:	b111      	cbz	r1, 8015754 <_reclaim_reent+0x40>
 801574e:	4620      	mov	r0, r4
 8015750:	f7ff feea 	bl	8015528 <_free_r>
 8015754:	6be1      	ldr	r1, [r4, #60]	; 0x3c
 8015756:	b111      	cbz	r1, 801575e <_reclaim_reent+0x4a>
 8015758:	4620      	mov	r0, r4
 801575a:	f7ff fee5 	bl	8015528 <_free_r>
 801575e:	6c21      	ldr	r1, [r4, #64]	; 0x40
 8015760:	b111      	cbz	r1, 8015768 <_reclaim_reent+0x54>
 8015762:	4620      	mov	r0, r4
 8015764:	f7ff fee0 	bl	8015528 <_free_r>
 8015768:	6de1      	ldr	r1, [r4, #92]	; 0x5c
 801576a:	b111      	cbz	r1, 8015772 <_reclaim_reent+0x5e>
 801576c:	4620      	mov	r0, r4
 801576e:	f7ff fedb 	bl	8015528 <_free_r>
 8015772:	6da1      	ldr	r1, [r4, #88]	; 0x58
 8015774:	b111      	cbz	r1, 801577c <_reclaim_reent+0x68>
 8015776:	4620      	mov	r0, r4
 8015778:	f7ff fed6 	bl	8015528 <_free_r>
 801577c:	6b61      	ldr	r1, [r4, #52]	; 0x34
 801577e:	b111      	cbz	r1, 8015786 <_reclaim_reent+0x72>
 8015780:	4620      	mov	r0, r4
 8015782:	f7ff fed1 	bl	8015528 <_free_r>
 8015786:	69a3      	ldr	r3, [r4, #24]
 8015788:	b1e3      	cbz	r3, 80157c4 <_reclaim_reent+0xb0>
 801578a:	6aa3      	ldr	r3, [r4, #40]	; 0x28
 801578c:	4620      	mov	r0, r4
 801578e:	4798      	blx	r3
 8015790:	6ca1      	ldr	r1, [r4, #72]	; 0x48
 8015792:	b1b9      	cbz	r1, 80157c4 <_reclaim_reent+0xb0>
 8015794:	4620      	mov	r0, r4
 8015796:	e8bd 4070 	ldmia.w	sp!, {r4, r5, r6, lr}
 801579a:	f7ff bfad 	b.w	80156f8 <cleanup_glue>
 801579e:	5949      	ldr	r1, [r1, r5]
 80157a0:	b941      	cbnz	r1, 80157b4 <_reclaim_reent+0xa0>
 80157a2:	3504      	adds	r5, #4
 80157a4:	6a63      	ldr	r3, [r4, #36]	; 0x24
 80157a6:	2d80      	cmp	r5, #128	; 0x80
 80157a8:	68d9      	ldr	r1, [r3, #12]
 80157aa:	d1f8      	bne.n	801579e <_reclaim_reent+0x8a>
 80157ac:	4620      	mov	r0, r4
 80157ae:	f7ff febb 	bl	8015528 <_free_r>
 80157b2:	e7ba      	b.n	801572a <_reclaim_reent+0x16>
 80157b4:	680e      	ldr	r6, [r1, #0]
 80157b6:	4620      	mov	r0, r4
 80157b8:	f7ff feb6 	bl	8015528 <_free_r>
 80157bc:	4631      	mov	r1, r6
 80157be:	e7ef      	b.n	80157a0 <_reclaim_reent+0x8c>
 80157c0:	2500      	movs	r5, #0
 80157c2:	e7ef      	b.n	80157a4 <_reclaim_reent+0x90>
 80157c4:	bd70      	pop	{r4, r5, r6, pc}
 80157c6:	bf00      	nop
 80157c8:	200000fc 	.word	0x200000fc

080157cc <_sbrk_r>:
 80157cc:	b538      	push	{r3, r4, r5, lr}
 80157ce:	4d06      	ldr	r5, [pc, #24]	; (80157e8 <_sbrk_r+0x1c>)
 80157d0:	2300      	movs	r3, #0
 80157d2:	4604      	mov	r4, r0
 80157d4:	4608      	mov	r0, r1
 80157d6:	602b      	str	r3, [r5, #0]
 80157d8:	f7f6 fe80 	bl	800c4dc <_sbrk>
 80157dc:	1c43      	adds	r3, r0, #1
 80157de:	d102      	bne.n	80157e6 <_sbrk_r+0x1a>
 80157e0:	682b      	ldr	r3, [r5, #0]
 80157e2:	b103      	cbz	r3, 80157e6 <_sbrk_r+0x1a>
 80157e4:	6023      	str	r3, [r4, #0]
 80157e6:	bd38      	pop	{r3, r4, r5, pc}
 80157e8:	2000e9d8 	.word	0x2000e9d8

080157ec <strcpy>:
 80157ec:	4603      	mov	r3, r0
 80157ee:	f811 2b01 	ldrb.w	r2, [r1], #1
 80157f2:	f803 2b01 	strb.w	r2, [r3], #1
 80157f6:	2a00      	cmp	r2, #0
 80157f8:	d1f9      	bne.n	80157ee <strcpy+0x2>
 80157fa:	4770      	bx	lr

080157fc <__malloc_lock>:
 80157fc:	4801      	ldr	r0, [pc, #4]	; (8015804 <__malloc_lock+0x8>)
 80157fe:	f7f6 bef5 	b.w	800c5ec <__retarget_lock_acquire_recursive>
 8015802:	bf00      	nop
 8015804:	2000cb24 	.word	0x2000cb24

08015808 <__malloc_unlock>:
 8015808:	4801      	ldr	r0, [pc, #4]	; (8015810 <__malloc_unlock+0x8>)
 801580a:	f7f6 befb 	b.w	800c604 <__retarget_lock_release_recursive>
 801580e:	bf00      	nop
 8015810:	2000cb24 	.word	0x2000cb24

08015814 <_realloc_r>:
 8015814:	e92d 41f0 	stmdb	sp!, {r4, r5, r6, r7, r8, lr}
 8015818:	4680      	mov	r8, r0
 801581a:	4614      	mov	r4, r2
 801581c:	460e      	mov	r6, r1
 801581e:	b921      	cbnz	r1, 801582a <_realloc_r+0x16>
 8015820:	e8bd 41f0 	ldmia.w	sp!, {r4, r5, r6, r7, r8, lr}
 8015824:	4611      	mov	r1, r2
 8015826:	f7ff beeb 	b.w	8015600 <_malloc_r>
 801582a:	b92a      	cbnz	r2, 8015838 <_realloc_r+0x24>
 801582c:	f7ff fe7c 	bl	8015528 <_free_r>
 8015830:	4625      	mov	r5, r4
 8015832:	4628      	mov	r0, r5
 8015834:	e8bd 81f0 	ldmia.w	sp!, {r4, r5, r6, r7, r8, pc}
 8015838:	f000 f81b 	bl	8015872 <_malloc_usable_size_r>
 801583c:	4284      	cmp	r4, r0
 801583e:	4607      	mov	r7, r0
 8015840:	d802      	bhi.n	8015848 <_realloc_r+0x34>
 8015842:	ebb4 0f50 	cmp.w	r4, r0, lsr #1
 8015846:	d812      	bhi.n	801586e <_realloc_r+0x5a>
 8015848:	4621      	mov	r1, r4
 801584a:	4640      	mov	r0, r8
 801584c:	f7ff fed8 	bl	8015600 <_malloc_r>
 8015850:	4605      	mov	r5, r0
 8015852:	2800      	cmp	r0, #0
 8015854:	d0ed      	beq.n	8015832 <_realloc_r+0x1e>
 8015856:	42bc      	cmp	r4, r7
 8015858:	4622      	mov	r2, r4
 801585a:	4631      	mov	r1, r6
 801585c:	bf28      	it	cs
 801585e:	463a      	movcs	r2, r7
 8015860:	f7ff fe32 	bl	80154c8 <memcpy>
 8015864:	4631      	mov	r1, r6
 8015866:	4640      	mov	r0, r8
 8015868:	f7ff fe5e 	bl	8015528 <_free_r>
 801586c:	e7e1      	b.n	8015832 <_realloc_r+0x1e>
 801586e:	4635      	mov	r5, r6
 8015870:	e7df      	b.n	8015832 <_realloc_r+0x1e>

08015872 <_malloc_usable_size_r>:
 8015872:	f851 3c04 	ldr.w	r3, [r1, #-4]
 8015876:	1f18      	subs	r0, r3, #4
 8015878:	2b00      	cmp	r3, #0
 801587a:	bfbc      	itt	lt
 801587c:	580b      	ldrlt	r3, [r1, r0]
 801587e:	18c0      	addlt	r0, r0, r3
 8015880:	4770      	bx	lr
	...

08015884 <_init>:
 8015884:	b5f8      	push	{r3, r4, r5, r6, r7, lr}
 8015886:	bf00      	nop
 8015888:	bcf8      	pop	{r3, r4, r5, r6, r7}
 801588a:	bc08      	pop	{r3}
 801588c:	469e      	mov	lr, r3
 801588e:	4770      	bx	lr

08015890 <_fini>:
 8015890:	b5f8      	push	{r3, r4, r5, r6, r7, lr}
 8015892:	bf00      	nop
 8015894:	bcf8      	pop	{r3, r4, r5, r6, r7}
 8015896:	bc08      	pop	{r3}
 8015898:	469e      	mov	lr, r3
 801589a:	4770      	bx	lr
